ARM GAS  /var/folders/yz/w8msd8211qzc60m57tpkzbn80000gn/T//ccvgDrY8.s 			page 1


   1              		.cpu cortex-m7
   2              		.eabi_attribute 27, 1
   3              		.eabi_attribute 28, 1
   4              		.eabi_attribute 20, 1
   5              		.eabi_attribute 21, 1
   6              		.eabi_attribute 23, 3
   7              		.eabi_attribute 24, 1
   8              		.eabi_attribute 25, 1
   9              		.eabi_attribute 26, 1
  10              		.eabi_attribute 30, 1
  11              		.eabi_attribute 34, 1
  12              		.eabi_attribute 18, 4
  13              		.file	"http_client.c"
  14              		.text
  15              	.Ltext0:
  16              		.cfi_sections	.debug_frame
  17              		.section	.text.httpc_tcp_sent,"ax",%progbits
  18              		.align	1
  19              		.arch armv7e-m
  20              		.syntax unified
  21              		.thumb
  22              		.thumb_func
  23              		.fpu fpv5-sp-d16
  25              	httpc_tcp_sent:
  26              	.LVL0:
  27              	.LFB32:
  28              		.file 1 "./Middlewares/LwIP/src/apps/http/http_client.c"
   1:./Middlewares/LwIP/src/apps/http/http_client.c **** /**
   2:./Middlewares/LwIP/src/apps/http/http_client.c ****  * @file
   3:./Middlewares/LwIP/src/apps/http/http_client.c ****  * HTTP client
   4:./Middlewares/LwIP/src/apps/http/http_client.c ****  */
   5:./Middlewares/LwIP/src/apps/http/http_client.c **** 
   6:./Middlewares/LwIP/src/apps/http/http_client.c **** /*
   7:./Middlewares/LwIP/src/apps/http/http_client.c ****  * Copyright (c) 2018 Simon Goldschmidt <goldsimon@gmx.de>
   8:./Middlewares/LwIP/src/apps/http/http_client.c ****  * All rights reserved.
   9:./Middlewares/LwIP/src/apps/http/http_client.c ****  *
  10:./Middlewares/LwIP/src/apps/http/http_client.c ****  * Redistribution and use in source and binary forms, with or without modification,
  11:./Middlewares/LwIP/src/apps/http/http_client.c ****  * are permitted provided that the following conditions are met:
  12:./Middlewares/LwIP/src/apps/http/http_client.c ****  *
  13:./Middlewares/LwIP/src/apps/http/http_client.c ****  * 1. Redistributions of source code must retain the above copyright notice,
  14:./Middlewares/LwIP/src/apps/http/http_client.c ****  *    this list of conditions and the following disclaimer.
  15:./Middlewares/LwIP/src/apps/http/http_client.c ****  * 2. Redistributions in binary form must reproduce the above copyright notice,
  16:./Middlewares/LwIP/src/apps/http/http_client.c ****  *    this list of conditions and the following disclaimer in the documentation
  17:./Middlewares/LwIP/src/apps/http/http_client.c ****  *    and/or other materials provided with the distribution.
  18:./Middlewares/LwIP/src/apps/http/http_client.c ****  * 3. The name of the author may not be used to endorse or promote products
  19:./Middlewares/LwIP/src/apps/http/http_client.c ****  *    derived from this software without specific prior written permission.
  20:./Middlewares/LwIP/src/apps/http/http_client.c ****  *
  21:./Middlewares/LwIP/src/apps/http/http_client.c ****  * THIS SOFTWARE IS PROVIDED BY THE AUTHOR ``AS IS'' AND ANY EXPRESS OR IMPLIED
  22:./Middlewares/LwIP/src/apps/http/http_client.c ****  * WARRANTIES, INCLUDING, BUT NOT LIMITED TO, THE IMPLIED WARRANTIES OF
  23:./Middlewares/LwIP/src/apps/http/http_client.c ****  * MERCHANTABILITY AND FITNESS FOR A PARTICULAR PURPOSE ARE DISCLAIMED. IN NO EVENT
  24:./Middlewares/LwIP/src/apps/http/http_client.c ****  * SHALL THE AUTHOR BE LIABLE FOR ANY DIRECT, INDIRECT, INCIDENTAL, SPECIAL,
  25:./Middlewares/LwIP/src/apps/http/http_client.c ****  * EXEMPLARY, OR CONSEQUENTIAL DAMAGES (INCLUDING, BUT NOT LIMITED TO, PROCUREMENT
  26:./Middlewares/LwIP/src/apps/http/http_client.c ****  * OF SUBSTITUTE GOODS OR SERVICES; LOSS OF USE, DATA, OR PROFITS; OR BUSINESS
  27:./Middlewares/LwIP/src/apps/http/http_client.c ****  * INTERRUPTION) HOWEVER CAUSED AND ON ANY THEORY OF LIABILITY, WHETHER IN
  28:./Middlewares/LwIP/src/apps/http/http_client.c ****  * CONTRACT, STRICT LIABILITY, OR TORT (INCLUDING NEGLIGENCE OR OTHERWISE) ARISING
  29:./Middlewares/LwIP/src/apps/http/http_client.c ****  * IN ANY WAY OUT OF THE USE OF THIS SOFTWARE, EVEN IF ADVISED OF THE POSSIBILITY
  30:./Middlewares/LwIP/src/apps/http/http_client.c ****  * OF SUCH DAMAGE.
ARM GAS  /var/folders/yz/w8msd8211qzc60m57tpkzbn80000gn/T//ccvgDrY8.s 			page 2


  31:./Middlewares/LwIP/src/apps/http/http_client.c ****  *
  32:./Middlewares/LwIP/src/apps/http/http_client.c ****  * This file is part of the lwIP TCP/IP stack.
  33:./Middlewares/LwIP/src/apps/http/http_client.c ****  *
  34:./Middlewares/LwIP/src/apps/http/http_client.c ****  * Author: Simon Goldschmidt <goldsimon@gmx.de>
  35:./Middlewares/LwIP/src/apps/http/http_client.c ****  */
  36:./Middlewares/LwIP/src/apps/http/http_client.c **** 
  37:./Middlewares/LwIP/src/apps/http/http_client.c **** /**
  38:./Middlewares/LwIP/src/apps/http/http_client.c ****  * @defgroup httpc HTTP client
  39:./Middlewares/LwIP/src/apps/http/http_client.c ****  * @ingroup apps
  40:./Middlewares/LwIP/src/apps/http/http_client.c ****  * @todo:
  41:./Middlewares/LwIP/src/apps/http/http_client.c ****  * - persistent connections
  42:./Middlewares/LwIP/src/apps/http/http_client.c ****  * - select outgoing http version
  43:./Middlewares/LwIP/src/apps/http/http_client.c ****  * - optionally follow redirect
  44:./Middlewares/LwIP/src/apps/http/http_client.c ****  * - check request uri for invalid characters? (e.g. encode spaces)
  45:./Middlewares/LwIP/src/apps/http/http_client.c ****  * - IPv6 support
  46:./Middlewares/LwIP/src/apps/http/http_client.c ****  */
  47:./Middlewares/LwIP/src/apps/http/http_client.c **** 
  48:./Middlewares/LwIP/src/apps/http/http_client.c **** #include "lwip/apps/http_client.h"
  49:./Middlewares/LwIP/src/apps/http/http_client.c **** 
  50:./Middlewares/LwIP/src/apps/http/http_client.c **** #include "lwip/altcp_tcp.h"
  51:./Middlewares/LwIP/src/apps/http/http_client.c **** #include "lwip/dns.h"
  52:./Middlewares/LwIP/src/apps/http/http_client.c **** #include "lwip/debug.h"
  53:./Middlewares/LwIP/src/apps/http/http_client.c **** #include "lwip/mem.h"
  54:./Middlewares/LwIP/src/apps/http/http_client.c **** #include "lwip/altcp_tls.h"
  55:./Middlewares/LwIP/src/apps/http/http_client.c **** #include "lwip/init.h"
  56:./Middlewares/LwIP/src/apps/http/http_client.c **** 
  57:./Middlewares/LwIP/src/apps/http/http_client.c **** #include <stdio.h>
  58:./Middlewares/LwIP/src/apps/http/http_client.c **** #include <stdlib.h>
  59:./Middlewares/LwIP/src/apps/http/http_client.c **** #include <string.h>
  60:./Middlewares/LwIP/src/apps/http/http_client.c **** 
  61:./Middlewares/LwIP/src/apps/http/http_client.c **** #if LWIP_TCP && LWIP_CALLBACK_API
  62:./Middlewares/LwIP/src/apps/http/http_client.c **** 
  63:./Middlewares/LwIP/src/apps/http/http_client.c **** /**
  64:./Middlewares/LwIP/src/apps/http/http_client.c ****  * HTTPC_DEBUG: Enable debugging for HTTP client.
  65:./Middlewares/LwIP/src/apps/http/http_client.c ****  */
  66:./Middlewares/LwIP/src/apps/http/http_client.c **** #ifndef HTTPC_DEBUG
  67:./Middlewares/LwIP/src/apps/http/http_client.c **** #define HTTPC_DEBUG                 LWIP_DBG_OFF
  68:./Middlewares/LwIP/src/apps/http/http_client.c **** #endif
  69:./Middlewares/LwIP/src/apps/http/http_client.c **** 
  70:./Middlewares/LwIP/src/apps/http/http_client.c **** /** Set this to 1 to keep server name and uri in request state */
  71:./Middlewares/LwIP/src/apps/http/http_client.c **** #ifndef HTTPC_DEBUG_REQUEST
  72:./Middlewares/LwIP/src/apps/http/http_client.c **** #define HTTPC_DEBUG_REQUEST         0
  73:./Middlewares/LwIP/src/apps/http/http_client.c **** #endif
  74:./Middlewares/LwIP/src/apps/http/http_client.c **** 
  75:./Middlewares/LwIP/src/apps/http/http_client.c **** /** This string is passed in the HTTP header as "User-Agent: " */
  76:./Middlewares/LwIP/src/apps/http/http_client.c **** #ifndef HTTPC_CLIENT_AGENT
  77:./Middlewares/LwIP/src/apps/http/http_client.c **** #define HTTPC_CLIENT_AGENT "lwIP/" LWIP_VERSION_STRING " (http://savannah.nongnu.org/projects/lwip)
  78:./Middlewares/LwIP/src/apps/http/http_client.c **** #endif
  79:./Middlewares/LwIP/src/apps/http/http_client.c **** 
  80:./Middlewares/LwIP/src/apps/http/http_client.c **** /* the various debug levels for this file */
  81:./Middlewares/LwIP/src/apps/http/http_client.c **** #define HTTPC_DEBUG_TRACE        (HTTPC_DEBUG | LWIP_DBG_TRACE)
  82:./Middlewares/LwIP/src/apps/http/http_client.c **** #define HTTPC_DEBUG_STATE        (HTTPC_DEBUG | LWIP_DBG_STATE)
  83:./Middlewares/LwIP/src/apps/http/http_client.c **** #define HTTPC_DEBUG_WARN         (HTTPC_DEBUG | LWIP_DBG_LEVEL_WARNING)
  84:./Middlewares/LwIP/src/apps/http/http_client.c **** #define HTTPC_DEBUG_WARN_STATE   (HTTPC_DEBUG | LWIP_DBG_LEVEL_WARNING | LWIP_DBG_STATE)
  85:./Middlewares/LwIP/src/apps/http/http_client.c **** #define HTTPC_DEBUG_SERIOUS      (HTTPC_DEBUG | LWIP_DBG_LEVEL_SERIOUS)
  86:./Middlewares/LwIP/src/apps/http/http_client.c **** 
  87:./Middlewares/LwIP/src/apps/http/http_client.c **** #define HTTPC_POLL_INTERVAL     1
ARM GAS  /var/folders/yz/w8msd8211qzc60m57tpkzbn80000gn/T//ccvgDrY8.s 			page 3


  88:./Middlewares/LwIP/src/apps/http/http_client.c **** #define HTTPC_POLL_TIMEOUT      30 /* 15 seconds */
  89:./Middlewares/LwIP/src/apps/http/http_client.c **** 
  90:./Middlewares/LwIP/src/apps/http/http_client.c **** #define HTTPC_CONTENT_LEN_INVALID 0xFFFFFFFF
  91:./Middlewares/LwIP/src/apps/http/http_client.c **** 
  92:./Middlewares/LwIP/src/apps/http/http_client.c **** /* GET request basic */
  93:./Middlewares/LwIP/src/apps/http/http_client.c **** #define HTTPC_REQ_11 "GET %s HTTP/1.1\r\n" /* URI */\
  94:./Middlewares/LwIP/src/apps/http/http_client.c ****     "User-Agent: %s\r\n" /* User-Agent */ \
  95:./Middlewares/LwIP/src/apps/http/http_client.c ****     "Accept: */*\r\n" \
  96:./Middlewares/LwIP/src/apps/http/http_client.c ****     "Connection: Close\r\n" /* we don't support persistent connections, yet */ \
  97:./Middlewares/LwIP/src/apps/http/http_client.c ****     "\r\n"
  98:./Middlewares/LwIP/src/apps/http/http_client.c **** #define HTTPC_REQ_11_FORMAT(uri) HTTPC_REQ_11, uri, HTTPC_CLIENT_AGENT
  99:./Middlewares/LwIP/src/apps/http/http_client.c **** 
 100:./Middlewares/LwIP/src/apps/http/http_client.c **** /* GET request with host */
 101:./Middlewares/LwIP/src/apps/http/http_client.c **** #define HTTPC_REQ_11_HOST "GET %s HTTP/1.1\r\n" /* URI */\
 102:./Middlewares/LwIP/src/apps/http/http_client.c ****     "User-Agent: %s\r\n" /* User-Agent */ \
 103:./Middlewares/LwIP/src/apps/http/http_client.c ****     "Accept: */*\r\n" \
 104:./Middlewares/LwIP/src/apps/http/http_client.c ****     "Host: %s\r\n" /* server name */ \
 105:./Middlewares/LwIP/src/apps/http/http_client.c ****     "Connection: Close\r\n" /* we don't support persistent connections, yet */ \
 106:./Middlewares/LwIP/src/apps/http/http_client.c ****     "\r\n"
 107:./Middlewares/LwIP/src/apps/http/http_client.c **** #define HTTPC_REQ_11_HOST_FORMAT(uri, srv_name) HTTPC_REQ_11_HOST, uri, HTTPC_CLIENT_AGENT, srv_nam
 108:./Middlewares/LwIP/src/apps/http/http_client.c **** 
 109:./Middlewares/LwIP/src/apps/http/http_client.c **** /* GET request with proxy */
 110:./Middlewares/LwIP/src/apps/http/http_client.c **** #define HTTPC_REQ_11_PROXY "GET http://%s%s HTTP/1.1\r\n" /* HOST, URI */\
 111:./Middlewares/LwIP/src/apps/http/http_client.c ****     "User-Agent: %s\r\n" /* User-Agent */ \
 112:./Middlewares/LwIP/src/apps/http/http_client.c ****     "Accept: */*\r\n" \
 113:./Middlewares/LwIP/src/apps/http/http_client.c ****     "Host: %s\r\n" /* server name */ \
 114:./Middlewares/LwIP/src/apps/http/http_client.c ****     "Connection: Close\r\n" /* we don't support persistent connections, yet */ \
 115:./Middlewares/LwIP/src/apps/http/http_client.c ****     "\r\n"
 116:./Middlewares/LwIP/src/apps/http/http_client.c **** #define HTTPC_REQ_11_PROXY_FORMAT(host, uri, srv_name) HTTPC_REQ_11_PROXY, host, uri, HTTPC_CLIENT_
 117:./Middlewares/LwIP/src/apps/http/http_client.c **** 
 118:./Middlewares/LwIP/src/apps/http/http_client.c **** /* GET request with proxy (non-default server port) */
 119:./Middlewares/LwIP/src/apps/http/http_client.c **** #define HTTPC_REQ_11_PROXY_PORT "GET http://%s:%d%s HTTP/1.1\r\n" /* HOST, host-port, URI */\
 120:./Middlewares/LwIP/src/apps/http/http_client.c ****     "User-Agent: %s\r\n" /* User-Agent */ \
 121:./Middlewares/LwIP/src/apps/http/http_client.c ****     "Accept: */*\r\n" \
 122:./Middlewares/LwIP/src/apps/http/http_client.c ****     "Host: %s\r\n" /* server name */ \
 123:./Middlewares/LwIP/src/apps/http/http_client.c ****     "Connection: Close\r\n" /* we don't support persistent connections, yet */ \
 124:./Middlewares/LwIP/src/apps/http/http_client.c ****     "\r\n"
 125:./Middlewares/LwIP/src/apps/http/http_client.c **** #define HTTPC_REQ_11_PROXY_PORT_FORMAT(host, host_port, uri, srv_name) HTTPC_REQ_11_PROXY_PORT, hos
 126:./Middlewares/LwIP/src/apps/http/http_client.c **** 
 127:./Middlewares/LwIP/src/apps/http/http_client.c **** typedef enum ehttpc_parse_state {
 128:./Middlewares/LwIP/src/apps/http/http_client.c ****   HTTPC_PARSE_WAIT_FIRST_LINE = 0,
 129:./Middlewares/LwIP/src/apps/http/http_client.c ****   HTTPC_PARSE_WAIT_HEADERS,
 130:./Middlewares/LwIP/src/apps/http/http_client.c ****   HTTPC_PARSE_RX_DATA
 131:./Middlewares/LwIP/src/apps/http/http_client.c **** } httpc_parse_state_t;
 132:./Middlewares/LwIP/src/apps/http/http_client.c **** 
 133:./Middlewares/LwIP/src/apps/http/http_client.c **** typedef struct _httpc_state
 134:./Middlewares/LwIP/src/apps/http/http_client.c **** {
 135:./Middlewares/LwIP/src/apps/http/http_client.c ****   struct altcp_pcb* pcb;
 136:./Middlewares/LwIP/src/apps/http/http_client.c ****   ip_addr_t remote_addr;
 137:./Middlewares/LwIP/src/apps/http/http_client.c ****   u16_t remote_port;
 138:./Middlewares/LwIP/src/apps/http/http_client.c ****   int timeout_ticks;
 139:./Middlewares/LwIP/src/apps/http/http_client.c ****   struct pbuf *request;
 140:./Middlewares/LwIP/src/apps/http/http_client.c ****   struct pbuf *rx_hdrs;
 141:./Middlewares/LwIP/src/apps/http/http_client.c ****   u16_t rx_http_version;
 142:./Middlewares/LwIP/src/apps/http/http_client.c ****   u16_t rx_status;
 143:./Middlewares/LwIP/src/apps/http/http_client.c ****   altcp_recv_fn recv_fn;
 144:./Middlewares/LwIP/src/apps/http/http_client.c ****   const httpc_connection_t *conn_settings;
ARM GAS  /var/folders/yz/w8msd8211qzc60m57tpkzbn80000gn/T//ccvgDrY8.s 			page 4


 145:./Middlewares/LwIP/src/apps/http/http_client.c ****   void* callback_arg;
 146:./Middlewares/LwIP/src/apps/http/http_client.c ****   u32_t rx_content_len;
 147:./Middlewares/LwIP/src/apps/http/http_client.c ****   u32_t hdr_content_len;
 148:./Middlewares/LwIP/src/apps/http/http_client.c ****   httpc_parse_state_t parse_state;
 149:./Middlewares/LwIP/src/apps/http/http_client.c **** #if HTTPC_DEBUG_REQUEST
 150:./Middlewares/LwIP/src/apps/http/http_client.c ****   char* server_name;
 151:./Middlewares/LwIP/src/apps/http/http_client.c ****   char* uri;
 152:./Middlewares/LwIP/src/apps/http/http_client.c **** #endif
 153:./Middlewares/LwIP/src/apps/http/http_client.c **** } httpc_state_t;
 154:./Middlewares/LwIP/src/apps/http/http_client.c **** 
 155:./Middlewares/LwIP/src/apps/http/http_client.c **** /** Free http client state and deallocate all resources within */
 156:./Middlewares/LwIP/src/apps/http/http_client.c **** static err_t
 157:./Middlewares/LwIP/src/apps/http/http_client.c **** httpc_free_state(httpc_state_t* req)
 158:./Middlewares/LwIP/src/apps/http/http_client.c **** {
 159:./Middlewares/LwIP/src/apps/http/http_client.c ****   struct altcp_pcb* tpcb;
 160:./Middlewares/LwIP/src/apps/http/http_client.c **** 
 161:./Middlewares/LwIP/src/apps/http/http_client.c ****   if (req->request != NULL) {
 162:./Middlewares/LwIP/src/apps/http/http_client.c ****     pbuf_free(req->request);
 163:./Middlewares/LwIP/src/apps/http/http_client.c ****     req->request = NULL;
 164:./Middlewares/LwIP/src/apps/http/http_client.c ****   }
 165:./Middlewares/LwIP/src/apps/http/http_client.c ****   if (req->rx_hdrs != NULL) {
 166:./Middlewares/LwIP/src/apps/http/http_client.c ****     pbuf_free(req->rx_hdrs);
 167:./Middlewares/LwIP/src/apps/http/http_client.c ****     req->rx_hdrs = NULL;
 168:./Middlewares/LwIP/src/apps/http/http_client.c ****   }
 169:./Middlewares/LwIP/src/apps/http/http_client.c **** 
 170:./Middlewares/LwIP/src/apps/http/http_client.c ****   tpcb = req->pcb;
 171:./Middlewares/LwIP/src/apps/http/http_client.c ****   mem_free(req);
 172:./Middlewares/LwIP/src/apps/http/http_client.c ****   req = NULL;
 173:./Middlewares/LwIP/src/apps/http/http_client.c **** 
 174:./Middlewares/LwIP/src/apps/http/http_client.c ****   if (tpcb != NULL) {
 175:./Middlewares/LwIP/src/apps/http/http_client.c ****     err_t r;
 176:./Middlewares/LwIP/src/apps/http/http_client.c ****     altcp_arg(tpcb, NULL);
 177:./Middlewares/LwIP/src/apps/http/http_client.c ****     altcp_recv(tpcb, NULL);
 178:./Middlewares/LwIP/src/apps/http/http_client.c ****     altcp_err(tpcb, NULL);
 179:./Middlewares/LwIP/src/apps/http/http_client.c ****     altcp_poll(tpcb, NULL, 0);
 180:./Middlewares/LwIP/src/apps/http/http_client.c ****     altcp_sent(tpcb, NULL);
 181:./Middlewares/LwIP/src/apps/http/http_client.c ****     r = altcp_close(tpcb);
 182:./Middlewares/LwIP/src/apps/http/http_client.c ****     if (r != ERR_OK) {
 183:./Middlewares/LwIP/src/apps/http/http_client.c ****       altcp_abort(tpcb);
 184:./Middlewares/LwIP/src/apps/http/http_client.c ****       return ERR_ABRT;
 185:./Middlewares/LwIP/src/apps/http/http_client.c ****     }
 186:./Middlewares/LwIP/src/apps/http/http_client.c ****   }
 187:./Middlewares/LwIP/src/apps/http/http_client.c ****   return ERR_OK;
 188:./Middlewares/LwIP/src/apps/http/http_client.c **** }
 189:./Middlewares/LwIP/src/apps/http/http_client.c **** 
 190:./Middlewares/LwIP/src/apps/http/http_client.c **** /** Close the connection: call finished callback and free the state */
 191:./Middlewares/LwIP/src/apps/http/http_client.c **** static err_t
 192:./Middlewares/LwIP/src/apps/http/http_client.c **** httpc_close(httpc_state_t* req, httpc_result_t result, u32_t server_response, err_t err)
 193:./Middlewares/LwIP/src/apps/http/http_client.c **** {
 194:./Middlewares/LwIP/src/apps/http/http_client.c ****   if (req != NULL) {
 195:./Middlewares/LwIP/src/apps/http/http_client.c ****     if (req->conn_settings != NULL) {
 196:./Middlewares/LwIP/src/apps/http/http_client.c ****       if (req->conn_settings->result_fn != NULL) {
 197:./Middlewares/LwIP/src/apps/http/http_client.c ****         req->conn_settings->result_fn(req->callback_arg, result, req->rx_content_len, server_respon
 198:./Middlewares/LwIP/src/apps/http/http_client.c ****       }
 199:./Middlewares/LwIP/src/apps/http/http_client.c ****     }
 200:./Middlewares/LwIP/src/apps/http/http_client.c ****     return httpc_free_state(req);
 201:./Middlewares/LwIP/src/apps/http/http_client.c ****   }
ARM GAS  /var/folders/yz/w8msd8211qzc60m57tpkzbn80000gn/T//ccvgDrY8.s 			page 5


 202:./Middlewares/LwIP/src/apps/http/http_client.c ****   return ERR_OK;
 203:./Middlewares/LwIP/src/apps/http/http_client.c **** }
 204:./Middlewares/LwIP/src/apps/http/http_client.c **** 
 205:./Middlewares/LwIP/src/apps/http/http_client.c **** /** Parse http header response line 1 */
 206:./Middlewares/LwIP/src/apps/http/http_client.c **** static err_t
 207:./Middlewares/LwIP/src/apps/http/http_client.c **** http_parse_response_status(struct pbuf *p, u16_t *http_version, u16_t *http_status, u16_t *http_sta
 208:./Middlewares/LwIP/src/apps/http/http_client.c **** {
 209:./Middlewares/LwIP/src/apps/http/http_client.c ****   u16_t end1 = pbuf_memfind(p, "\r\n", 2, 0);
 210:./Middlewares/LwIP/src/apps/http/http_client.c ****   if (end1 != 0xFFFF) {
 211:./Middlewares/LwIP/src/apps/http/http_client.c ****     /* get parts of first line */
 212:./Middlewares/LwIP/src/apps/http/http_client.c ****     u16_t space1, space2;
 213:./Middlewares/LwIP/src/apps/http/http_client.c ****     space1 = pbuf_memfind(p, " ", 1, 0);
 214:./Middlewares/LwIP/src/apps/http/http_client.c ****     if (space1 != 0xFFFF) {
 215:./Middlewares/LwIP/src/apps/http/http_client.c ****       if ((pbuf_memcmp(p, 0, "HTTP/", 5) == 0)  && (pbuf_get_at(p, 6) == '.')) {
 216:./Middlewares/LwIP/src/apps/http/http_client.c ****         char status_num[10];
 217:./Middlewares/LwIP/src/apps/http/http_client.c ****         size_t status_num_len;
 218:./Middlewares/LwIP/src/apps/http/http_client.c ****         /* parse http version */
 219:./Middlewares/LwIP/src/apps/http/http_client.c ****         u16_t version = pbuf_get_at(p, 5) - '0';
 220:./Middlewares/LwIP/src/apps/http/http_client.c ****         version <<= 8;
 221:./Middlewares/LwIP/src/apps/http/http_client.c ****         version |= pbuf_get_at(p, 7) - '0';
 222:./Middlewares/LwIP/src/apps/http/http_client.c ****         *http_version = version;
 223:./Middlewares/LwIP/src/apps/http/http_client.c **** 
 224:./Middlewares/LwIP/src/apps/http/http_client.c ****         /* parse http status number */
 225:./Middlewares/LwIP/src/apps/http/http_client.c ****         space2 = pbuf_memfind(p, " ", 1, space1 + 1);
 226:./Middlewares/LwIP/src/apps/http/http_client.c ****         if (space2 != 0xFFFF) {
 227:./Middlewares/LwIP/src/apps/http/http_client.c ****           *http_status_str_offset = space2 + 1;
 228:./Middlewares/LwIP/src/apps/http/http_client.c ****           status_num_len = space2 - space1 - 1;
 229:./Middlewares/LwIP/src/apps/http/http_client.c ****         } else {
 230:./Middlewares/LwIP/src/apps/http/http_client.c ****           status_num_len = end1 - space1 - 1;
 231:./Middlewares/LwIP/src/apps/http/http_client.c ****         }
 232:./Middlewares/LwIP/src/apps/http/http_client.c ****         memset(status_num, 0, sizeof(status_num));
 233:./Middlewares/LwIP/src/apps/http/http_client.c ****         if (pbuf_copy_partial(p, status_num, (u16_t)status_num_len, space1 + 1) == status_num_len) 
 234:./Middlewares/LwIP/src/apps/http/http_client.c ****           int status = atoi(status_num);
 235:./Middlewares/LwIP/src/apps/http/http_client.c ****           if ((status > 0) && (status <= 0xFFFF)) {
 236:./Middlewares/LwIP/src/apps/http/http_client.c ****             *http_status = (u16_t)status;
 237:./Middlewares/LwIP/src/apps/http/http_client.c ****             return ERR_OK;
 238:./Middlewares/LwIP/src/apps/http/http_client.c ****           }
 239:./Middlewares/LwIP/src/apps/http/http_client.c ****         }
 240:./Middlewares/LwIP/src/apps/http/http_client.c ****       }
 241:./Middlewares/LwIP/src/apps/http/http_client.c ****     }
 242:./Middlewares/LwIP/src/apps/http/http_client.c ****   }
 243:./Middlewares/LwIP/src/apps/http/http_client.c ****   return ERR_VAL;
 244:./Middlewares/LwIP/src/apps/http/http_client.c **** }
 245:./Middlewares/LwIP/src/apps/http/http_client.c **** 
 246:./Middlewares/LwIP/src/apps/http/http_client.c **** /** Wait for all headers to be received, return its length and content-length (if available) */
 247:./Middlewares/LwIP/src/apps/http/http_client.c **** static err_t
 248:./Middlewares/LwIP/src/apps/http/http_client.c **** http_wait_headers(struct pbuf *p, u32_t *content_length, u16_t *total_header_len)
 249:./Middlewares/LwIP/src/apps/http/http_client.c **** {
 250:./Middlewares/LwIP/src/apps/http/http_client.c ****   u16_t end1 = pbuf_memfind(p, "\r\n\r\n", 4, 0);
 251:./Middlewares/LwIP/src/apps/http/http_client.c ****   if (end1 < (0xFFFF - 2)) {
 252:./Middlewares/LwIP/src/apps/http/http_client.c ****     /* all headers received */
 253:./Middlewares/LwIP/src/apps/http/http_client.c ****     /* check if we have a content length (@todo: case insensitive?) */
 254:./Middlewares/LwIP/src/apps/http/http_client.c ****     u16_t content_len_hdr;
 255:./Middlewares/LwIP/src/apps/http/http_client.c ****     *content_length = HTTPC_CONTENT_LEN_INVALID;
 256:./Middlewares/LwIP/src/apps/http/http_client.c ****     *total_header_len = end1 + 4;
 257:./Middlewares/LwIP/src/apps/http/http_client.c **** 
 258:./Middlewares/LwIP/src/apps/http/http_client.c ****     content_len_hdr = pbuf_memfind(p, "Content-Length: ", 16, 0);
ARM GAS  /var/folders/yz/w8msd8211qzc60m57tpkzbn80000gn/T//ccvgDrY8.s 			page 6


 259:./Middlewares/LwIP/src/apps/http/http_client.c ****     if (content_len_hdr != 0xFFFF) {
 260:./Middlewares/LwIP/src/apps/http/http_client.c ****       u16_t content_len_line_end = pbuf_memfind(p, "\r\n", 2, content_len_hdr);
 261:./Middlewares/LwIP/src/apps/http/http_client.c ****       if (content_len_line_end != 0xFFFF) {
 262:./Middlewares/LwIP/src/apps/http/http_client.c ****         char content_len_num[16];
 263:./Middlewares/LwIP/src/apps/http/http_client.c ****         u16_t content_len_num_len = (u16_t)(content_len_line_end - content_len_hdr - 16);
 264:./Middlewares/LwIP/src/apps/http/http_client.c ****         memset(content_len_num, 0, sizeof(content_len_num));
 265:./Middlewares/LwIP/src/apps/http/http_client.c ****         if (pbuf_copy_partial(p, content_len_num, content_len_num_len, content_len_hdr + 16) == con
 266:./Middlewares/LwIP/src/apps/http/http_client.c ****           int len = atoi(content_len_num);
 267:./Middlewares/LwIP/src/apps/http/http_client.c ****           if ((len >= 0) && ((u32_t)len < HTTPC_CONTENT_LEN_INVALID)) {
 268:./Middlewares/LwIP/src/apps/http/http_client.c ****             *content_length = (u32_t)len;
 269:./Middlewares/LwIP/src/apps/http/http_client.c ****           }
 270:./Middlewares/LwIP/src/apps/http/http_client.c ****         }
 271:./Middlewares/LwIP/src/apps/http/http_client.c ****       }
 272:./Middlewares/LwIP/src/apps/http/http_client.c ****     }
 273:./Middlewares/LwIP/src/apps/http/http_client.c ****     return ERR_OK;
 274:./Middlewares/LwIP/src/apps/http/http_client.c ****   }
 275:./Middlewares/LwIP/src/apps/http/http_client.c ****   return ERR_VAL;
 276:./Middlewares/LwIP/src/apps/http/http_client.c **** }
 277:./Middlewares/LwIP/src/apps/http/http_client.c **** 
 278:./Middlewares/LwIP/src/apps/http/http_client.c **** /** http client tcp recv callback */
 279:./Middlewares/LwIP/src/apps/http/http_client.c **** static err_t
 280:./Middlewares/LwIP/src/apps/http/http_client.c **** httpc_tcp_recv(void *arg, struct altcp_pcb *pcb, struct pbuf *p, err_t r)
 281:./Middlewares/LwIP/src/apps/http/http_client.c **** {
 282:./Middlewares/LwIP/src/apps/http/http_client.c ****   httpc_state_t* req = (httpc_state_t*)arg;
 283:./Middlewares/LwIP/src/apps/http/http_client.c ****   LWIP_UNUSED_ARG(r);
 284:./Middlewares/LwIP/src/apps/http/http_client.c **** 
 285:./Middlewares/LwIP/src/apps/http/http_client.c ****   if (p == NULL) {
 286:./Middlewares/LwIP/src/apps/http/http_client.c ****     httpc_result_t result;
 287:./Middlewares/LwIP/src/apps/http/http_client.c ****     if (req->parse_state != HTTPC_PARSE_RX_DATA) {
 288:./Middlewares/LwIP/src/apps/http/http_client.c ****       /* did not get RX data yet */
 289:./Middlewares/LwIP/src/apps/http/http_client.c ****       result = HTTPC_RESULT_ERR_CLOSED;
 290:./Middlewares/LwIP/src/apps/http/http_client.c ****     } else if ((req->hdr_content_len != HTTPC_CONTENT_LEN_INVALID) &&
 291:./Middlewares/LwIP/src/apps/http/http_client.c ****       (req->hdr_content_len != req->rx_content_len)) {
 292:./Middlewares/LwIP/src/apps/http/http_client.c ****       /* header has been received with content length but not all data received */
 293:./Middlewares/LwIP/src/apps/http/http_client.c ****       result = HTTPC_RESULT_ERR_CONTENT_LEN;
 294:./Middlewares/LwIP/src/apps/http/http_client.c ****     } else {
 295:./Middlewares/LwIP/src/apps/http/http_client.c ****       /* receiving data and either all data received or no content length header */
 296:./Middlewares/LwIP/src/apps/http/http_client.c ****       result = HTTPC_RESULT_OK;
 297:./Middlewares/LwIP/src/apps/http/http_client.c ****     }
 298:./Middlewares/LwIP/src/apps/http/http_client.c ****     return httpc_close(req, result, req->rx_status, ERR_OK);
 299:./Middlewares/LwIP/src/apps/http/http_client.c ****   }
 300:./Middlewares/LwIP/src/apps/http/http_client.c ****   if (req->parse_state != HTTPC_PARSE_RX_DATA) {
 301:./Middlewares/LwIP/src/apps/http/http_client.c ****     if (req->rx_hdrs == NULL) {
 302:./Middlewares/LwIP/src/apps/http/http_client.c ****       req->rx_hdrs = p;
 303:./Middlewares/LwIP/src/apps/http/http_client.c ****     } else {
 304:./Middlewares/LwIP/src/apps/http/http_client.c ****       pbuf_cat(req->rx_hdrs, p);
 305:./Middlewares/LwIP/src/apps/http/http_client.c ****     }
 306:./Middlewares/LwIP/src/apps/http/http_client.c ****     if (req->parse_state == HTTPC_PARSE_WAIT_FIRST_LINE) {
 307:./Middlewares/LwIP/src/apps/http/http_client.c ****       u16_t status_str_off;
 308:./Middlewares/LwIP/src/apps/http/http_client.c ****       err_t err = http_parse_response_status(req->rx_hdrs, &req->rx_http_version, &req->rx_status, 
 309:./Middlewares/LwIP/src/apps/http/http_client.c ****       if (err == ERR_OK) {
 310:./Middlewares/LwIP/src/apps/http/http_client.c ****         /* don't care status string */
 311:./Middlewares/LwIP/src/apps/http/http_client.c ****         req->parse_state = HTTPC_PARSE_WAIT_HEADERS;
 312:./Middlewares/LwIP/src/apps/http/http_client.c ****       }
 313:./Middlewares/LwIP/src/apps/http/http_client.c ****     }
 314:./Middlewares/LwIP/src/apps/http/http_client.c ****     if (req->parse_state == HTTPC_PARSE_WAIT_HEADERS) {
 315:./Middlewares/LwIP/src/apps/http/http_client.c ****       u16_t total_header_len;
ARM GAS  /var/folders/yz/w8msd8211qzc60m57tpkzbn80000gn/T//ccvgDrY8.s 			page 7


 316:./Middlewares/LwIP/src/apps/http/http_client.c ****       err_t err = http_wait_headers(req->rx_hdrs, &req->hdr_content_len, &total_header_len);
 317:./Middlewares/LwIP/src/apps/http/http_client.c ****       if (err == ERR_OK) {
 318:./Middlewares/LwIP/src/apps/http/http_client.c ****         struct pbuf *q;
 319:./Middlewares/LwIP/src/apps/http/http_client.c ****         /* full header received, send window update for header bytes and call into client callback 
 320:./Middlewares/LwIP/src/apps/http/http_client.c ****         altcp_recved(pcb, total_header_len);
 321:./Middlewares/LwIP/src/apps/http/http_client.c ****         if (req->conn_settings) {
 322:./Middlewares/LwIP/src/apps/http/http_client.c ****           if (req->conn_settings->headers_done_fn) {
 323:./Middlewares/LwIP/src/apps/http/http_client.c ****             err = req->conn_settings->headers_done_fn(req, req->callback_arg, req->rx_hdrs, total_h
 324:./Middlewares/LwIP/src/apps/http/http_client.c ****             if (err != ERR_OK) {
 325:./Middlewares/LwIP/src/apps/http/http_client.c ****               return httpc_close(req, HTTPC_RESULT_LOCAL_ABORT, req->rx_status, err);
 326:./Middlewares/LwIP/src/apps/http/http_client.c ****             }
 327:./Middlewares/LwIP/src/apps/http/http_client.c ****           }
 328:./Middlewares/LwIP/src/apps/http/http_client.c ****         }
 329:./Middlewares/LwIP/src/apps/http/http_client.c ****         /* hide header bytes in pbuf */
 330:./Middlewares/LwIP/src/apps/http/http_client.c ****         q = pbuf_free_header(req->rx_hdrs, total_header_len);
 331:./Middlewares/LwIP/src/apps/http/http_client.c ****         p = q;
 332:./Middlewares/LwIP/src/apps/http/http_client.c ****         req->rx_hdrs = NULL;
 333:./Middlewares/LwIP/src/apps/http/http_client.c ****         /* go on with data */
 334:./Middlewares/LwIP/src/apps/http/http_client.c ****         req->parse_state = HTTPC_PARSE_RX_DATA;
 335:./Middlewares/LwIP/src/apps/http/http_client.c ****       }
 336:./Middlewares/LwIP/src/apps/http/http_client.c ****     }
 337:./Middlewares/LwIP/src/apps/http/http_client.c ****   }
 338:./Middlewares/LwIP/src/apps/http/http_client.c ****   if ((p != NULL) && (req->parse_state == HTTPC_PARSE_RX_DATA)) {
 339:./Middlewares/LwIP/src/apps/http/http_client.c ****     req->rx_content_len += p->tot_len;
 340:./Middlewares/LwIP/src/apps/http/http_client.c ****     if (req->recv_fn != NULL) {
 341:./Middlewares/LwIP/src/apps/http/http_client.c ****       /* directly return here: the connection migth already be aborted from the callback! */
 342:./Middlewares/LwIP/src/apps/http/http_client.c ****       return req->recv_fn(req->callback_arg, pcb, p, r);
 343:./Middlewares/LwIP/src/apps/http/http_client.c ****     } else {
 344:./Middlewares/LwIP/src/apps/http/http_client.c ****       altcp_recved(pcb, p->tot_len);
 345:./Middlewares/LwIP/src/apps/http/http_client.c ****       pbuf_free(p);
 346:./Middlewares/LwIP/src/apps/http/http_client.c ****     }
 347:./Middlewares/LwIP/src/apps/http/http_client.c ****   }
 348:./Middlewares/LwIP/src/apps/http/http_client.c ****   return ERR_OK;
 349:./Middlewares/LwIP/src/apps/http/http_client.c **** }
 350:./Middlewares/LwIP/src/apps/http/http_client.c **** 
 351:./Middlewares/LwIP/src/apps/http/http_client.c **** /** http client tcp err callback */
 352:./Middlewares/LwIP/src/apps/http/http_client.c **** static void
 353:./Middlewares/LwIP/src/apps/http/http_client.c **** httpc_tcp_err(void *arg, err_t err)
 354:./Middlewares/LwIP/src/apps/http/http_client.c **** {
 355:./Middlewares/LwIP/src/apps/http/http_client.c ****   httpc_state_t* req = (httpc_state_t*)arg;
 356:./Middlewares/LwIP/src/apps/http/http_client.c ****   if (req != NULL) {
 357:./Middlewares/LwIP/src/apps/http/http_client.c ****     /* pcb has already been deallocated */
 358:./Middlewares/LwIP/src/apps/http/http_client.c ****     req->pcb = NULL;
 359:./Middlewares/LwIP/src/apps/http/http_client.c ****     httpc_close(req, HTTPC_RESULT_ERR_CLOSED, 0, err);
 360:./Middlewares/LwIP/src/apps/http/http_client.c ****   }
 361:./Middlewares/LwIP/src/apps/http/http_client.c **** }
 362:./Middlewares/LwIP/src/apps/http/http_client.c **** 
 363:./Middlewares/LwIP/src/apps/http/http_client.c **** /** http client tcp poll callback */
 364:./Middlewares/LwIP/src/apps/http/http_client.c **** static err_t
 365:./Middlewares/LwIP/src/apps/http/http_client.c **** httpc_tcp_poll(void *arg, struct altcp_pcb *pcb)
 366:./Middlewares/LwIP/src/apps/http/http_client.c **** {
 367:./Middlewares/LwIP/src/apps/http/http_client.c ****   /* implement timeout */
 368:./Middlewares/LwIP/src/apps/http/http_client.c ****   httpc_state_t* req = (httpc_state_t*)arg;
 369:./Middlewares/LwIP/src/apps/http/http_client.c ****   LWIP_UNUSED_ARG(pcb);
 370:./Middlewares/LwIP/src/apps/http/http_client.c ****   if (req != NULL) {
 371:./Middlewares/LwIP/src/apps/http/http_client.c ****     if (req->timeout_ticks) {
 372:./Middlewares/LwIP/src/apps/http/http_client.c ****       req->timeout_ticks--;
ARM GAS  /var/folders/yz/w8msd8211qzc60m57tpkzbn80000gn/T//ccvgDrY8.s 			page 8


 373:./Middlewares/LwIP/src/apps/http/http_client.c ****     }
 374:./Middlewares/LwIP/src/apps/http/http_client.c ****     if (!req->timeout_ticks) {
 375:./Middlewares/LwIP/src/apps/http/http_client.c ****       return httpc_close(req, HTTPC_RESULT_ERR_TIMEOUT, 0, ERR_OK);
 376:./Middlewares/LwIP/src/apps/http/http_client.c ****     }
 377:./Middlewares/LwIP/src/apps/http/http_client.c ****   }
 378:./Middlewares/LwIP/src/apps/http/http_client.c ****   return ERR_OK;
 379:./Middlewares/LwIP/src/apps/http/http_client.c **** }
 380:./Middlewares/LwIP/src/apps/http/http_client.c **** 
 381:./Middlewares/LwIP/src/apps/http/http_client.c **** /** http client tcp sent callback */
 382:./Middlewares/LwIP/src/apps/http/http_client.c **** static err_t
 383:./Middlewares/LwIP/src/apps/http/http_client.c **** httpc_tcp_sent(void *arg, struct altcp_pcb *pcb, u16_t len)
 384:./Middlewares/LwIP/src/apps/http/http_client.c **** {
  29              		.loc 1 384 1 view -0
  30              		.cfi_startproc
  31              		@ args = 0, pretend = 0, frame = 0
  32              		@ frame_needed = 0, uses_anonymous_args = 0
  33              		@ link register save eliminated.
 385:./Middlewares/LwIP/src/apps/http/http_client.c ****   /* nothing to do here for now */
 386:./Middlewares/LwIP/src/apps/http/http_client.c ****   LWIP_UNUSED_ARG(arg);
  34              		.loc 1 386 3 view .LVU1
 387:./Middlewares/LwIP/src/apps/http/http_client.c ****   LWIP_UNUSED_ARG(pcb);
  35              		.loc 1 387 3 view .LVU2
 388:./Middlewares/LwIP/src/apps/http/http_client.c ****   LWIP_UNUSED_ARG(len);
  36              		.loc 1 388 3 view .LVU3
 389:./Middlewares/LwIP/src/apps/http/http_client.c ****   return ERR_OK;
  37              		.loc 1 389 3 view .LVU4
 390:./Middlewares/LwIP/src/apps/http/http_client.c **** }
  38              		.loc 1 390 1 is_stmt 0 view .LVU5
  39 0000 0020     		movs	r0, #0
  40              	.LVL1:
  41              		.loc 1 390 1 view .LVU6
  42 0002 7047     		bx	lr
  43              		.cfi_endproc
  44              	.LFE32:
  46              		.section	.rodata.http_parse_response_status.str1.4,"aMS",%progbits,1
  47              		.align	2
  48              	.LC0:
  49 0000 0D0A00   		.ascii	"\015\012\000"
  50 0003 00       		.align	2
  51              	.LC1:
  52 0004 2000     		.ascii	" \000"
  53 0006 0000     		.align	2
  54              	.LC2:
  55 0008 48545450 		.ascii	"HTTP/\000"
  55      2F00
  56              		.section	.text.http_parse_response_status,"ax",%progbits
  57              		.align	1
  58              		.syntax unified
  59              		.thumb
  60              		.thumb_func
  61              		.fpu fpv5-sp-d16
  63              	http_parse_response_status:
  64              	.LVL2:
  65              	.LFB27:
 208:./Middlewares/LwIP/src/apps/http/http_client.c ****   u16_t end1 = pbuf_memfind(p, "\r\n", 2, 0);
  66              		.loc 1 208 1 is_stmt 1 view -0
  67              		.cfi_startproc
ARM GAS  /var/folders/yz/w8msd8211qzc60m57tpkzbn80000gn/T//ccvgDrY8.s 			page 9


  68              		@ args = 0, pretend = 0, frame = 16
  69              		@ frame_needed = 0, uses_anonymous_args = 0
 208:./Middlewares/LwIP/src/apps/http/http_client.c ****   u16_t end1 = pbuf_memfind(p, "\r\n", 2, 0);
  70              		.loc 1 208 1 is_stmt 0 view .LVU8
  71 0000 2DE9F047 		push	{r4, r5, r6, r7, r8, r9, r10, lr}
  72              	.LCFI0:
  73              		.cfi_def_cfa_offset 32
  74              		.cfi_offset 4, -32
  75              		.cfi_offset 5, -28
  76              		.cfi_offset 6, -24
  77              		.cfi_offset 7, -20
  78              		.cfi_offset 8, -16
  79              		.cfi_offset 9, -12
  80              		.cfi_offset 10, -8
  81              		.cfi_offset 14, -4
  82 0004 84B0     		sub	sp, sp, #16
  83              	.LCFI1:
  84              		.cfi_def_cfa_offset 48
  85 0006 0546     		mov	r5, r0
  86 0008 8846     		mov	r8, r1
  87 000a 9146     		mov	r9, r2
  88 000c 9A46     		mov	r10, r3
 209:./Middlewares/LwIP/src/apps/http/http_client.c ****   if (end1 != 0xFFFF) {
  89              		.loc 1 209 3 is_stmt 1 view .LVU9
 209:./Middlewares/LwIP/src/apps/http/http_client.c ****   if (end1 != 0xFFFF) {
  90              		.loc 1 209 16 is_stmt 0 view .LVU10
  91 000e 0023     		movs	r3, #0
  92              	.LVL3:
 209:./Middlewares/LwIP/src/apps/http/http_client.c ****   if (end1 != 0xFFFF) {
  93              		.loc 1 209 16 view .LVU11
  94 0010 0222     		movs	r2, #2
  95              	.LVL4:
 209:./Middlewares/LwIP/src/apps/http/http_client.c ****   if (end1 != 0xFFFF) {
  96              		.loc 1 209 16 view .LVU12
  97 0012 3849     		ldr	r1, .L12
  98              	.LVL5:
 209:./Middlewares/LwIP/src/apps/http/http_client.c ****   if (end1 != 0xFFFF) {
  99              		.loc 1 209 16 view .LVU13
 100 0014 FFF7FEFF 		bl	pbuf_memfind
 101              	.LVL6:
 210:./Middlewares/LwIP/src/apps/http/http_client.c ****     /* get parts of first line */
 102              		.loc 1 210 3 is_stmt 1 view .LVU14
 210:./Middlewares/LwIP/src/apps/http/http_client.c ****     /* get parts of first line */
 103              		.loc 1 210 6 is_stmt 0 view .LVU15
 104 0018 4FF6FF73 		movw	r3, #65535
 105 001c 9842     		cmp	r0, r3
 106 001e 5CD0     		beq	.L7
 107 0020 0746     		mov	r7, r0
 108              	.LBB2:
 212:./Middlewares/LwIP/src/apps/http/http_client.c ****     space1 = pbuf_memfind(p, " ", 1, 0);
 109              		.loc 1 212 5 is_stmt 1 view .LVU16
 213:./Middlewares/LwIP/src/apps/http/http_client.c ****     if (space1 != 0xFFFF) {
 110              		.loc 1 213 5 view .LVU17
 213:./Middlewares/LwIP/src/apps/http/http_client.c ****     if (space1 != 0xFFFF) {
 111              		.loc 1 213 14 is_stmt 0 view .LVU18
 112 0022 0023     		movs	r3, #0
 113 0024 0122     		movs	r2, #1
ARM GAS  /var/folders/yz/w8msd8211qzc60m57tpkzbn80000gn/T//ccvgDrY8.s 			page 10


 114 0026 3449     		ldr	r1, .L12+4
 115 0028 2846     		mov	r0, r5
 116              	.LVL7:
 213:./Middlewares/LwIP/src/apps/http/http_client.c ****     if (space1 != 0xFFFF) {
 117              		.loc 1 213 14 view .LVU19
 118 002a FFF7FEFF 		bl	pbuf_memfind
 119              	.LVL8:
 120 002e 0646     		mov	r6, r0
 121              	.LVL9:
 214:./Middlewares/LwIP/src/apps/http/http_client.c ****       if ((pbuf_memcmp(p, 0, "HTTP/", 5) == 0)  && (pbuf_get_at(p, 6) == '.')) {
 122              		.loc 1 214 5 is_stmt 1 view .LVU20
 214:./Middlewares/LwIP/src/apps/http/http_client.c ****       if ((pbuf_memcmp(p, 0, "HTTP/", 5) == 0)  && (pbuf_get_at(p, 6) == '.')) {
 123              		.loc 1 214 8 is_stmt 0 view .LVU21
 124 0030 4FF6FF73 		movw	r3, #65535
 125 0034 9842     		cmp	r0, r3
 126 0036 53D0     		beq	.L8
 215:./Middlewares/LwIP/src/apps/http/http_client.c ****         char status_num[10];
 127              		.loc 1 215 7 is_stmt 1 view .LVU22
 215:./Middlewares/LwIP/src/apps/http/http_client.c ****         char status_num[10];
 128              		.loc 1 215 12 is_stmt 0 view .LVU23
 129 0038 0523     		movs	r3, #5
 130 003a 304A     		ldr	r2, .L12+8
 131 003c 0021     		movs	r1, #0
 132 003e 2846     		mov	r0, r5
 133              	.LVL10:
 215:./Middlewares/LwIP/src/apps/http/http_client.c ****         char status_num[10];
 134              		.loc 1 215 12 view .LVU24
 135 0040 FFF7FEFF 		bl	pbuf_memcmp
 136              	.LVL11:
 215:./Middlewares/LwIP/src/apps/http/http_client.c ****         char status_num[10];
 137              		.loc 1 215 10 view .LVU25
 138 0044 0028     		cmp	r0, #0
 139 0046 4ED1     		bne	.L9
 215:./Middlewares/LwIP/src/apps/http/http_client.c ****         char status_num[10];
 140              		.loc 1 215 53 discriminator 1 view .LVU26
 141 0048 0621     		movs	r1, #6
 142 004a 2846     		mov	r0, r5
 143 004c FFF7FEFF 		bl	pbuf_get_at
 144              	.LVL12:
 215:./Middlewares/LwIP/src/apps/http/http_client.c ****         char status_num[10];
 145              		.loc 1 215 49 discriminator 1 view .LVU27
 146 0050 2E28     		cmp	r0, #46
 147 0052 4BD1     		bne	.L10
 148              	.LBB3:
 216:./Middlewares/LwIP/src/apps/http/http_client.c ****         size_t status_num_len;
 149              		.loc 1 216 9 is_stmt 1 view .LVU28
 217:./Middlewares/LwIP/src/apps/http/http_client.c ****         /* parse http version */
 150              		.loc 1 217 9 view .LVU29
 219:./Middlewares/LwIP/src/apps/http/http_client.c ****         version <<= 8;
 151              		.loc 1 219 9 view .LVU30
 219:./Middlewares/LwIP/src/apps/http/http_client.c ****         version <<= 8;
 152              		.loc 1 219 25 is_stmt 0 view .LVU31
 153 0054 0521     		movs	r1, #5
 154 0056 2846     		mov	r0, r5
 155 0058 FFF7FEFF 		bl	pbuf_get_at
 156              	.LVL13:
 157 005c 84B2     		uxth	r4, r0
ARM GAS  /var/folders/yz/w8msd8211qzc60m57tpkzbn80000gn/T//ccvgDrY8.s 			page 11


 219:./Middlewares/LwIP/src/apps/http/http_client.c ****         version <<= 8;
 158              		.loc 1 219 15 view .LVU32
 159 005e 303C     		subs	r4, r4, #48
 160 0060 A4B2     		uxth	r4, r4
 161              	.LVL14:
 220:./Middlewares/LwIP/src/apps/http/http_client.c ****         version |= pbuf_get_at(p, 7) - '0';
 162              		.loc 1 220 9 is_stmt 1 view .LVU33
 220:./Middlewares/LwIP/src/apps/http/http_client.c ****         version |= pbuf_get_at(p, 7) - '0';
 163              		.loc 1 220 17 is_stmt 0 view .LVU34
 164 0062 2402     		lsls	r4, r4, #8
 165              	.LVL15:
 220:./Middlewares/LwIP/src/apps/http/http_client.c ****         version |= pbuf_get_at(p, 7) - '0';
 166              		.loc 1 220 17 view .LVU35
 167 0064 A4B2     		uxth	r4, r4
 168              	.LVL16:
 221:./Middlewares/LwIP/src/apps/http/http_client.c ****         *http_version = version;
 169              		.loc 1 221 9 is_stmt 1 view .LVU36
 221:./Middlewares/LwIP/src/apps/http/http_client.c ****         *http_version = version;
 170              		.loc 1 221 20 is_stmt 0 view .LVU37
 171 0066 0721     		movs	r1, #7
 172 0068 2846     		mov	r0, r5
 173 006a FFF7FEFF 		bl	pbuf_get_at
 174              	.LVL17:
 221:./Middlewares/LwIP/src/apps/http/http_client.c ****         *http_version = version;
 175              		.loc 1 221 38 view .LVU38
 176 006e 3038     		subs	r0, r0, #48
 221:./Middlewares/LwIP/src/apps/http/http_client.c ****         *http_version = version;
 177              		.loc 1 221 17 view .LVU39
 178 0070 0443     		orrs	r4, r4, r0
 179              	.LVL18:
 222:./Middlewares/LwIP/src/apps/http/http_client.c **** 
 180              		.loc 1 222 9 is_stmt 1 view .LVU40
 222:./Middlewares/LwIP/src/apps/http/http_client.c **** 
 181              		.loc 1 222 23 is_stmt 0 view .LVU41
 182 0072 A8F80040 		strh	r4, [r8]	@ movhi
 225:./Middlewares/LwIP/src/apps/http/http_client.c ****         if (space2 != 0xFFFF) {
 183              		.loc 1 225 9 is_stmt 1 view .LVU42
 225:./Middlewares/LwIP/src/apps/http/http_client.c ****         if (space2 != 0xFFFF) {
 184              		.loc 1 225 18 is_stmt 0 view .LVU43
 185 0076 741C     		adds	r4, r6, #1
 186              	.LVL19:
 225:./Middlewares/LwIP/src/apps/http/http_client.c ****         if (space2 != 0xFFFF) {
 187              		.loc 1 225 18 view .LVU44
 188 0078 A4B2     		uxth	r4, r4
 189 007a 2346     		mov	r3, r4
 190 007c 0122     		movs	r2, #1
 191 007e 1E49     		ldr	r1, .L12+4
 192 0080 2846     		mov	r0, r5
 193 0082 FFF7FEFF 		bl	pbuf_memfind
 194              	.LVL20:
 226:./Middlewares/LwIP/src/apps/http/http_client.c ****           *http_status_str_offset = space2 + 1;
 195              		.loc 1 226 9 is_stmt 1 view .LVU45
 226:./Middlewares/LwIP/src/apps/http/http_client.c ****           *http_status_str_offset = space2 + 1;
 196              		.loc 1 226 12 is_stmt 0 view .LVU46
 197 0086 4FF6FF73 		movw	r3, #65535
 198 008a 9842     		cmp	r0, r3
 199 008c 1FD0     		beq	.L4
ARM GAS  /var/folders/yz/w8msd8211qzc60m57tpkzbn80000gn/T//ccvgDrY8.s 			page 12


 227:./Middlewares/LwIP/src/apps/http/http_client.c ****           status_num_len = space2 - space1 - 1;
 200              		.loc 1 227 11 is_stmt 1 view .LVU47
 227:./Middlewares/LwIP/src/apps/http/http_client.c ****           status_num_len = space2 - space1 - 1;
 201              		.loc 1 227 44 is_stmt 0 view .LVU48
 202 008e 431C     		adds	r3, r0, #1
 227:./Middlewares/LwIP/src/apps/http/http_client.c ****           status_num_len = space2 - space1 - 1;
 203              		.loc 1 227 35 view .LVU49
 204 0090 AAF80030 		strh	r3, [r10]	@ movhi
 228:./Middlewares/LwIP/src/apps/http/http_client.c ****         } else {
 205              		.loc 1 228 11 is_stmt 1 view .LVU50
 228:./Middlewares/LwIP/src/apps/http/http_client.c ****         } else {
 206              		.loc 1 228 35 is_stmt 0 view .LVU51
 207 0094 861B     		subs	r6, r0, r6
 228:./Middlewares/LwIP/src/apps/http/http_client.c ****         } else {
 208              		.loc 1 228 44 view .LVU52
 209 0096 013E     		subs	r6, r6, #1
 210              	.LVL21:
 211              	.L5:
 232:./Middlewares/LwIP/src/apps/http/http_client.c ****         if (pbuf_copy_partial(p, status_num, (u16_t)status_num_len, space1 + 1) == status_num_len) 
 212              		.loc 1 232 9 is_stmt 1 view .LVU53
 213 0098 0023     		movs	r3, #0
 214 009a 0193     		str	r3, [sp, #4]
 215 009c 0293     		str	r3, [sp, #8]
 216 009e ADF80C30 		strh	r3, [sp, #12]	@ movhi
 233:./Middlewares/LwIP/src/apps/http/http_client.c ****           int status = atoi(status_num);
 217              		.loc 1 233 9 view .LVU54
 233:./Middlewares/LwIP/src/apps/http/http_client.c ****           int status = atoi(status_num);
 218              		.loc 1 233 13 is_stmt 0 view .LVU55
 219 00a2 2346     		mov	r3, r4
 220 00a4 B2B2     		uxth	r2, r6
 221 00a6 01A9     		add	r1, sp, #4
 222 00a8 2846     		mov	r0, r5
 223              	.LVL22:
 233:./Middlewares/LwIP/src/apps/http/http_client.c ****           int status = atoi(status_num);
 224              		.loc 1 233 13 view .LVU56
 225 00aa FFF7FEFF 		bl	pbuf_copy_partial
 226              	.LVL23:
 233:./Middlewares/LwIP/src/apps/http/http_client.c ****           int status = atoi(status_num);
 227              		.loc 1 233 12 view .LVU57
 228 00ae B042     		cmp	r0, r6
 229 00b0 10D1     		bne	.L6
 230              	.LBB4:
 234:./Middlewares/LwIP/src/apps/http/http_client.c ****           if ((status > 0) && (status <= 0xFFFF)) {
 231              		.loc 1 234 11 is_stmt 1 view .LVU58
 234:./Middlewares/LwIP/src/apps/http/http_client.c ****           if ((status > 0) && (status <= 0xFFFF)) {
 232              		.loc 1 234 24 is_stmt 0 view .LVU59
 233 00b2 01A8     		add	r0, sp, #4
 234 00b4 FFF7FEFF 		bl	atoi
 235              	.LVL24:
 235:./Middlewares/LwIP/src/apps/http/http_client.c ****             *http_status = (u16_t)status;
 236              		.loc 1 235 11 is_stmt 1 view .LVU60
 235:./Middlewares/LwIP/src/apps/http/http_client.c ****             *http_status = (u16_t)status;
 237              		.loc 1 235 28 is_stmt 0 view .LVU61
 238 00b8 421E     		subs	r2, r0, #1
 235:./Middlewares/LwIP/src/apps/http/http_client.c ****             *http_status = (u16_t)status;
 239              		.loc 1 235 14 view .LVU62
 240 00ba 4FF6FE73 		movw	r3, #65534
ARM GAS  /var/folders/yz/w8msd8211qzc60m57tpkzbn80000gn/T//ccvgDrY8.s 			page 13


 241 00be 9A42     		cmp	r2, r3
 242 00c0 08D8     		bhi	.L6
 236:./Middlewares/LwIP/src/apps/http/http_client.c ****             return ERR_OK;
 243              		.loc 1 236 13 is_stmt 1 view .LVU63
 236:./Middlewares/LwIP/src/apps/http/http_client.c ****             return ERR_OK;
 244              		.loc 1 236 26 is_stmt 0 view .LVU64
 245 00c2 A9F80000 		strh	r0, [r9]	@ movhi
 237:./Middlewares/LwIP/src/apps/http/http_client.c ****           }
 246              		.loc 1 237 13 is_stmt 1 view .LVU65
 237:./Middlewares/LwIP/src/apps/http/http_client.c ****           }
 247              		.loc 1 237 20 is_stmt 0 view .LVU66
 248 00c6 0020     		movs	r0, #0
 249              	.LVL25:
 250              	.L3:
 237:./Middlewares/LwIP/src/apps/http/http_client.c ****           }
 251              		.loc 1 237 20 view .LVU67
 252              	.LBE4:
 253              	.LBE3:
 254              	.LBE2:
 244:./Middlewares/LwIP/src/apps/http/http_client.c **** 
 255              		.loc 1 244 1 view .LVU68
 256 00c8 04B0     		add	sp, sp, #16
 257              	.LCFI2:
 258              		.cfi_remember_state
 259              		.cfi_def_cfa_offset 32
 260              		@ sp needed
 261 00ca BDE8F087 		pop	{r4, r5, r6, r7, r8, r9, r10, pc}
 262              	.LVL26:
 263              	.L4:
 264              	.LCFI3:
 265              		.cfi_restore_state
 266              	.LBB7:
 267              	.LBB5:
 230:./Middlewares/LwIP/src/apps/http/http_client.c ****         }
 268              		.loc 1 230 11 is_stmt 1 view .LVU69
 230:./Middlewares/LwIP/src/apps/http/http_client.c ****         }
 269              		.loc 1 230 33 is_stmt 0 view .LVU70
 270 00ce BE1B     		subs	r6, r7, r6
 230:./Middlewares/LwIP/src/apps/http/http_client.c ****         }
 271              		.loc 1 230 42 view .LVU71
 272 00d0 013E     		subs	r6, r6, #1
 273              	.LVL27:
 230:./Middlewares/LwIP/src/apps/http/http_client.c ****         }
 274              		.loc 1 230 42 view .LVU72
 275 00d2 E1E7     		b	.L5
 276              	.LVL28:
 277              	.L6:
 230:./Middlewares/LwIP/src/apps/http/http_client.c ****         }
 278              		.loc 1 230 42 view .LVU73
 279              	.LBE5:
 280              	.LBE7:
 243:./Middlewares/LwIP/src/apps/http/http_client.c **** }
 281              		.loc 1 243 10 view .LVU74
 282 00d4 6FF00500 		mvn	r0, #5
 283              	.LBB8:
 284              	.LBB6:
 285 00d8 F6E7     		b	.L3
ARM GAS  /var/folders/yz/w8msd8211qzc60m57tpkzbn80000gn/T//ccvgDrY8.s 			page 14


 286              	.LVL29:
 287              	.L7:
 243:./Middlewares/LwIP/src/apps/http/http_client.c **** }
 288              		.loc 1 243 10 view .LVU75
 289              	.LBE6:
 290              	.LBE8:
 291 00da 6FF00500 		mvn	r0, #5
 292              	.LVL30:
 243:./Middlewares/LwIP/src/apps/http/http_client.c **** }
 293              		.loc 1 243 10 view .LVU76
 294 00de F3E7     		b	.L3
 295              	.LVL31:
 296              	.L8:
 243:./Middlewares/LwIP/src/apps/http/http_client.c **** }
 297              		.loc 1 243 10 view .LVU77
 298 00e0 6FF00500 		mvn	r0, #5
 299              	.LVL32:
 243:./Middlewares/LwIP/src/apps/http/http_client.c **** }
 300              		.loc 1 243 10 view .LVU78
 301 00e4 F0E7     		b	.L3
 302              	.L9:
 303 00e6 6FF00500 		mvn	r0, #5
 304 00ea EDE7     		b	.L3
 305              	.L10:
 306 00ec 6FF00500 		mvn	r0, #5
 307 00f0 EAE7     		b	.L3
 308              	.L13:
 309 00f2 00BF     		.align	2
 310              	.L12:
 311 00f4 00000000 		.word	.LC0
 312 00f8 04000000 		.word	.LC1
 313 00fc 08000000 		.word	.LC2
 314              		.cfi_endproc
 315              	.LFE27:
 317              		.section	.rodata.http_wait_headers.str1.4,"aMS",%progbits,1
 318              		.align	2
 319              	.LC3:
 320 0000 0D0A0D0A 		.ascii	"\015\012\015\012\000"
 320      00
 321 0005 000000   		.align	2
 322              	.LC4:
 323 0008 436F6E74 		.ascii	"Content-Length: \000"
 323      656E742D 
 323      4C656E67 
 323      74683A20 
 323      00
 324              		.section	.text.http_wait_headers,"ax",%progbits
 325              		.align	1
 326              		.syntax unified
 327              		.thumb
 328              		.thumb_func
 329              		.fpu fpv5-sp-d16
 331              	http_wait_headers:
 332              	.LVL33:
 333              	.LFB28:
 249:./Middlewares/LwIP/src/apps/http/http_client.c ****   u16_t end1 = pbuf_memfind(p, "\r\n\r\n", 4, 0);
 334              		.loc 1 249 1 is_stmt 1 view -0
ARM GAS  /var/folders/yz/w8msd8211qzc60m57tpkzbn80000gn/T//ccvgDrY8.s 			page 15


 335              		.cfi_startproc
 336              		@ args = 0, pretend = 0, frame = 16
 337              		@ frame_needed = 0, uses_anonymous_args = 0
 249:./Middlewares/LwIP/src/apps/http/http_client.c ****   u16_t end1 = pbuf_memfind(p, "\r\n\r\n", 4, 0);
 338              		.loc 1 249 1 is_stmt 0 view .LVU80
 339 0000 F0B5     		push	{r4, r5, r6, r7, lr}
 340              	.LCFI4:
 341              		.cfi_def_cfa_offset 20
 342              		.cfi_offset 4, -20
 343              		.cfi_offset 5, -16
 344              		.cfi_offset 6, -12
 345              		.cfi_offset 7, -8
 346              		.cfi_offset 14, -4
 347 0002 85B0     		sub	sp, sp, #20
 348              	.LCFI5:
 349              		.cfi_def_cfa_offset 40
 350 0004 0546     		mov	r5, r0
 351 0006 0E46     		mov	r6, r1
 352 0008 1446     		mov	r4, r2
 250:./Middlewares/LwIP/src/apps/http/http_client.c ****   if (end1 < (0xFFFF - 2)) {
 353              		.loc 1 250 3 is_stmt 1 view .LVU81
 250:./Middlewares/LwIP/src/apps/http/http_client.c ****   if (end1 < (0xFFFF - 2)) {
 354              		.loc 1 250 16 is_stmt 0 view .LVU82
 355 000a 0023     		movs	r3, #0
 356 000c 0422     		movs	r2, #4
 357              	.LVL34:
 250:./Middlewares/LwIP/src/apps/http/http_client.c ****   if (end1 < (0xFFFF - 2)) {
 358              		.loc 1 250 16 view .LVU83
 359 000e 2049     		ldr	r1, .L21
 360              	.LVL35:
 250:./Middlewares/LwIP/src/apps/http/http_client.c ****   if (end1 < (0xFFFF - 2)) {
 361              		.loc 1 250 16 view .LVU84
 362 0010 FFF7FEFF 		bl	pbuf_memfind
 363              	.LVL36:
 251:./Middlewares/LwIP/src/apps/http/http_client.c ****     /* all headers received */
 364              		.loc 1 251 3 is_stmt 1 view .LVU85
 251:./Middlewares/LwIP/src/apps/http/http_client.c ****     /* all headers received */
 365              		.loc 1 251 6 is_stmt 0 view .LVU86
 366 0014 4FF6FC73 		movw	r3, #65532
 367 0018 9842     		cmp	r0, r3
 368 001a 36D8     		bhi	.L18
 369              	.LBB9:
 254:./Middlewares/LwIP/src/apps/http/http_client.c ****     *content_length = HTTPC_CONTENT_LEN_INVALID;
 370              		.loc 1 254 5 is_stmt 1 view .LVU87
 255:./Middlewares/LwIP/src/apps/http/http_client.c ****     *total_header_len = end1 + 4;
 371              		.loc 1 255 5 view .LVU88
 255:./Middlewares/LwIP/src/apps/http/http_client.c ****     *total_header_len = end1 + 4;
 372              		.loc 1 255 21 is_stmt 0 view .LVU89
 373 001c 4FF0FF33 		mov	r3, #-1
 374 0020 3360     		str	r3, [r6]
 256:./Middlewares/LwIP/src/apps/http/http_client.c **** 
 375              		.loc 1 256 5 is_stmt 1 view .LVU90
 256:./Middlewares/LwIP/src/apps/http/http_client.c **** 
 376              		.loc 1 256 30 is_stmt 0 view .LVU91
 377 0022 0430     		adds	r0, r0, #4
 378              	.LVL37:
 256:./Middlewares/LwIP/src/apps/http/http_client.c **** 
ARM GAS  /var/folders/yz/w8msd8211qzc60m57tpkzbn80000gn/T//ccvgDrY8.s 			page 16


 379              		.loc 1 256 23 view .LVU92
 380 0024 2080     		strh	r0, [r4]	@ movhi
 258:./Middlewares/LwIP/src/apps/http/http_client.c ****     if (content_len_hdr != 0xFFFF) {
 381              		.loc 1 258 5 is_stmt 1 view .LVU93
 258:./Middlewares/LwIP/src/apps/http/http_client.c ****     if (content_len_hdr != 0xFFFF) {
 382              		.loc 1 258 23 is_stmt 0 view .LVU94
 383 0026 0023     		movs	r3, #0
 384 0028 1022     		movs	r2, #16
 385 002a 1A49     		ldr	r1, .L21+4
 386 002c 2846     		mov	r0, r5
 387 002e FFF7FEFF 		bl	pbuf_memfind
 388              	.LVL38:
 389 0032 0446     		mov	r4, r0
 390              	.LVL39:
 259:./Middlewares/LwIP/src/apps/http/http_client.c ****       u16_t content_len_line_end = pbuf_memfind(p, "\r\n", 2, content_len_hdr);
 391              		.loc 1 259 5 is_stmt 1 view .LVU95
 259:./Middlewares/LwIP/src/apps/http/http_client.c ****       u16_t content_len_line_end = pbuf_memfind(p, "\r\n", 2, content_len_hdr);
 392              		.loc 1 259 8 is_stmt 0 view .LVU96
 393 0034 4FF6FF73 		movw	r3, #65535
 394 0038 9842     		cmp	r0, r3
 395 003a 02D1     		bne	.L20
 396              	.LVL40:
 397              	.L16:
 273:./Middlewares/LwIP/src/apps/http/http_client.c ****   }
 398              		.loc 1 273 5 is_stmt 1 view .LVU97
 273:./Middlewares/LwIP/src/apps/http/http_client.c ****   }
 399              		.loc 1 273 12 is_stmt 0 view .LVU98
 400 003c 0020     		movs	r0, #0
 401              	.L15:
 273:./Middlewares/LwIP/src/apps/http/http_client.c ****   }
 402              		.loc 1 273 12 view .LVU99
 403              	.LBE9:
 276:./Middlewares/LwIP/src/apps/http/http_client.c **** 
 404              		.loc 1 276 1 view .LVU100
 405 003e 05B0     		add	sp, sp, #20
 406              	.LCFI6:
 407              		.cfi_remember_state
 408              		.cfi_def_cfa_offset 20
 409              		@ sp needed
 410 0040 F0BD     		pop	{r4, r5, r6, r7, pc}
 411              	.LVL41:
 412              	.L20:
 413              	.LCFI7:
 414              		.cfi_restore_state
 415              	.LBB13:
 416              	.LBB10:
 260:./Middlewares/LwIP/src/apps/http/http_client.c ****       if (content_len_line_end != 0xFFFF) {
 417              		.loc 1 260 7 is_stmt 1 view .LVU101
 260:./Middlewares/LwIP/src/apps/http/http_client.c ****       if (content_len_line_end != 0xFFFF) {
 418              		.loc 1 260 36 is_stmt 0 view .LVU102
 419 0042 0346     		mov	r3, r0
 420 0044 0222     		movs	r2, #2
 421 0046 1449     		ldr	r1, .L21+8
 422 0048 2846     		mov	r0, r5
 423              	.LVL42:
 260:./Middlewares/LwIP/src/apps/http/http_client.c ****       if (content_len_line_end != 0xFFFF) {
 424              		.loc 1 260 36 view .LVU103
ARM GAS  /var/folders/yz/w8msd8211qzc60m57tpkzbn80000gn/T//ccvgDrY8.s 			page 17


 425 004a FFF7FEFF 		bl	pbuf_memfind
 426              	.LVL43:
 261:./Middlewares/LwIP/src/apps/http/http_client.c ****         char content_len_num[16];
 427              		.loc 1 261 7 is_stmt 1 view .LVU104
 261:./Middlewares/LwIP/src/apps/http/http_client.c ****         char content_len_num[16];
 428              		.loc 1 261 10 is_stmt 0 view .LVU105
 429 004e 4FF6FF73 		movw	r3, #65535
 430 0052 9842     		cmp	r0, r3
 431 0054 F2D0     		beq	.L16
 432              	.LBB11:
 262:./Middlewares/LwIP/src/apps/http/http_client.c ****         u16_t content_len_num_len = (u16_t)(content_len_line_end - content_len_hdr - 16);
 433              		.loc 1 262 9 is_stmt 1 view .LVU106
 263:./Middlewares/LwIP/src/apps/http/http_client.c ****         memset(content_len_num, 0, sizeof(content_len_num));
 434              		.loc 1 263 9 view .LVU107
 263:./Middlewares/LwIP/src/apps/http/http_client.c ****         memset(content_len_num, 0, sizeof(content_len_num));
 435              		.loc 1 263 66 is_stmt 0 view .LVU108
 436 0056 071B     		subs	r7, r0, r4
 437 0058 BFB2     		uxth	r7, r7
 263:./Middlewares/LwIP/src/apps/http/http_client.c ****         memset(content_len_num, 0, sizeof(content_len_num));
 438              		.loc 1 263 15 view .LVU109
 439 005a 103F     		subs	r7, r7, #16
 440 005c BFB2     		uxth	r7, r7
 441              	.LVL44:
 264:./Middlewares/LwIP/src/apps/http/http_client.c ****         if (pbuf_copy_partial(p, content_len_num, content_len_num_len, content_len_hdr + 16) == con
 442              		.loc 1 264 9 is_stmt 1 view .LVU110
 443 005e 0023     		movs	r3, #0
 444 0060 0093     		str	r3, [sp]
 445 0062 0193     		str	r3, [sp, #4]
 446 0064 0293     		str	r3, [sp, #8]
 447 0066 0393     		str	r3, [sp, #12]
 265:./Middlewares/LwIP/src/apps/http/http_client.c ****           int len = atoi(content_len_num);
 448              		.loc 1 265 9 view .LVU111
 265:./Middlewares/LwIP/src/apps/http/http_client.c ****           int len = atoi(content_len_num);
 449              		.loc 1 265 13 is_stmt 0 view .LVU112
 450 0068 04F11003 		add	r3, r4, #16
 451 006c 9BB2     		uxth	r3, r3
 452 006e 3A46     		mov	r2, r7
 453 0070 6946     		mov	r1, sp
 454 0072 2846     		mov	r0, r5
 455              	.LVL45:
 265:./Middlewares/LwIP/src/apps/http/http_client.c ****           int len = atoi(content_len_num);
 456              		.loc 1 265 13 view .LVU113
 457 0074 FFF7FEFF 		bl	pbuf_copy_partial
 458              	.LVL46:
 265:./Middlewares/LwIP/src/apps/http/http_client.c ****           int len = atoi(content_len_num);
 459              		.loc 1 265 12 view .LVU114
 460 0078 B842     		cmp	r0, r7
 461 007a DFD1     		bne	.L16
 462              	.LBB12:
 266:./Middlewares/LwIP/src/apps/http/http_client.c ****           if ((len >= 0) && ((u32_t)len < HTTPC_CONTENT_LEN_INVALID)) {
 463              		.loc 1 266 11 is_stmt 1 view .LVU115
 266:./Middlewares/LwIP/src/apps/http/http_client.c ****           if ((len >= 0) && ((u32_t)len < HTTPC_CONTENT_LEN_INVALID)) {
 464              		.loc 1 266 21 is_stmt 0 view .LVU116
 465 007c 6846     		mov	r0, sp
 466 007e FFF7FEFF 		bl	atoi
 467              	.LVL47:
 267:./Middlewares/LwIP/src/apps/http/http_client.c ****             *content_length = (u32_t)len;
ARM GAS  /var/folders/yz/w8msd8211qzc60m57tpkzbn80000gn/T//ccvgDrY8.s 			page 18


 468              		.loc 1 267 11 is_stmt 1 view .LVU117
 267:./Middlewares/LwIP/src/apps/http/http_client.c ****             *content_length = (u32_t)len;
 469              		.loc 1 267 14 is_stmt 0 view .LVU118
 470 0082 0028     		cmp	r0, #0
 267:./Middlewares/LwIP/src/apps/http/http_client.c ****             *content_length = (u32_t)len;
 471              		.loc 1 267 14 view .LVU119
 472 0084 DADB     		blt	.L16
 268:./Middlewares/LwIP/src/apps/http/http_client.c ****           }
 473              		.loc 1 268 13 is_stmt 1 view .LVU120
 268:./Middlewares/LwIP/src/apps/http/http_client.c ****           }
 474              		.loc 1 268 29 is_stmt 0 view .LVU121
 475 0086 3060     		str	r0, [r6]
 476 0088 D8E7     		b	.L16
 477              	.LVL48:
 478              	.L18:
 268:./Middlewares/LwIP/src/apps/http/http_client.c ****           }
 479              		.loc 1 268 29 view .LVU122
 480              	.LBE12:
 481              	.LBE11:
 482              	.LBE10:
 483              	.LBE13:
 275:./Middlewares/LwIP/src/apps/http/http_client.c **** }
 484              		.loc 1 275 10 view .LVU123
 485 008a 6FF00500 		mvn	r0, #5
 486              	.LVL49:
 275:./Middlewares/LwIP/src/apps/http/http_client.c **** }
 487              		.loc 1 275 10 view .LVU124
 488 008e D6E7     		b	.L15
 489              	.L22:
 490              		.align	2
 491              	.L21:
 492 0090 00000000 		.word	.LC3
 493 0094 08000000 		.word	.LC4
 494 0098 00000000 		.word	.LC0
 495              		.cfi_endproc
 496              	.LFE28:
 498              		.section	.rodata.httpc_create_request_string.str1.4,"aMS",%progbits,1
 499              		.align	2
 500              	.LC5:
 501 0000 2E2F4D69 		.ascii	"./Middlewares/LwIP/src/apps/http/http_client.c\000"
 501      64646C65 
 501      77617265 
 501      732F4C77 
 501      49502F73 
 502 002f 00       		.align	2
 503              	.LC6:
 504 0030 73657276 		.ascii	"server_name != NULL\000"
 504      65725F6E 
 504      616D6520 
 504      213D204E 
 504      554C4C00 
 505              		.align	2
 506              	.LC7:
 507 0044 41737365 		.ascii	"Assertion \"%s\" failed at line %d in %s\012\000"
 507      7274696F 
 507      6E202225 
 507      73222066 
ARM GAS  /var/folders/yz/w8msd8211qzc60m57tpkzbn80000gn/T//ccvgDrY8.s 			page 19


 507      61696C65 
 508              		.align	2
 509              	.LC8:
 510 006c 47455420 		.ascii	"GET http://%s:%d%s HTTP/1.1\015\012User-Agent: %s\015"
 510      68747470 
 510      3A2F2F25 
 510      733A2564 
 510      25732048 
 511 0098 0A416363 		.ascii	"\012Accept: */*\015\012Host: %s\015\012Connection: "
 511      6570743A 
 511      202A2F2A 
 511      0D0A486F 
 511      73743A20 
 512 00bc 436C6F73 		.ascii	"Close\015\012\015\012\000"
 512      650D0A0D 
 512      0A00
 513 00c6 0000     		.align	2
 514              	.LC9:
 515 00c8 6C774950 		.ascii	"lwIP/2.1.2 (http://savannah.nongnu.org/projects/lwi"
 515      2F322E31 
 515      2E322028 
 515      68747470 
 515      3A2F2F73 
 516 00fb 702900   		.ascii	"p)\000"
 517 00fe 0000     		.align	2
 518              	.LC10:
 519 0100 47455420 		.ascii	"GET http://%s%s HTTP/1.1\015\012User-Agent: %s\015\012"
 519      68747470 
 519      3A2F2F25 
 519      73257320 
 519      48545450 
 520 012a 41636365 		.ascii	"Accept: */*\015\012Host: %s\015\012Connection: Clos"
 520      70743A20 
 520      2A2F2A0D 
 520      0A486F73 
 520      743A2025 
 521 0151 650D0A0D 		.ascii	"e\015\012\015\012\000"
 521      0A00
 522 0157 00       		.align	2
 523              	.LC11:
 524 0158 47455420 		.ascii	"GET %s HTTP/1.1\015\012User-Agent: %s\015\012Accept"
 524      25732048 
 524      5454502F 
 524      312E310D 
 524      0A557365 
 525 017f 3A202A2F 		.ascii	": */*\015\012Host: %s\015\012Connection: Close\015\012"
 525      2A0D0A48 
 525      6F73743A 
 525      2025730D 
 525      0A436F6E 
 526 01a3 0D0A00   		.ascii	"\015\012\000"
 527 01a6 0000     		.align	2
 528              	.LC12:
 529 01a8 47455420 		.ascii	"GET %s HTTP/1.1\015\012User-Agent: %s\015\012Accept"
 529      25732048 
 529      5454502F 
 529      312E310D 
ARM GAS  /var/folders/yz/w8msd8211qzc60m57tpkzbn80000gn/T//ccvgDrY8.s 			page 20


 529      0A557365 
 530 01cf 3A202A2F 		.ascii	": */*\015\012Connection: Close\015\012\015\012\000"
 530      2A0D0A43 
 530      6F6E6E65 
 530      6374696F 
 530      6E3A2043 
 531              		.section	.text.httpc_create_request_string,"ax",%progbits
 532              		.align	1
 533              		.syntax unified
 534              		.thumb
 535              		.thumb_func
 536              		.fpu fpv5-sp-d16
 538              	httpc_create_request_string:
 539              	.LVL50:
 540              	.LFB36:
 391:./Middlewares/LwIP/src/apps/http/http_client.c **** 
 392:./Middlewares/LwIP/src/apps/http/http_client.c **** /** http client tcp connected callback */
 393:./Middlewares/LwIP/src/apps/http/http_client.c **** static err_t
 394:./Middlewares/LwIP/src/apps/http/http_client.c **** httpc_tcp_connected(void *arg, struct altcp_pcb *pcb, err_t err)
 395:./Middlewares/LwIP/src/apps/http/http_client.c **** {
 396:./Middlewares/LwIP/src/apps/http/http_client.c ****   err_t r;
 397:./Middlewares/LwIP/src/apps/http/http_client.c ****   httpc_state_t* req = (httpc_state_t*)arg;
 398:./Middlewares/LwIP/src/apps/http/http_client.c ****   LWIP_UNUSED_ARG(pcb);
 399:./Middlewares/LwIP/src/apps/http/http_client.c ****   LWIP_UNUSED_ARG(err);
 400:./Middlewares/LwIP/src/apps/http/http_client.c **** 
 401:./Middlewares/LwIP/src/apps/http/http_client.c ****   /* send request; last char is zero termination */
 402:./Middlewares/LwIP/src/apps/http/http_client.c ****   r = altcp_write(req->pcb, req->request->payload, req->request->len - 1, TCP_WRITE_FLAG_COPY);
 403:./Middlewares/LwIP/src/apps/http/http_client.c ****   if (r != ERR_OK) {
 404:./Middlewares/LwIP/src/apps/http/http_client.c ****      /* could not write the single small request -> fail, don't retry */
 405:./Middlewares/LwIP/src/apps/http/http_client.c ****      return httpc_close(req, HTTPC_RESULT_ERR_MEM, 0, r);
 406:./Middlewares/LwIP/src/apps/http/http_client.c ****   }
 407:./Middlewares/LwIP/src/apps/http/http_client.c ****   /* everything written, we can free the request */
 408:./Middlewares/LwIP/src/apps/http/http_client.c ****   pbuf_free(req->request);
 409:./Middlewares/LwIP/src/apps/http/http_client.c ****   req->request = NULL;
 410:./Middlewares/LwIP/src/apps/http/http_client.c **** 
 411:./Middlewares/LwIP/src/apps/http/http_client.c ****   altcp_output(req->pcb);
 412:./Middlewares/LwIP/src/apps/http/http_client.c ****   return ERR_OK;
 413:./Middlewares/LwIP/src/apps/http/http_client.c **** }
 414:./Middlewares/LwIP/src/apps/http/http_client.c **** 
 415:./Middlewares/LwIP/src/apps/http/http_client.c **** /** Start the http request when the server IP addr is known */
 416:./Middlewares/LwIP/src/apps/http/http_client.c **** static err_t
 417:./Middlewares/LwIP/src/apps/http/http_client.c **** httpc_get_internal_addr(httpc_state_t* req, const ip_addr_t *ipaddr)
 418:./Middlewares/LwIP/src/apps/http/http_client.c **** {
 419:./Middlewares/LwIP/src/apps/http/http_client.c ****   err_t err;
 420:./Middlewares/LwIP/src/apps/http/http_client.c ****   LWIP_ASSERT("req != NULL", req != NULL);
 421:./Middlewares/LwIP/src/apps/http/http_client.c **** 
 422:./Middlewares/LwIP/src/apps/http/http_client.c ****   if (&req->remote_addr != ipaddr) {
 423:./Middlewares/LwIP/src/apps/http/http_client.c ****     /* fill in remote addr if called externally */
 424:./Middlewares/LwIP/src/apps/http/http_client.c ****     req->remote_addr = *ipaddr;
 425:./Middlewares/LwIP/src/apps/http/http_client.c ****   }
 426:./Middlewares/LwIP/src/apps/http/http_client.c **** 
 427:./Middlewares/LwIP/src/apps/http/http_client.c ****   err = altcp_connect(req->pcb, &req->remote_addr, req->remote_port, httpc_tcp_connected);
 428:./Middlewares/LwIP/src/apps/http/http_client.c ****   if (err == ERR_OK) {
 429:./Middlewares/LwIP/src/apps/http/http_client.c ****     return ERR_OK;
 430:./Middlewares/LwIP/src/apps/http/http_client.c ****   }
 431:./Middlewares/LwIP/src/apps/http/http_client.c ****   LWIP_DEBUGF(HTTPC_DEBUG_WARN_STATE, ("tcp_connect failed: %d\n", (int)err));
 432:./Middlewares/LwIP/src/apps/http/http_client.c ****   return err;
ARM GAS  /var/folders/yz/w8msd8211qzc60m57tpkzbn80000gn/T//ccvgDrY8.s 			page 21


 433:./Middlewares/LwIP/src/apps/http/http_client.c **** }
 434:./Middlewares/LwIP/src/apps/http/http_client.c **** 
 435:./Middlewares/LwIP/src/apps/http/http_client.c **** #if LWIP_DNS
 436:./Middlewares/LwIP/src/apps/http/http_client.c **** /** DNS callback
 437:./Middlewares/LwIP/src/apps/http/http_client.c ****  * If ipaddr is non-NULL, resolving succeeded and the request can be sent, otherwise it failed.
 438:./Middlewares/LwIP/src/apps/http/http_client.c ****  */
 439:./Middlewares/LwIP/src/apps/http/http_client.c **** static void
 440:./Middlewares/LwIP/src/apps/http/http_client.c **** httpc_dns_found(const char* hostname, const ip_addr_t *ipaddr, void *arg)
 441:./Middlewares/LwIP/src/apps/http/http_client.c **** {
 442:./Middlewares/LwIP/src/apps/http/http_client.c ****   httpc_state_t* req = (httpc_state_t*)arg;
 443:./Middlewares/LwIP/src/apps/http/http_client.c ****   err_t err;
 444:./Middlewares/LwIP/src/apps/http/http_client.c ****   httpc_result_t result;
 445:./Middlewares/LwIP/src/apps/http/http_client.c **** 
 446:./Middlewares/LwIP/src/apps/http/http_client.c ****   LWIP_UNUSED_ARG(hostname);
 447:./Middlewares/LwIP/src/apps/http/http_client.c **** 
 448:./Middlewares/LwIP/src/apps/http/http_client.c ****   if (ipaddr != NULL) {
 449:./Middlewares/LwIP/src/apps/http/http_client.c ****     err = httpc_get_internal_addr(req, ipaddr);
 450:./Middlewares/LwIP/src/apps/http/http_client.c ****     if (err == ERR_OK) {
 451:./Middlewares/LwIP/src/apps/http/http_client.c ****       return;
 452:./Middlewares/LwIP/src/apps/http/http_client.c ****     }
 453:./Middlewares/LwIP/src/apps/http/http_client.c ****     result = HTTPC_RESULT_ERR_CONNECT;
 454:./Middlewares/LwIP/src/apps/http/http_client.c ****   } else {
 455:./Middlewares/LwIP/src/apps/http/http_client.c ****     LWIP_DEBUGF(HTTPC_DEBUG_WARN_STATE, ("httpc_dns_found: failed to resolve hostname: %s\n",
 456:./Middlewares/LwIP/src/apps/http/http_client.c ****       hostname));
 457:./Middlewares/LwIP/src/apps/http/http_client.c ****     result = HTTPC_RESULT_ERR_HOSTNAME;
 458:./Middlewares/LwIP/src/apps/http/http_client.c ****     err = ERR_ARG;
 459:./Middlewares/LwIP/src/apps/http/http_client.c ****   }
 460:./Middlewares/LwIP/src/apps/http/http_client.c ****   httpc_close(req, result, 0, err);
 461:./Middlewares/LwIP/src/apps/http/http_client.c **** }
 462:./Middlewares/LwIP/src/apps/http/http_client.c **** #endif /* LWIP_DNS */
 463:./Middlewares/LwIP/src/apps/http/http_client.c **** 
 464:./Middlewares/LwIP/src/apps/http/http_client.c **** /** Start the http request after converting 'server_name' to ip address (DNS or address string) */
 465:./Middlewares/LwIP/src/apps/http/http_client.c **** static err_t
 466:./Middlewares/LwIP/src/apps/http/http_client.c **** httpc_get_internal_dns(httpc_state_t* req, const char* server_name)
 467:./Middlewares/LwIP/src/apps/http/http_client.c **** {
 468:./Middlewares/LwIP/src/apps/http/http_client.c ****   err_t err;
 469:./Middlewares/LwIP/src/apps/http/http_client.c ****   LWIP_ASSERT("req != NULL", req != NULL);
 470:./Middlewares/LwIP/src/apps/http/http_client.c **** 
 471:./Middlewares/LwIP/src/apps/http/http_client.c **** #if LWIP_DNS
 472:./Middlewares/LwIP/src/apps/http/http_client.c ****   err = dns_gethostbyname(server_name, &req->remote_addr, httpc_dns_found, req);
 473:./Middlewares/LwIP/src/apps/http/http_client.c **** #else
 474:./Middlewares/LwIP/src/apps/http/http_client.c ****   err = ipaddr_aton(server_name, &req->remote_addr) ? ERR_OK : ERR_ARG;
 475:./Middlewares/LwIP/src/apps/http/http_client.c **** #endif
 476:./Middlewares/LwIP/src/apps/http/http_client.c **** 
 477:./Middlewares/LwIP/src/apps/http/http_client.c ****   if (err == ERR_OK) {
 478:./Middlewares/LwIP/src/apps/http/http_client.c ****     /* cached or IP-string */
 479:./Middlewares/LwIP/src/apps/http/http_client.c ****     err = httpc_get_internal_addr(req, &req->remote_addr);
 480:./Middlewares/LwIP/src/apps/http/http_client.c ****   } else if (err == ERR_INPROGRESS) {
 481:./Middlewares/LwIP/src/apps/http/http_client.c ****     return ERR_OK;
 482:./Middlewares/LwIP/src/apps/http/http_client.c ****   }
 483:./Middlewares/LwIP/src/apps/http/http_client.c ****   return err;
 484:./Middlewares/LwIP/src/apps/http/http_client.c **** }
 485:./Middlewares/LwIP/src/apps/http/http_client.c **** 
 486:./Middlewares/LwIP/src/apps/http/http_client.c **** static int
 487:./Middlewares/LwIP/src/apps/http/http_client.c **** httpc_create_request_string(const httpc_connection_t *settings, const char* server_name, int server
 488:./Middlewares/LwIP/src/apps/http/http_client.c ****                             int use_host, char *buffer, size_t buffer_size)
 489:./Middlewares/LwIP/src/apps/http/http_client.c **** {
ARM GAS  /var/folders/yz/w8msd8211qzc60m57tpkzbn80000gn/T//ccvgDrY8.s 			page 22


 541              		.loc 1 489 1 is_stmt 1 view -0
 542              		.cfi_startproc
 543              		@ args = 12, pretend = 0, frame = 0
 544              		@ frame_needed = 0, uses_anonymous_args = 0
 545              		.loc 1 489 1 is_stmt 0 view .LVU126
 546 0000 70B5     		push	{r4, r5, r6, lr}
 547              	.LCFI8:
 548              		.cfi_def_cfa_offset 16
 549              		.cfi_offset 4, -16
 550              		.cfi_offset 5, -12
 551              		.cfi_offset 6, -8
 552              		.cfi_offset 14, -4
 553 0002 84B0     		sub	sp, sp, #16
 554              	.LCFI9:
 555              		.cfi_def_cfa_offset 32
 556 0004 0C46     		mov	r4, r1
 557 0006 1D46     		mov	r5, r3
 490:./Middlewares/LwIP/src/apps/http/http_client.c ****   if (settings->use_proxy) {
 558              		.loc 1 490 3 is_stmt 1 view .LVU127
 559              		.loc 1 490 15 is_stmt 0 view .LVU128
 560 0008 8379     		ldrb	r3, [r0, #6]	@ zero_extendqisi2
 561              	.LVL51:
 562              		.loc 1 490 6 view .LVU129
 563 000a 13B3     		cbz	r3, .L24
 564 000c 1646     		mov	r6, r2
 491:./Middlewares/LwIP/src/apps/http/http_client.c ****     LWIP_ASSERT("server_name != NULL", server_name != NULL);
 565              		.loc 1 491 5 is_stmt 1 view .LVU130
 566              		.loc 1 491 5 view .LVU131
 567 000e 69B1     		cbz	r1, .L31
 568              	.LVL52:
 569              	.L25:
 570              		.loc 1 491 5 discriminator 3 view .LVU132
 571              		.loc 1 491 5 discriminator 3 view .LVU133
 492:./Middlewares/LwIP/src/apps/http/http_client.c ****     if (server_port != HTTP_DEFAULT_PORT) {
 572              		.loc 1 492 5 discriminator 3 view .LVU134
 573              		.loc 1 492 8 is_stmt 0 discriminator 3 view .LVU135
 574 0010 502E     		cmp	r6, #80
 575 0012 13D0     		beq	.L26
 493:./Middlewares/LwIP/src/apps/http/http_client.c ****       return snprintf(buffer, buffer_size, HTTPC_REQ_11_PROXY_PORT_FORMAT(server_name, server_port,
 576              		.loc 1 493 7 is_stmt 1 view .LVU136
 577              		.loc 1 493 14 is_stmt 0 view .LVU137
 578 0014 0394     		str	r4, [sp, #12]
 579 0016 1E4B     		ldr	r3, .L33
 580 0018 0293     		str	r3, [sp, #8]
 581 001a 0195     		str	r5, [sp, #4]
 582 001c 0096     		str	r6, [sp]
 583 001e 2346     		mov	r3, r4
 584 0020 1C4A     		ldr	r2, .L33+4
 585 0022 0A99     		ldr	r1, [sp, #40]
 586 0024 0998     		ldr	r0, [sp, #36]
 587 0026 FFF7FEFF 		bl	snprintf
 588              	.LVL53:
 589 002a 1EE0     		b	.L23
 590              	.LVL54:
 591              	.L31:
 491:./Middlewares/LwIP/src/apps/http/http_client.c ****     LWIP_ASSERT("server_name != NULL", server_name != NULL);
 592              		.loc 1 491 5 is_stmt 1 discriminator 1 view .LVU138
ARM GAS  /var/folders/yz/w8msd8211qzc60m57tpkzbn80000gn/T//ccvgDrY8.s 			page 23


 491:./Middlewares/LwIP/src/apps/http/http_client.c ****     LWIP_ASSERT("server_name != NULL", server_name != NULL);
 593              		.loc 1 491 5 discriminator 1 view .LVU139
 594 002c 1A4B     		ldr	r3, .L33+8
 595 002e 40F2EB12 		movw	r2, #491
 596              	.LVL55:
 491:./Middlewares/LwIP/src/apps/http/http_client.c ****     LWIP_ASSERT("server_name != NULL", server_name != NULL);
 597              		.loc 1 491 5 is_stmt 0 discriminator 1 view .LVU140
 598 0032 1A49     		ldr	r1, .L33+12
 599              	.LVL56:
 491:./Middlewares/LwIP/src/apps/http/http_client.c ****     LWIP_ASSERT("server_name != NULL", server_name != NULL);
 600              		.loc 1 491 5 discriminator 1 view .LVU141
 601 0034 1A48     		ldr	r0, .L33+16
 602              	.LVL57:
 491:./Middlewares/LwIP/src/apps/http/http_client.c ****     LWIP_ASSERT("server_name != NULL", server_name != NULL);
 603              		.loc 1 491 5 discriminator 1 view .LVU142
 604 0036 FFF7FEFF 		bl	printf
 605              	.LVL58:
 606 003a E9E7     		b	.L25
 607              	.L26:
 494:./Middlewares/LwIP/src/apps/http/http_client.c ****     } else {
 495:./Middlewares/LwIP/src/apps/http/http_client.c ****       return snprintf(buffer, buffer_size, HTTPC_REQ_11_PROXY_FORMAT(server_name, uri, server_name)
 608              		.loc 1 495 7 is_stmt 1 view .LVU143
 609              		.loc 1 495 14 is_stmt 0 view .LVU144
 610 003c 0294     		str	r4, [sp, #8]
 611 003e 144B     		ldr	r3, .L33
 612 0040 0193     		str	r3, [sp, #4]
 613 0042 0095     		str	r5, [sp]
 614 0044 2346     		mov	r3, r4
 615 0046 174A     		ldr	r2, .L33+20
 616 0048 0A99     		ldr	r1, [sp, #40]
 617 004a 0998     		ldr	r0, [sp, #36]
 618 004c FFF7FEFF 		bl	snprintf
 619              	.LVL59:
 620 0050 0BE0     		b	.L23
 621              	.LVL60:
 622              	.L24:
 496:./Middlewares/LwIP/src/apps/http/http_client.c ****     }
 497:./Middlewares/LwIP/src/apps/http/http_client.c ****   } else if (use_host) {
 623              		.loc 1 497 10 is_stmt 1 view .LVU145
 624              		.loc 1 497 13 is_stmt 0 view .LVU146
 625 0052 089B     		ldr	r3, [sp, #32]
 626 0054 9BB1     		cbz	r3, .L28
 498:./Middlewares/LwIP/src/apps/http/http_client.c ****     LWIP_ASSERT("server_name != NULL", server_name != NULL);
 627              		.loc 1 498 5 is_stmt 1 view .LVU147
 628              		.loc 1 498 5 view .LVU148
 629 0056 51B1     		cbz	r1, .L32
 630              	.LVL61:
 631              	.L29:
 632              		.loc 1 498 5 discriminator 3 view .LVU149
 633              		.loc 1 498 5 discriminator 3 view .LVU150
 499:./Middlewares/LwIP/src/apps/http/http_client.c ****     return snprintf(buffer, buffer_size, HTTPC_REQ_11_HOST_FORMAT(uri, server_name));
 634              		.loc 1 499 5 discriminator 3 view .LVU151
 635              		.loc 1 499 12 is_stmt 0 discriminator 3 view .LVU152
 636 0058 0194     		str	r4, [sp, #4]
 637 005a 0D4B     		ldr	r3, .L33
 638 005c 0093     		str	r3, [sp]
 639 005e 2B46     		mov	r3, r5
ARM GAS  /var/folders/yz/w8msd8211qzc60m57tpkzbn80000gn/T//ccvgDrY8.s 			page 24


 640 0060 114A     		ldr	r2, .L33+24
 641 0062 0A99     		ldr	r1, [sp, #40]
 642 0064 0998     		ldr	r0, [sp, #36]
 643 0066 FFF7FEFF 		bl	snprintf
 644              	.LVL62:
 645              	.L23:
 500:./Middlewares/LwIP/src/apps/http/http_client.c ****   } else {
 501:./Middlewares/LwIP/src/apps/http/http_client.c ****     return snprintf(buffer, buffer_size, HTTPC_REQ_11_FORMAT(uri));
 502:./Middlewares/LwIP/src/apps/http/http_client.c ****   }
 503:./Middlewares/LwIP/src/apps/http/http_client.c **** }
 646              		.loc 1 503 1 view .LVU153
 647 006a 04B0     		add	sp, sp, #16
 648              	.LCFI10:
 649              		.cfi_remember_state
 650              		.cfi_def_cfa_offset 16
 651              		@ sp needed
 652 006c 70BD     		pop	{r4, r5, r6, pc}
 653              	.LVL63:
 654              	.L32:
 655              	.LCFI11:
 656              		.cfi_restore_state
 498:./Middlewares/LwIP/src/apps/http/http_client.c ****     return snprintf(buffer, buffer_size, HTTPC_REQ_11_HOST_FORMAT(uri, server_name));
 657              		.loc 1 498 5 is_stmt 1 discriminator 1 view .LVU154
 498:./Middlewares/LwIP/src/apps/http/http_client.c ****     return snprintf(buffer, buffer_size, HTTPC_REQ_11_HOST_FORMAT(uri, server_name));
 658              		.loc 1 498 5 discriminator 1 view .LVU155
 659 006e 0A4B     		ldr	r3, .L33+8
 660 0070 4FF4F972 		mov	r2, #498
 661              	.LVL64:
 498:./Middlewares/LwIP/src/apps/http/http_client.c ****     return snprintf(buffer, buffer_size, HTTPC_REQ_11_HOST_FORMAT(uri, server_name));
 662              		.loc 1 498 5 is_stmt 0 discriminator 1 view .LVU156
 663 0074 0949     		ldr	r1, .L33+12
 664              	.LVL65:
 498:./Middlewares/LwIP/src/apps/http/http_client.c ****     return snprintf(buffer, buffer_size, HTTPC_REQ_11_HOST_FORMAT(uri, server_name));
 665              		.loc 1 498 5 discriminator 1 view .LVU157
 666 0076 0A48     		ldr	r0, .L33+16
 667              	.LVL66:
 498:./Middlewares/LwIP/src/apps/http/http_client.c ****     return snprintf(buffer, buffer_size, HTTPC_REQ_11_HOST_FORMAT(uri, server_name));
 668              		.loc 1 498 5 discriminator 1 view .LVU158
 669 0078 FFF7FEFF 		bl	printf
 670              	.LVL67:
 671 007c ECE7     		b	.L29
 672              	.LVL68:
 673              	.L28:
 501:./Middlewares/LwIP/src/apps/http/http_client.c ****   }
 674              		.loc 1 501 5 is_stmt 1 view .LVU159
 501:./Middlewares/LwIP/src/apps/http/http_client.c ****   }
 675              		.loc 1 501 12 is_stmt 0 view .LVU160
 676 007e 044B     		ldr	r3, .L33
 677 0080 0093     		str	r3, [sp]
 678 0082 2B46     		mov	r3, r5
 679 0084 094A     		ldr	r2, .L33+28
 680              	.LVL69:
 501:./Middlewares/LwIP/src/apps/http/http_client.c ****   }
 681              		.loc 1 501 12 view .LVU161
 682 0086 0A99     		ldr	r1, [sp, #40]
 683              	.LVL70:
 501:./Middlewares/LwIP/src/apps/http/http_client.c ****   }
ARM GAS  /var/folders/yz/w8msd8211qzc60m57tpkzbn80000gn/T//ccvgDrY8.s 			page 25


 684              		.loc 1 501 12 view .LVU162
 685 0088 0998     		ldr	r0, [sp, #36]
 686              	.LVL71:
 501:./Middlewares/LwIP/src/apps/http/http_client.c ****   }
 687              		.loc 1 501 12 view .LVU163
 688 008a FFF7FEFF 		bl	snprintf
 689              	.LVL72:
 690 008e ECE7     		b	.L23
 691              	.L34:
 692              		.align	2
 693              	.L33:
 694 0090 C8000000 		.word	.LC9
 695 0094 6C000000 		.word	.LC8
 696 0098 00000000 		.word	.LC5
 697 009c 30000000 		.word	.LC6
 698 00a0 44000000 		.word	.LC7
 699 00a4 00010000 		.word	.LC10
 700 00a8 58010000 		.word	.LC11
 701 00ac A8010000 		.word	.LC12
 702              		.cfi_endproc
 703              	.LFE36:
 705              		.section	.rodata.httpc_get_internal_addr.str1.4,"aMS",%progbits,1
 706              		.align	2
 707              	.LC13:
 708 0000 72657120 		.ascii	"req != NULL\000"
 708      213D204E 
 708      554C4C00 
 709              		.section	.text.httpc_get_internal_addr,"ax",%progbits
 710              		.align	1
 711              		.syntax unified
 712              		.thumb
 713              		.thumb_func
 714              		.fpu fpv5-sp-d16
 716              	httpc_get_internal_addr:
 717              	.LVL73:
 718              	.LFB34:
 418:./Middlewares/LwIP/src/apps/http/http_client.c ****   err_t err;
 719              		.loc 1 418 1 is_stmt 1 view -0
 720              		.cfi_startproc
 721              		@ args = 0, pretend = 0, frame = 0
 722              		@ frame_needed = 0, uses_anonymous_args = 0
 418:./Middlewares/LwIP/src/apps/http/http_client.c ****   err_t err;
 723              		.loc 1 418 1 is_stmt 0 view .LVU165
 724 0000 38B5     		push	{r3, r4, r5, lr}
 725              	.LCFI12:
 726              		.cfi_def_cfa_offset 16
 727              		.cfi_offset 3, -16
 728              		.cfi_offset 4, -12
 729              		.cfi_offset 5, -8
 730              		.cfi_offset 14, -4
 731 0002 0D46     		mov	r5, r1
 419:./Middlewares/LwIP/src/apps/http/http_client.c ****   LWIP_ASSERT("req != NULL", req != NULL);
 732              		.loc 1 419 3 is_stmt 1 view .LVU166
 420:./Middlewares/LwIP/src/apps/http/http_client.c **** 
 733              		.loc 1 420 3 view .LVU167
 420:./Middlewares/LwIP/src/apps/http/http_client.c **** 
 734              		.loc 1 420 3 view .LVU168
ARM GAS  /var/folders/yz/w8msd8211qzc60m57tpkzbn80000gn/T//ccvgDrY8.s 			page 26


 735 0004 0446     		mov	r4, r0
 736 0006 50B1     		cbz	r0, .L39
 737              	.LVL74:
 738              	.L36:
 420:./Middlewares/LwIP/src/apps/http/http_client.c **** 
 739              		.loc 1 420 3 discriminator 3 view .LVU169
 420:./Middlewares/LwIP/src/apps/http/http_client.c **** 
 740              		.loc 1 420 3 discriminator 3 view .LVU170
 422:./Middlewares/LwIP/src/apps/http/http_client.c ****     /* fill in remote addr if called externally */
 741              		.loc 1 422 3 discriminator 3 view .LVU171
 422:./Middlewares/LwIP/src/apps/http/http_client.c ****     /* fill in remote addr if called externally */
 742              		.loc 1 422 7 is_stmt 0 discriminator 3 view .LVU172
 743 0008 211D     		adds	r1, r4, #4
 422:./Middlewares/LwIP/src/apps/http/http_client.c ****     /* fill in remote addr if called externally */
 744              		.loc 1 422 6 discriminator 3 view .LVU173
 745 000a A942     		cmp	r1, r5
 746 000c 01D0     		beq	.L37
 424:./Middlewares/LwIP/src/apps/http/http_client.c ****   }
 747              		.loc 1 424 5 is_stmt 1 view .LVU174
 424:./Middlewares/LwIP/src/apps/http/http_client.c ****   }
 748              		.loc 1 424 22 is_stmt 0 view .LVU175
 749 000e 2B68     		ldr	r3, [r5]
 750 0010 6360     		str	r3, [r4, #4]
 751              	.L37:
 427:./Middlewares/LwIP/src/apps/http/http_client.c ****   if (err == ERR_OK) {
 752              		.loc 1 427 3 is_stmt 1 view .LVU176
 427:./Middlewares/LwIP/src/apps/http/http_client.c ****   if (err == ERR_OK) {
 753              		.loc 1 427 9 is_stmt 0 view .LVU177
 754 0012 074B     		ldr	r3, .L40
 755 0014 2289     		ldrh	r2, [r4, #8]
 756 0016 2068     		ldr	r0, [r4]
 757 0018 FFF7FEFF 		bl	tcp_connect
 758              	.LVL75:
 428:./Middlewares/LwIP/src/apps/http/http_client.c ****     return ERR_OK;
 759              		.loc 1 428 3 is_stmt 1 view .LVU178
 433:./Middlewares/LwIP/src/apps/http/http_client.c **** 
 760              		.loc 1 433 1 is_stmt 0 view .LVU179
 761 001c 38BD     		pop	{r3, r4, r5, pc}
 762              	.LVL76:
 763              	.L39:
 420:./Middlewares/LwIP/src/apps/http/http_client.c **** 
 764              		.loc 1 420 3 is_stmt 1 discriminator 1 view .LVU180
 420:./Middlewares/LwIP/src/apps/http/http_client.c **** 
 765              		.loc 1 420 3 discriminator 1 view .LVU181
 766 001e 054B     		ldr	r3, .L40+4
 767 0020 4FF4D272 		mov	r2, #420
 768 0024 0449     		ldr	r1, .L40+8
 769              	.LVL77:
 420:./Middlewares/LwIP/src/apps/http/http_client.c **** 
 770              		.loc 1 420 3 is_stmt 0 discriminator 1 view .LVU182
 771 0026 0548     		ldr	r0, .L40+12
 772              	.LVL78:
 420:./Middlewares/LwIP/src/apps/http/http_client.c **** 
 773              		.loc 1 420 3 discriminator 1 view .LVU183
 774 0028 FFF7FEFF 		bl	printf
 775              	.LVL79:
 776 002c ECE7     		b	.L36
ARM GAS  /var/folders/yz/w8msd8211qzc60m57tpkzbn80000gn/T//ccvgDrY8.s 			page 27


 777              	.L41:
 778 002e 00BF     		.align	2
 779              	.L40:
 780 0030 00000000 		.word	httpc_tcp_connected
 781 0034 00000000 		.word	.LC5
 782 0038 00000000 		.word	.LC13
 783 003c 44000000 		.word	.LC7
 784              		.cfi_endproc
 785              	.LFE34:
 787              		.section	.text.httpc_free_state,"ax",%progbits
 788              		.align	1
 789              		.syntax unified
 790              		.thumb
 791              		.thumb_func
 792              		.fpu fpv5-sp-d16
 794              	httpc_free_state:
 795              	.LVL80:
 796              	.LFB25:
 158:./Middlewares/LwIP/src/apps/http/http_client.c ****   struct altcp_pcb* tpcb;
 797              		.loc 1 158 1 is_stmt 1 view -0
 798              		.cfi_startproc
 799              		@ args = 0, pretend = 0, frame = 0
 800              		@ frame_needed = 0, uses_anonymous_args = 0
 158:./Middlewares/LwIP/src/apps/http/http_client.c ****   struct altcp_pcb* tpcb;
 801              		.loc 1 158 1 is_stmt 0 view .LVU185
 802 0000 38B5     		push	{r3, r4, r5, lr}
 803              	.LCFI13:
 804              		.cfi_def_cfa_offset 16
 805              		.cfi_offset 3, -16
 806              		.cfi_offset 4, -12
 807              		.cfi_offset 5, -8
 808              		.cfi_offset 14, -4
 809 0002 0446     		mov	r4, r0
 159:./Middlewares/LwIP/src/apps/http/http_client.c **** 
 810              		.loc 1 159 3 is_stmt 1 view .LVU186
 161:./Middlewares/LwIP/src/apps/http/http_client.c ****     pbuf_free(req->request);
 811              		.loc 1 161 3 view .LVU187
 161:./Middlewares/LwIP/src/apps/http/http_client.c ****     pbuf_free(req->request);
 812              		.loc 1 161 10 is_stmt 0 view .LVU188
 813 0004 0069     		ldr	r0, [r0, #16]
 814              	.LVL81:
 161:./Middlewares/LwIP/src/apps/http/http_client.c ****     pbuf_free(req->request);
 815              		.loc 1 161 6 view .LVU189
 816 0006 18B1     		cbz	r0, .L43
 162:./Middlewares/LwIP/src/apps/http/http_client.c ****     req->request = NULL;
 817              		.loc 1 162 5 is_stmt 1 view .LVU190
 818 0008 FFF7FEFF 		bl	pbuf_free
 819              	.LVL82:
 163:./Middlewares/LwIP/src/apps/http/http_client.c ****   }
 820              		.loc 1 163 5 view .LVU191
 163:./Middlewares/LwIP/src/apps/http/http_client.c ****   }
 821              		.loc 1 163 18 is_stmt 0 view .LVU192
 822 000c 0023     		movs	r3, #0
 823 000e 2361     		str	r3, [r4, #16]
 824              	.L43:
 165:./Middlewares/LwIP/src/apps/http/http_client.c ****     pbuf_free(req->rx_hdrs);
 825              		.loc 1 165 3 is_stmt 1 view .LVU193
ARM GAS  /var/folders/yz/w8msd8211qzc60m57tpkzbn80000gn/T//ccvgDrY8.s 			page 28


 165:./Middlewares/LwIP/src/apps/http/http_client.c ****     pbuf_free(req->rx_hdrs);
 826              		.loc 1 165 10 is_stmt 0 view .LVU194
 827 0010 6069     		ldr	r0, [r4, #20]
 165:./Middlewares/LwIP/src/apps/http/http_client.c ****     pbuf_free(req->rx_hdrs);
 828              		.loc 1 165 6 view .LVU195
 829 0012 18B1     		cbz	r0, .L44
 166:./Middlewares/LwIP/src/apps/http/http_client.c ****     req->rx_hdrs = NULL;
 830              		.loc 1 166 5 is_stmt 1 view .LVU196
 831 0014 FFF7FEFF 		bl	pbuf_free
 832              	.LVL83:
 167:./Middlewares/LwIP/src/apps/http/http_client.c ****   }
 833              		.loc 1 167 5 view .LVU197
 167:./Middlewares/LwIP/src/apps/http/http_client.c ****   }
 834              		.loc 1 167 18 is_stmt 0 view .LVU198
 835 0018 0023     		movs	r3, #0
 836 001a 6361     		str	r3, [r4, #20]
 837              	.L44:
 170:./Middlewares/LwIP/src/apps/http/http_client.c ****   mem_free(req);
 838              		.loc 1 170 3 is_stmt 1 view .LVU199
 170:./Middlewares/LwIP/src/apps/http/http_client.c ****   mem_free(req);
 839              		.loc 1 170 8 is_stmt 0 view .LVU200
 840 001c 2568     		ldr	r5, [r4]
 841              	.LVL84:
 171:./Middlewares/LwIP/src/apps/http/http_client.c ****   req = NULL;
 842              		.loc 1 171 3 is_stmt 1 view .LVU201
 843 001e 2046     		mov	r0, r4
 844 0020 FFF7FEFF 		bl	mem_free
 845              	.LVL85:
 172:./Middlewares/LwIP/src/apps/http/http_client.c **** 
 846              		.loc 1 172 3 view .LVU202
 174:./Middlewares/LwIP/src/apps/http/http_client.c ****     err_t r;
 847              		.loc 1 174 3 view .LVU203
 174:./Middlewares/LwIP/src/apps/http/http_client.c ****     err_t r;
 848              		.loc 1 174 6 is_stmt 0 view .LVU204
 849 0024 FDB1     		cbz	r5, .L46
 850              	.LBB14:
 175:./Middlewares/LwIP/src/apps/http/http_client.c ****     altcp_arg(tpcb, NULL);
 851              		.loc 1 175 5 is_stmt 1 view .LVU205
 176:./Middlewares/LwIP/src/apps/http/http_client.c ****     altcp_recv(tpcb, NULL);
 852              		.loc 1 176 5 view .LVU206
 853 0026 0021     		movs	r1, #0
 854 0028 2846     		mov	r0, r5
 855 002a FFF7FEFF 		bl	tcp_arg
 856              	.LVL86:
 177:./Middlewares/LwIP/src/apps/http/http_client.c ****     altcp_err(tpcb, NULL);
 857              		.loc 1 177 5 view .LVU207
 858 002e 0021     		movs	r1, #0
 859 0030 2846     		mov	r0, r5
 860 0032 FFF7FEFF 		bl	tcp_recv
 861              	.LVL87:
 178:./Middlewares/LwIP/src/apps/http/http_client.c ****     altcp_poll(tpcb, NULL, 0);
 862              		.loc 1 178 5 view .LVU208
 863 0036 0021     		movs	r1, #0
 864 0038 2846     		mov	r0, r5
 865 003a FFF7FEFF 		bl	tcp_err
 866              	.LVL88:
 179:./Middlewares/LwIP/src/apps/http/http_client.c ****     altcp_sent(tpcb, NULL);
ARM GAS  /var/folders/yz/w8msd8211qzc60m57tpkzbn80000gn/T//ccvgDrY8.s 			page 29


 867              		.loc 1 179 5 view .LVU209
 868 003e 0022     		movs	r2, #0
 869 0040 1146     		mov	r1, r2
 870 0042 2846     		mov	r0, r5
 871 0044 FFF7FEFF 		bl	tcp_poll
 872              	.LVL89:
 180:./Middlewares/LwIP/src/apps/http/http_client.c ****     r = altcp_close(tpcb);
 873              		.loc 1 180 5 view .LVU210
 874 0048 0021     		movs	r1, #0
 875 004a 2846     		mov	r0, r5
 876 004c FFF7FEFF 		bl	tcp_sent
 877              	.LVL90:
 181:./Middlewares/LwIP/src/apps/http/http_client.c ****     if (r != ERR_OK) {
 878              		.loc 1 181 5 view .LVU211
 181:./Middlewares/LwIP/src/apps/http/http_client.c ****     if (r != ERR_OK) {
 879              		.loc 1 181 9 is_stmt 0 view .LVU212
 880 0050 2846     		mov	r0, r5
 881 0052 FFF7FEFF 		bl	tcp_close
 882              	.LVL91:
 182:./Middlewares/LwIP/src/apps/http/http_client.c ****       altcp_abort(tpcb);
 883              		.loc 1 182 5 is_stmt 1 view .LVU213
 182:./Middlewares/LwIP/src/apps/http/http_client.c ****       altcp_abort(tpcb);
 884              		.loc 1 182 8 is_stmt 0 view .LVU214
 885 0056 00B9     		cbnz	r0, .L48
 886              	.LVL92:
 887              	.L45:
 182:./Middlewares/LwIP/src/apps/http/http_client.c ****       altcp_abort(tpcb);
 888              		.loc 1 182 8 view .LVU215
 889              	.LBE14:
 188:./Middlewares/LwIP/src/apps/http/http_client.c **** 
 890              		.loc 1 188 1 view .LVU216
 891 0058 38BD     		pop	{r3, r4, r5, pc}
 892              	.LVL93:
 893              	.L48:
 894              	.LBB15:
 183:./Middlewares/LwIP/src/apps/http/http_client.c ****       return ERR_ABRT;
 895              		.loc 1 183 7 is_stmt 1 view .LVU217
 896 005a 2846     		mov	r0, r5
 897              	.LVL94:
 183:./Middlewares/LwIP/src/apps/http/http_client.c ****       return ERR_ABRT;
 898              		.loc 1 183 7 is_stmt 0 view .LVU218
 899 005c FFF7FEFF 		bl	tcp_abort
 900              	.LVL95:
 184:./Middlewares/LwIP/src/apps/http/http_client.c ****     }
 901              		.loc 1 184 7 is_stmt 1 view .LVU219
 184:./Middlewares/LwIP/src/apps/http/http_client.c ****     }
 902              		.loc 1 184 14 is_stmt 0 view .LVU220
 903 0060 6FF00C00 		mvn	r0, #12
 904 0064 F8E7     		b	.L45
 905              	.L46:
 184:./Middlewares/LwIP/src/apps/http/http_client.c ****     }
 906              		.loc 1 184 14 view .LVU221
 907              	.LBE15:
 187:./Middlewares/LwIP/src/apps/http/http_client.c **** }
 908              		.loc 1 187 10 view .LVU222
 909 0066 0020     		movs	r0, #0
 910 0068 F6E7     		b	.L45
ARM GAS  /var/folders/yz/w8msd8211qzc60m57tpkzbn80000gn/T//ccvgDrY8.s 			page 30


 911              		.cfi_endproc
 912              	.LFE25:
 914              		.section	.rodata.httpc_init_connection_common.str1.4,"aMS",%progbits,1
 915              		.align	2
 916              	.LC14:
 917 0000 75726920 		.ascii	"uri != NULL\000"
 917      213D204E 
 917      554C4C00 
 918              		.section	.text.httpc_init_connection_common,"ax",%progbits
 919              		.align	1
 920              		.syntax unified
 921              		.thumb
 922              		.thumb_func
 923              		.fpu fpv5-sp-d16
 925              	httpc_init_connection_common:
 926              	.LVL96:
 927              	.LFB37:
 504:./Middlewares/LwIP/src/apps/http/http_client.c **** 
 505:./Middlewares/LwIP/src/apps/http/http_client.c **** /** Initialize the connection struct */
 506:./Middlewares/LwIP/src/apps/http/http_client.c **** static err_t
 507:./Middlewares/LwIP/src/apps/http/http_client.c **** httpc_init_connection_common(httpc_state_t **connection, const httpc_connection_t *settings, const 
 508:./Middlewares/LwIP/src/apps/http/http_client.c ****                       u16_t server_port, const char* uri, altcp_recv_fn recv_fn, void* callback_arg
 509:./Middlewares/LwIP/src/apps/http/http_client.c **** {
 928              		.loc 1 509 1 is_stmt 1 view -0
 929              		.cfi_startproc
 930              		@ args = 16, pretend = 0, frame = 0
 931              		@ frame_needed = 0, uses_anonymous_args = 0
 932              		.loc 1 509 1 is_stmt 0 view .LVU224
 933 0000 2DE9F04F 		push	{r4, r5, r6, r7, r8, r9, r10, fp, lr}
 934              	.LCFI14:
 935              		.cfi_def_cfa_offset 36
 936              		.cfi_offset 4, -36
 937              		.cfi_offset 5, -32
 938              		.cfi_offset 6, -28
 939              		.cfi_offset 7, -24
 940              		.cfi_offset 8, -20
 941              		.cfi_offset 9, -16
 942              		.cfi_offset 10, -12
 943              		.cfi_offset 11, -8
 944              		.cfi_offset 14, -4
 945 0004 85B0     		sub	sp, sp, #20
 946              	.LCFI15:
 947              		.cfi_def_cfa_offset 56
 948 0006 8246     		mov	r10, r0
 949 0008 0E46     		mov	r6, r1
 950 000a 9046     		mov	r8, r2
 951 000c 1F46     		mov	r7, r3
 952 000e DDF83890 		ldr	r9, [sp, #56]
 510:./Middlewares/LwIP/src/apps/http/http_client.c ****   size_t alloc_len;
 953              		.loc 1 510 3 is_stmt 1 view .LVU225
 511:./Middlewares/LwIP/src/apps/http/http_client.c ****   mem_size_t mem_alloc_len;
 954              		.loc 1 511 3 view .LVU226
 512:./Middlewares/LwIP/src/apps/http/http_client.c ****   int req_len, req_len2;
 955              		.loc 1 512 3 view .LVU227
 513:./Middlewares/LwIP/src/apps/http/http_client.c ****   httpc_state_t *req;
 956              		.loc 1 513 3 view .LVU228
 514:./Middlewares/LwIP/src/apps/http/http_client.c **** #if HTTPC_DEBUG_REQUEST
ARM GAS  /var/folders/yz/w8msd8211qzc60m57tpkzbn80000gn/T//ccvgDrY8.s 			page 31


 515:./Middlewares/LwIP/src/apps/http/http_client.c ****   size_t server_name_len, uri_len;
 516:./Middlewares/LwIP/src/apps/http/http_client.c **** #endif
 517:./Middlewares/LwIP/src/apps/http/http_client.c **** 
 518:./Middlewares/LwIP/src/apps/http/http_client.c ****   LWIP_ASSERT("uri != NULL", uri != NULL);
 957              		.loc 1 518 3 view .LVU229
 958              		.loc 1 518 3 view .LVU230
 959 0012 B9F1000F 		cmp	r9, #0
 960 0016 66D0     		beq	.L61
 961              	.LVL97:
 962              	.L50:
 963              		.loc 1 518 3 discriminator 3 view .LVU231
 964              		.loc 1 518 3 discriminator 3 view .LVU232
 519:./Middlewares/LwIP/src/apps/http/http_client.c **** 
 520:./Middlewares/LwIP/src/apps/http/http_client.c ****   /* get request len */
 521:./Middlewares/LwIP/src/apps/http/http_client.c ****   req_len = httpc_create_request_string(settings, server_name, server_port, uri, use_host, NULL, 0)
 965              		.loc 1 521 3 discriminator 3 view .LVU233
 966              		.loc 1 521 13 is_stmt 0 discriminator 3 view .LVU234
 967 0018 BB46     		mov	fp, r7
 968 001a 0023     		movs	r3, #0
 969 001c 0293     		str	r3, [sp, #8]
 970 001e 0193     		str	r3, [sp, #4]
 971 0020 119B     		ldr	r3, [sp, #68]
 972 0022 0093     		str	r3, [sp]
 973 0024 4B46     		mov	r3, r9
 974 0026 3A46     		mov	r2, r7
 975 0028 4146     		mov	r1, r8
 976 002a 3046     		mov	r0, r6
 977 002c FFF7FEFF 		bl	httpc_create_request_string
 978              	.LVL98:
 979 0030 0546     		mov	r5, r0
 980              	.LVL99:
 522:./Middlewares/LwIP/src/apps/http/http_client.c ****   if ((req_len < 0) || (req_len > 0xFFFF)) {
 981              		.loc 1 522 3 is_stmt 1 discriminator 3 view .LVU235
 982              		.loc 1 522 6 is_stmt 0 discriminator 3 view .LVU236
 983 0032 B0F5803F 		cmp	r0, #65536
 984 0036 76D2     		bcs	.L57
 523:./Middlewares/LwIP/src/apps/http/http_client.c ****     return ERR_VAL;
 524:./Middlewares/LwIP/src/apps/http/http_client.c ****   }
 525:./Middlewares/LwIP/src/apps/http/http_client.c ****   /* alloc state and request in one block */
 526:./Middlewares/LwIP/src/apps/http/http_client.c ****   alloc_len = sizeof(httpc_state_t);
 985              		.loc 1 526 3 is_stmt 1 discriminator 1 view .LVU237
 986              	.LVL100:
 527:./Middlewares/LwIP/src/apps/http/http_client.c **** #if HTTPC_DEBUG_REQUEST
 528:./Middlewares/LwIP/src/apps/http/http_client.c ****   server_name_len = server_name ? strlen(server_name) : 0;
 529:./Middlewares/LwIP/src/apps/http/http_client.c ****   uri_len = strlen(uri);
 530:./Middlewares/LwIP/src/apps/http/http_client.c ****   alloc_len += server_name_len + 1 + uri_len + 1;
 531:./Middlewares/LwIP/src/apps/http/http_client.c **** #endif
 532:./Middlewares/LwIP/src/apps/http/http_client.c ****   mem_alloc_len = (mem_size_t)alloc_len;
 987              		.loc 1 532 3 discriminator 1 view .LVU238
 533:./Middlewares/LwIP/src/apps/http/http_client.c ****   if ((mem_alloc_len < alloc_len) || (req_len + 1 > 0xFFFF)) {
 988              		.loc 1 533 3 discriminator 1 view .LVU239
 989              		.loc 1 533 35 is_stmt 0 discriminator 1 view .LVU240
 990 0038 4FF6FE73 		movw	r3, #65534
 991 003c 9842     		cmp	r0, r3
 992 003e 75DC     		bgt	.L58
 534:./Middlewares/LwIP/src/apps/http/http_client.c ****     return ERR_VAL;
 535:./Middlewares/LwIP/src/apps/http/http_client.c ****   }
ARM GAS  /var/folders/yz/w8msd8211qzc60m57tpkzbn80000gn/T//ccvgDrY8.s 			page 32


 536:./Middlewares/LwIP/src/apps/http/http_client.c **** 
 537:./Middlewares/LwIP/src/apps/http/http_client.c ****   req = (httpc_state_t*)mem_malloc((mem_size_t)alloc_len);
 993              		.loc 1 537 3 is_stmt 1 view .LVU241
 994              		.loc 1 537 25 is_stmt 0 view .LVU242
 995 0040 3420     		movs	r0, #52
 996              	.LVL101:
 997              		.loc 1 537 25 view .LVU243
 998 0042 FFF7FEFF 		bl	mem_malloc
 999              	.LVL102:
 538:./Middlewares/LwIP/src/apps/http/http_client.c ****   if(req == NULL) {
 1000              		.loc 1 538 3 is_stmt 1 view .LVU244
 1001              		.loc 1 538 5 is_stmt 0 view .LVU245
 1002 0046 0446     		mov	r4, r0
 1003 0048 0028     		cmp	r0, #0
 1004 004a 72D0     		beq	.L59
 539:./Middlewares/LwIP/src/apps/http/http_client.c ****     return ERR_MEM;
 540:./Middlewares/LwIP/src/apps/http/http_client.c ****   }
 541:./Middlewares/LwIP/src/apps/http/http_client.c ****   memset(req, 0, sizeof(httpc_state_t));
 1005              		.loc 1 541 3 is_stmt 1 view .LVU246
 1006 004c 3422     		movs	r2, #52
 1007 004e 0021     		movs	r1, #0
 1008 0050 FFF7FEFF 		bl	memset
 1009              	.LVL103:
 542:./Middlewares/LwIP/src/apps/http/http_client.c ****   req->timeout_ticks = HTTPC_POLL_TIMEOUT;
 1010              		.loc 1 542 3 view .LVU247
 1011              		.loc 1 542 22 is_stmt 0 view .LVU248
 1012 0054 1E23     		movs	r3, #30
 1013 0056 E360     		str	r3, [r4, #12]
 543:./Middlewares/LwIP/src/apps/http/http_client.c ****   req->request = pbuf_alloc(PBUF_RAW, (u16_t)(req_len + 1), PBUF_RAM);
 1014              		.loc 1 543 3 is_stmt 1 view .LVU249
 1015              		.loc 1 543 18 is_stmt 0 view .LVU250
 1016 0058 691C     		adds	r1, r5, #1
 1017 005a 4FF42072 		mov	r2, #640
 1018 005e 89B2     		uxth	r1, r1
 1019 0060 0020     		movs	r0, #0
 1020 0062 FFF7FEFF 		bl	pbuf_alloc
 1021              	.LVL104:
 1022              		.loc 1 543 16 view .LVU251
 1023 0066 2061     		str	r0, [r4, #16]
 544:./Middlewares/LwIP/src/apps/http/http_client.c ****   if (req->request == NULL) {
 1024              		.loc 1 544 3 is_stmt 1 view .LVU252
 1025              		.loc 1 544 6 is_stmt 0 view .LVU253
 1026 0068 0028     		cmp	r0, #0
 1027 006a 44D0     		beq	.L62
 545:./Middlewares/LwIP/src/apps/http/http_client.c ****     httpc_free_state(req);
 546:./Middlewares/LwIP/src/apps/http/http_client.c ****     return ERR_MEM;
 547:./Middlewares/LwIP/src/apps/http/http_client.c ****   }
 548:./Middlewares/LwIP/src/apps/http/http_client.c ****   if (req->request->next != NULL) {
 1028              		.loc 1 548 3 is_stmt 1 view .LVU254
 1029              		.loc 1 548 19 is_stmt 0 view .LVU255
 1030 006c 0368     		ldr	r3, [r0]
 1031              		.loc 1 548 6 view .LVU256
 1032 006e 002B     		cmp	r3, #0
 1033 0070 47D1     		bne	.L63
 549:./Middlewares/LwIP/src/apps/http/http_client.c ****     /* need a pbuf in one piece */
 550:./Middlewares/LwIP/src/apps/http/http_client.c ****     httpc_free_state(req);
 551:./Middlewares/LwIP/src/apps/http/http_client.c ****     return ERR_MEM;
ARM GAS  /var/folders/yz/w8msd8211qzc60m57tpkzbn80000gn/T//ccvgDrY8.s 			page 33


 552:./Middlewares/LwIP/src/apps/http/http_client.c ****   }
 553:./Middlewares/LwIP/src/apps/http/http_client.c ****   req->hdr_content_len = HTTPC_CONTENT_LEN_INVALID;
 1034              		.loc 1 553 3 is_stmt 1 view .LVU257
 1035              		.loc 1 553 24 is_stmt 0 view .LVU258
 1036 0072 4FF0FF33 		mov	r3, #-1
 1037 0076 E362     		str	r3, [r4, #44]
 554:./Middlewares/LwIP/src/apps/http/http_client.c **** #if HTTPC_DEBUG_REQUEST
 555:./Middlewares/LwIP/src/apps/http/http_client.c ****   req->server_name = (char*)(req + 1);
 556:./Middlewares/LwIP/src/apps/http/http_client.c ****   if (server_name) {
 557:./Middlewares/LwIP/src/apps/http/http_client.c ****     memcpy(req->server_name, server_name, server_name_len + 1);
 558:./Middlewares/LwIP/src/apps/http/http_client.c ****   }
 559:./Middlewares/LwIP/src/apps/http/http_client.c ****   req->uri = req->server_name + server_name_len + 1;
 560:./Middlewares/LwIP/src/apps/http/http_client.c ****   memcpy(req->uri, uri, uri_len + 1);
 561:./Middlewares/LwIP/src/apps/http/http_client.c **** #endif
 562:./Middlewares/LwIP/src/apps/http/http_client.c ****   req->pcb = altcp_new(settings->altcp_allocator);
 1038              		.loc 1 562 3 is_stmt 1 view .LVU259
 1039              		.loc 1 562 14 is_stmt 0 view .LVU260
 1040 0078 FFF7FEFF 		bl	tcp_new
 1041              	.LVL105:
 1042              		.loc 1 562 12 view .LVU261
 1043 007c 2060     		str	r0, [r4]
 563:./Middlewares/LwIP/src/apps/http/http_client.c ****   if(req->pcb == NULL) {
 1044              		.loc 1 563 3 is_stmt 1 view .LVU262
 1045              		.loc 1 563 5 is_stmt 0 view .LVU263
 1046 007e 0028     		cmp	r0, #0
 1047 0080 45D0     		beq	.L64
 564:./Middlewares/LwIP/src/apps/http/http_client.c ****     httpc_free_state(req);
 565:./Middlewares/LwIP/src/apps/http/http_client.c ****     return ERR_MEM;
 566:./Middlewares/LwIP/src/apps/http/http_client.c ****   }
 567:./Middlewares/LwIP/src/apps/http/http_client.c ****   req->remote_port = settings->use_proxy ? settings->proxy_port : server_port;
 1048              		.loc 1 567 3 is_stmt 1 view .LVU264
 1049              		.loc 1 567 30 is_stmt 0 view .LVU265
 1050 0082 B379     		ldrb	r3, [r6, #6]	@ zero_extendqisi2
 1051              		.loc 1 567 20 view .LVU266
 1052 0084 03B1     		cbz	r3, .L55
 1053              		.loc 1 567 20 discriminator 1 view .LVU267
 1054 0086 B788     		ldrh	r7, [r6, #4]
 1055              	.L55:
 1056              		.loc 1 567 20 discriminator 4 view .LVU268
 1057 0088 2781     		strh	r7, [r4, #8]	@ movhi
 568:./Middlewares/LwIP/src/apps/http/http_client.c ****   altcp_arg(req->pcb, req);
 1058              		.loc 1 568 3 is_stmt 1 discriminator 4 view .LVU269
 1059 008a 2146     		mov	r1, r4
 1060 008c FFF7FEFF 		bl	tcp_arg
 1061              	.LVL106:
 569:./Middlewares/LwIP/src/apps/http/http_client.c ****   altcp_recv(req->pcb, httpc_tcp_recv);
 1062              		.loc 1 569 3 discriminator 4 view .LVU270
 1063 0090 2949     		ldr	r1, .L66
 1064 0092 2068     		ldr	r0, [r4]
 1065 0094 FFF7FEFF 		bl	tcp_recv
 1066              	.LVL107:
 570:./Middlewares/LwIP/src/apps/http/http_client.c ****   altcp_err(req->pcb, httpc_tcp_err);
 1067              		.loc 1 570 3 discriminator 4 view .LVU271
 1068 0098 2849     		ldr	r1, .L66+4
 1069 009a 2068     		ldr	r0, [r4]
 1070 009c FFF7FEFF 		bl	tcp_err
 1071              	.LVL108:
ARM GAS  /var/folders/yz/w8msd8211qzc60m57tpkzbn80000gn/T//ccvgDrY8.s 			page 34


 571:./Middlewares/LwIP/src/apps/http/http_client.c ****   altcp_poll(req->pcb, httpc_tcp_poll, HTTPC_POLL_INTERVAL);
 1072              		.loc 1 571 3 discriminator 4 view .LVU272
 1073 00a0 0122     		movs	r2, #1
 1074 00a2 2749     		ldr	r1, .L66+8
 1075 00a4 2068     		ldr	r0, [r4]
 1076 00a6 FFF7FEFF 		bl	tcp_poll
 1077              	.LVL109:
 572:./Middlewares/LwIP/src/apps/http/http_client.c ****   altcp_sent(req->pcb, httpc_tcp_sent);
 1078              		.loc 1 572 3 discriminator 4 view .LVU273
 1079 00aa 2649     		ldr	r1, .L66+12
 1080 00ac 2068     		ldr	r0, [r4]
 1081 00ae FFF7FEFF 		bl	tcp_sent
 1082              	.LVL110:
 573:./Middlewares/LwIP/src/apps/http/http_client.c **** 
 574:./Middlewares/LwIP/src/apps/http/http_client.c ****   /* set up request buffer */
 575:./Middlewares/LwIP/src/apps/http/http_client.c ****   req_len2 = httpc_create_request_string(settings, server_name, server_port, uri, use_host,
 1083              		.loc 1 575 3 discriminator 4 view .LVU274
 576:./Middlewares/LwIP/src/apps/http/http_client.c ****     (char *)req->request->payload, req_len + 1);
 1084              		.loc 1 576 16 is_stmt 0 discriminator 4 view .LVU275
 1085 00b2 2369     		ldr	r3, [r4, #16]
 1086              		.loc 1 576 25 discriminator 4 view .LVU276
 1087 00b4 5B68     		ldr	r3, [r3, #4]
 1088              		.loc 1 576 44 discriminator 4 view .LVU277
 1089 00b6 6A1C     		adds	r2, r5, #1
 575:./Middlewares/LwIP/src/apps/http/http_client.c ****     (char *)req->request->payload, req_len + 1);
 1090              		.loc 1 575 14 discriminator 4 view .LVU278
 1091 00b8 0292     		str	r2, [sp, #8]
 1092 00ba 0193     		str	r3, [sp, #4]
 1093 00bc 119B     		ldr	r3, [sp, #68]
 1094 00be 0093     		str	r3, [sp]
 1095 00c0 4B46     		mov	r3, r9
 1096 00c2 5A46     		mov	r2, fp
 1097 00c4 4146     		mov	r1, r8
 1098 00c6 3046     		mov	r0, r6
 1099 00c8 FFF7FEFF 		bl	httpc_create_request_string
 1100              	.LVL111:
 577:./Middlewares/LwIP/src/apps/http/http_client.c ****   if (req_len2 != req_len) {
 1101              		.loc 1 577 3 is_stmt 1 discriminator 4 view .LVU279
 1102              		.loc 1 577 6 is_stmt 0 discriminator 4 view .LVU280
 1103 00cc 8542     		cmp	r5, r0
 1104 00ce 24D1     		bne	.L65
 578:./Middlewares/LwIP/src/apps/http/http_client.c ****     httpc_free_state(req);
 579:./Middlewares/LwIP/src/apps/http/http_client.c ****     return ERR_VAL;
 580:./Middlewares/LwIP/src/apps/http/http_client.c ****   }
 581:./Middlewares/LwIP/src/apps/http/http_client.c **** 
 582:./Middlewares/LwIP/src/apps/http/http_client.c ****   req->recv_fn = recv_fn;
 1105              		.loc 1 582 3 is_stmt 1 view .LVU281
 1106              		.loc 1 582 16 is_stmt 0 view .LVU282
 1107 00d0 0F9B     		ldr	r3, [sp, #60]
 1108 00d2 E361     		str	r3, [r4, #28]
 583:./Middlewares/LwIP/src/apps/http/http_client.c ****   req->conn_settings = settings;
 1109              		.loc 1 583 3 is_stmt 1 view .LVU283
 1110              		.loc 1 583 22 is_stmt 0 view .LVU284
 1111 00d4 2662     		str	r6, [r4, #32]
 584:./Middlewares/LwIP/src/apps/http/http_client.c ****   req->callback_arg = callback_arg;
 1112              		.loc 1 584 3 is_stmt 1 view .LVU285
 1113              		.loc 1 584 21 is_stmt 0 view .LVU286
ARM GAS  /var/folders/yz/w8msd8211qzc60m57tpkzbn80000gn/T//ccvgDrY8.s 			page 35


 1114 00d6 109B     		ldr	r3, [sp, #64]
 1115 00d8 6362     		str	r3, [r4, #36]
 585:./Middlewares/LwIP/src/apps/http/http_client.c **** 
 586:./Middlewares/LwIP/src/apps/http/http_client.c ****   *connection = req;
 1116              		.loc 1 586 3 is_stmt 1 view .LVU287
 1117              		.loc 1 586 15 is_stmt 0 view .LVU288
 1118 00da CAF80040 		str	r4, [r10]
 587:./Middlewares/LwIP/src/apps/http/http_client.c ****   return ERR_OK;
 1119              		.loc 1 587 3 is_stmt 1 view .LVU289
 1120              		.loc 1 587 10 is_stmt 0 view .LVU290
 1121 00de 0020     		movs	r0, #0
 1122              	.LVL112:
 1123              	.L51:
 588:./Middlewares/LwIP/src/apps/http/http_client.c **** }
 1124              		.loc 1 588 1 view .LVU291
 1125 00e0 05B0     		add	sp, sp, #20
 1126              	.LCFI16:
 1127              		.cfi_remember_state
 1128              		.cfi_def_cfa_offset 36
 1129              		@ sp needed
 1130 00e2 BDE8F08F 		pop	{r4, r5, r6, r7, r8, r9, r10, fp, pc}
 1131              	.LVL113:
 1132              	.L61:
 1133              	.LCFI17:
 1134              		.cfi_restore_state
 518:./Middlewares/LwIP/src/apps/http/http_client.c **** 
 1135              		.loc 1 518 3 is_stmt 1 discriminator 1 view .LVU292
 518:./Middlewares/LwIP/src/apps/http/http_client.c **** 
 1136              		.loc 1 518 3 discriminator 1 view .LVU293
 1137 00e6 184B     		ldr	r3, .L66+16
 1138              	.LVL114:
 518:./Middlewares/LwIP/src/apps/http/http_client.c **** 
 1139              		.loc 1 518 3 is_stmt 0 discriminator 1 view .LVU294
 1140 00e8 40F20622 		movw	r2, #518
 1141              	.LVL115:
 518:./Middlewares/LwIP/src/apps/http/http_client.c **** 
 1142              		.loc 1 518 3 discriminator 1 view .LVU295
 1143 00ec 1749     		ldr	r1, .L66+20
 1144              	.LVL116:
 518:./Middlewares/LwIP/src/apps/http/http_client.c **** 
 1145              		.loc 1 518 3 discriminator 1 view .LVU296
 1146 00ee 1848     		ldr	r0, .L66+24
 1147              	.LVL117:
 518:./Middlewares/LwIP/src/apps/http/http_client.c **** 
 1148              		.loc 1 518 3 discriminator 1 view .LVU297
 1149 00f0 FFF7FEFF 		bl	printf
 1150              	.LVL118:
 1151 00f4 90E7     		b	.L50
 1152              	.LVL119:
 1153              	.L62:
 545:./Middlewares/LwIP/src/apps/http/http_client.c ****     return ERR_MEM;
 1154              		.loc 1 545 5 is_stmt 1 view .LVU298
 1155 00f6 2046     		mov	r0, r4
 1156 00f8 FFF7FEFF 		bl	httpc_free_state
 1157              	.LVL120:
 546:./Middlewares/LwIP/src/apps/http/http_client.c ****   }
 1158              		.loc 1 546 5 view .LVU299
ARM GAS  /var/folders/yz/w8msd8211qzc60m57tpkzbn80000gn/T//ccvgDrY8.s 			page 36


 546:./Middlewares/LwIP/src/apps/http/http_client.c ****   }
 1159              		.loc 1 546 12 is_stmt 0 view .LVU300
 1160 00fc 4FF0FF30 		mov	r0, #-1
 1161 0100 EEE7     		b	.L51
 1162              	.L63:
 550:./Middlewares/LwIP/src/apps/http/http_client.c ****     return ERR_MEM;
 1163              		.loc 1 550 5 is_stmt 1 view .LVU301
 1164 0102 2046     		mov	r0, r4
 1165 0104 FFF7FEFF 		bl	httpc_free_state
 1166              	.LVL121:
 551:./Middlewares/LwIP/src/apps/http/http_client.c ****   }
 1167              		.loc 1 551 5 view .LVU302
 551:./Middlewares/LwIP/src/apps/http/http_client.c ****   }
 1168              		.loc 1 551 12 is_stmt 0 view .LVU303
 1169 0108 4FF0FF30 		mov	r0, #-1
 1170 010c E8E7     		b	.L51
 1171              	.L64:
 564:./Middlewares/LwIP/src/apps/http/http_client.c ****     return ERR_MEM;
 1172              		.loc 1 564 5 is_stmt 1 view .LVU304
 1173 010e 2046     		mov	r0, r4
 1174 0110 FFF7FEFF 		bl	httpc_free_state
 1175              	.LVL122:
 565:./Middlewares/LwIP/src/apps/http/http_client.c ****   }
 1176              		.loc 1 565 5 view .LVU305
 565:./Middlewares/LwIP/src/apps/http/http_client.c ****   }
 1177              		.loc 1 565 12 is_stmt 0 view .LVU306
 1178 0114 4FF0FF30 		mov	r0, #-1
 1179 0118 E2E7     		b	.L51
 1180              	.LVL123:
 1181              	.L65:
 578:./Middlewares/LwIP/src/apps/http/http_client.c ****     return ERR_VAL;
 1182              		.loc 1 578 5 is_stmt 1 view .LVU307
 1183 011a 2046     		mov	r0, r4
 1184              	.LVL124:
 578:./Middlewares/LwIP/src/apps/http/http_client.c ****     return ERR_VAL;
 1185              		.loc 1 578 5 is_stmt 0 view .LVU308
 1186 011c FFF7FEFF 		bl	httpc_free_state
 1187              	.LVL125:
 579:./Middlewares/LwIP/src/apps/http/http_client.c ****   }
 1188              		.loc 1 579 5 is_stmt 1 view .LVU309
 579:./Middlewares/LwIP/src/apps/http/http_client.c ****   }
 1189              		.loc 1 579 12 is_stmt 0 view .LVU310
 1190 0120 6FF00500 		mvn	r0, #5
 1191 0124 DCE7     		b	.L51
 1192              	.LVL126:
 1193              	.L57:
 523:./Middlewares/LwIP/src/apps/http/http_client.c ****   }
 1194              		.loc 1 523 12 view .LVU311
 1195 0126 6FF00500 		mvn	r0, #5
 1196              	.LVL127:
 523:./Middlewares/LwIP/src/apps/http/http_client.c ****   }
 1197              		.loc 1 523 12 view .LVU312
 1198 012a D9E7     		b	.L51
 1199              	.LVL128:
 1200              	.L58:
 534:./Middlewares/LwIP/src/apps/http/http_client.c ****   }
 1201              		.loc 1 534 12 view .LVU313
ARM GAS  /var/folders/yz/w8msd8211qzc60m57tpkzbn80000gn/T//ccvgDrY8.s 			page 37


 1202 012c 6FF00500 		mvn	r0, #5
 1203              	.LVL129:
 534:./Middlewares/LwIP/src/apps/http/http_client.c ****   }
 1204              		.loc 1 534 12 view .LVU314
 1205 0130 D6E7     		b	.L51
 1206              	.LVL130:
 1207              	.L59:
 539:./Middlewares/LwIP/src/apps/http/http_client.c ****   }
 1208              		.loc 1 539 12 view .LVU315
 1209 0132 4FF0FF30 		mov	r0, #-1
 1210              	.LVL131:
 539:./Middlewares/LwIP/src/apps/http/http_client.c ****   }
 1211              		.loc 1 539 12 view .LVU316
 1212 0136 D3E7     		b	.L51
 1213              	.L67:
 1214              		.align	2
 1215              	.L66:
 1216 0138 00000000 		.word	httpc_tcp_recv
 1217 013c 00000000 		.word	httpc_tcp_err
 1218 0140 00000000 		.word	httpc_tcp_poll
 1219 0144 00000000 		.word	httpc_tcp_sent
 1220 0148 00000000 		.word	.LC5
 1221 014c 00000000 		.word	.LC14
 1222 0150 44000000 		.word	.LC7
 1223              		.cfi_endproc
 1224              	.LFE37:
 1226              		.section	.text.httpc_init_connection_addr,"ax",%progbits
 1227              		.align	1
 1228              		.syntax unified
 1229              		.thumb
 1230              		.thumb_func
 1231              		.fpu fpv5-sp-d16
 1233              	httpc_init_connection_addr:
 1234              	.LVL132:
 1235              	.LFB39:
 589:./Middlewares/LwIP/src/apps/http/http_client.c **** 
 590:./Middlewares/LwIP/src/apps/http/http_client.c **** /**
 591:./Middlewares/LwIP/src/apps/http/http_client.c ****  * Initialize the connection struct
 592:./Middlewares/LwIP/src/apps/http/http_client.c ****  */
 593:./Middlewares/LwIP/src/apps/http/http_client.c **** static err_t
 594:./Middlewares/LwIP/src/apps/http/http_client.c **** httpc_init_connection(httpc_state_t **connection, const httpc_connection_t *settings, const char* s
 595:./Middlewares/LwIP/src/apps/http/http_client.c ****                       u16_t server_port, const char* uri, altcp_recv_fn recv_fn, void* callback_arg
 596:./Middlewares/LwIP/src/apps/http/http_client.c **** {
 597:./Middlewares/LwIP/src/apps/http/http_client.c ****   return httpc_init_connection_common(connection, settings, server_name, server_port, uri, recv_fn,
 598:./Middlewares/LwIP/src/apps/http/http_client.c **** }
 599:./Middlewares/LwIP/src/apps/http/http_client.c **** 
 600:./Middlewares/LwIP/src/apps/http/http_client.c **** 
 601:./Middlewares/LwIP/src/apps/http/http_client.c **** /**
 602:./Middlewares/LwIP/src/apps/http/http_client.c ****  * Initialize the connection struct (from IP address)
 603:./Middlewares/LwIP/src/apps/http/http_client.c ****  */
 604:./Middlewares/LwIP/src/apps/http/http_client.c **** static err_t
 605:./Middlewares/LwIP/src/apps/http/http_client.c **** httpc_init_connection_addr(httpc_state_t **connection, const httpc_connection_t *settings,
 606:./Middlewares/LwIP/src/apps/http/http_client.c ****                            const ip_addr_t* server_addr, u16_t server_port, const char* uri,
 607:./Middlewares/LwIP/src/apps/http/http_client.c ****                            altcp_recv_fn recv_fn, void* callback_arg)
 608:./Middlewares/LwIP/src/apps/http/http_client.c **** {
 1236              		.loc 1 608 1 is_stmt 1 view -0
 1237              		.cfi_startproc
ARM GAS  /var/folders/yz/w8msd8211qzc60m57tpkzbn80000gn/T//ccvgDrY8.s 			page 38


 1238              		@ args = 12, pretend = 0, frame = 0
 1239              		@ frame_needed = 0, uses_anonymous_args = 0
 1240              		.loc 1 608 1 is_stmt 0 view .LVU318
 1241 0000 70B5     		push	{r4, r5, r6, lr}
 1242              	.LCFI18:
 1243              		.cfi_def_cfa_offset 16
 1244              		.cfi_offset 4, -16
 1245              		.cfi_offset 5, -12
 1246              		.cfi_offset 6, -8
 1247              		.cfi_offset 14, -4
 1248 0002 84B0     		sub	sp, sp, #16
 1249              	.LCFI19:
 1250              		.cfi_def_cfa_offset 32
 1251 0004 0646     		mov	r6, r0
 1252 0006 0D46     		mov	r5, r1
 1253 0008 1C46     		mov	r4, r3
 609:./Middlewares/LwIP/src/apps/http/http_client.c ****   char *server_addr_str = ipaddr_ntoa(server_addr);
 1254              		.loc 1 609 3 is_stmt 1 view .LVU319
 1255              		.loc 1 609 27 is_stmt 0 view .LVU320
 1256 000a 1046     		mov	r0, r2
 1257              	.LVL133:
 1258              		.loc 1 609 27 view .LVU321
 1259 000c FFF7FEFF 		bl	ip4addr_ntoa
 1260              	.LVL134:
 610:./Middlewares/LwIP/src/apps/http/http_client.c ****   if (server_addr_str == NULL) {
 1261              		.loc 1 610 3 is_stmt 1 view .LVU322
 1262              		.loc 1 610 6 is_stmt 0 view .LVU323
 1263 0010 78B1     		cbz	r0, .L70
 1264 0012 0246     		mov	r2, r0
 611:./Middlewares/LwIP/src/apps/http/http_client.c ****     return ERR_VAL;
 612:./Middlewares/LwIP/src/apps/http/http_client.c ****   }
 613:./Middlewares/LwIP/src/apps/http/http_client.c ****   return httpc_init_connection_common(connection, settings, server_addr_str, server_port, uri,
 1265              		.loc 1 613 3 is_stmt 1 view .LVU324
 1266              		.loc 1 613 10 is_stmt 0 view .LVU325
 1267 0014 0123     		movs	r3, #1
 1268 0016 0393     		str	r3, [sp, #12]
 1269 0018 0A9B     		ldr	r3, [sp, #40]
 1270 001a 0293     		str	r3, [sp, #8]
 1271 001c 099B     		ldr	r3, [sp, #36]
 1272 001e 0193     		str	r3, [sp, #4]
 1273 0020 089B     		ldr	r3, [sp, #32]
 1274 0022 0093     		str	r3, [sp]
 1275 0024 2346     		mov	r3, r4
 1276 0026 2946     		mov	r1, r5
 1277 0028 3046     		mov	r0, r6
 1278              	.LVL135:
 1279              		.loc 1 613 10 view .LVU326
 1280 002a FFF7FEFF 		bl	httpc_init_connection_common
 1281              	.LVL136:
 1282              	.L69:
 614:./Middlewares/LwIP/src/apps/http/http_client.c ****     recv_fn, callback_arg, 1);
 615:./Middlewares/LwIP/src/apps/http/http_client.c **** }
 1283              		.loc 1 615 1 view .LVU327
 1284 002e 04B0     		add	sp, sp, #16
 1285              	.LCFI20:
 1286              		.cfi_remember_state
 1287              		.cfi_def_cfa_offset 16
ARM GAS  /var/folders/yz/w8msd8211qzc60m57tpkzbn80000gn/T//ccvgDrY8.s 			page 39


 1288              		@ sp needed
 1289 0030 70BD     		pop	{r4, r5, r6, pc}
 1290              	.LVL137:
 1291              	.L70:
 1292              	.LCFI21:
 1293              		.cfi_restore_state
 611:./Middlewares/LwIP/src/apps/http/http_client.c ****     return ERR_VAL;
 1294              		.loc 1 611 12 view .LVU328
 1295 0032 6FF00500 		mvn	r0, #5
 1296              	.LVL138:
 611:./Middlewares/LwIP/src/apps/http/http_client.c ****     return ERR_VAL;
 1297              		.loc 1 611 12 view .LVU329
 1298 0036 FAE7     		b	.L69
 1299              		.cfi_endproc
 1300              	.LFE39:
 1302              		.section	.text.httpc_init_connection,"ax",%progbits
 1303              		.align	1
 1304              		.syntax unified
 1305              		.thumb
 1306              		.thumb_func
 1307              		.fpu fpv5-sp-d16
 1309              	httpc_init_connection:
 1310              	.LVL139:
 1311              	.LFB38:
 596:./Middlewares/LwIP/src/apps/http/http_client.c ****   return httpc_init_connection_common(connection, settings, server_name, server_port, uri, recv_fn,
 1312              		.loc 1 596 1 is_stmt 1 view -0
 1313              		.cfi_startproc
 1314              		@ args = 12, pretend = 0, frame = 0
 1315              		@ frame_needed = 0, uses_anonymous_args = 0
 596:./Middlewares/LwIP/src/apps/http/http_client.c ****   return httpc_init_connection_common(connection, settings, server_name, server_port, uri, recv_fn,
 1316              		.loc 1 596 1 is_stmt 0 view .LVU331
 1317 0000 10B5     		push	{r4, lr}
 1318              	.LCFI22:
 1319              		.cfi_def_cfa_offset 8
 1320              		.cfi_offset 4, -8
 1321              		.cfi_offset 14, -4
 1322 0002 84B0     		sub	sp, sp, #16
 1323              	.LCFI23:
 1324              		.cfi_def_cfa_offset 24
 597:./Middlewares/LwIP/src/apps/http/http_client.c **** }
 1325              		.loc 1 597 3 is_stmt 1 view .LVU332
 597:./Middlewares/LwIP/src/apps/http/http_client.c **** }
 1326              		.loc 1 597 10 is_stmt 0 view .LVU333
 1327 0004 0124     		movs	r4, #1
 1328 0006 0394     		str	r4, [sp, #12]
 1329 0008 089C     		ldr	r4, [sp, #32]
 1330 000a 0294     		str	r4, [sp, #8]
 1331 000c 079C     		ldr	r4, [sp, #28]
 1332 000e 0194     		str	r4, [sp, #4]
 1333 0010 069C     		ldr	r4, [sp, #24]
 1334 0012 0094     		str	r4, [sp]
 1335 0014 FFF7FEFF 		bl	httpc_init_connection_common
 1336              	.LVL140:
 598:./Middlewares/LwIP/src/apps/http/http_client.c **** 
 1337              		.loc 1 598 1 view .LVU334
 1338 0018 04B0     		add	sp, sp, #16
 1339              	.LCFI24:
ARM GAS  /var/folders/yz/w8msd8211qzc60m57tpkzbn80000gn/T//ccvgDrY8.s 			page 40


 1340              		.cfi_def_cfa_offset 8
 1341              		@ sp needed
 1342 001a 10BD     		pop	{r4, pc}
 598:./Middlewares/LwIP/src/apps/http/http_client.c **** 
 1343              		.loc 1 598 1 view .LVU335
 1344              		.cfi_endproc
 1345              	.LFE38:
 1347              		.section	.text.httpc_close,"ax",%progbits
 1348              		.align	1
 1349              		.syntax unified
 1350              		.thumb
 1351              		.thumb_func
 1352              		.fpu fpv5-sp-d16
 1354              	httpc_close:
 1355              	.LVL141:
 1356              	.LFB26:
 193:./Middlewares/LwIP/src/apps/http/http_client.c ****   if (req != NULL) {
 1357              		.loc 1 193 1 is_stmt 1 view -0
 1358              		.cfi_startproc
 1359              		@ args = 0, pretend = 0, frame = 0
 1360              		@ frame_needed = 0, uses_anonymous_args = 0
 194:./Middlewares/LwIP/src/apps/http/http_client.c ****     if (req->conn_settings != NULL) {
 1361              		.loc 1 194 3 view .LVU337
 194:./Middlewares/LwIP/src/apps/http/http_client.c ****     if (req->conn_settings != NULL) {
 1362              		.loc 1 194 6 is_stmt 0 view .LVU338
 1363 0000 80B1     		cbz	r0, .L77
 193:./Middlewares/LwIP/src/apps/http/http_client.c ****   if (req != NULL) {
 1364              		.loc 1 193 1 view .LVU339
 1365 0002 30B5     		push	{r4, r5, lr}
 1366              	.LCFI25:
 1367              		.cfi_def_cfa_offset 12
 1368              		.cfi_offset 4, -12
 1369              		.cfi_offset 5, -8
 1370              		.cfi_offset 14, -4
 1371 0004 83B0     		sub	sp, sp, #12
 1372              	.LCFI26:
 1373              		.cfi_def_cfa_offset 24
 1374 0006 0446     		mov	r4, r0
 195:./Middlewares/LwIP/src/apps/http/http_client.c ****       if (req->conn_settings->result_fn != NULL) {
 1375              		.loc 1 195 5 is_stmt 1 view .LVU340
 195:./Middlewares/LwIP/src/apps/http/http_client.c ****       if (req->conn_settings->result_fn != NULL) {
 1376              		.loc 1 195 12 is_stmt 0 view .LVU341
 1377 0008 006A     		ldr	r0, [r0, #32]
 1378              	.LVL142:
 195:./Middlewares/LwIP/src/apps/http/http_client.c ****       if (req->conn_settings->result_fn != NULL) {
 1379              		.loc 1 195 8 view .LVU342
 1380 000a 30B1     		cbz	r0, .L76
 196:./Middlewares/LwIP/src/apps/http/http_client.c ****         req->conn_settings->result_fn(req->callback_arg, result, req->rx_content_len, server_respon
 1381              		.loc 1 196 7 is_stmt 1 view .LVU343
 196:./Middlewares/LwIP/src/apps/http/http_client.c ****         req->conn_settings->result_fn(req->callback_arg, result, req->rx_content_len, server_respon
 1382              		.loc 1 196 29 is_stmt 0 view .LVU344
 1383 000c 8568     		ldr	r5, [r0, #8]
 196:./Middlewares/LwIP/src/apps/http/http_client.c ****         req->conn_settings->result_fn(req->callback_arg, result, req->rx_content_len, server_respon
 1384              		.loc 1 196 10 view .LVU345
 1385 000e 25B1     		cbz	r5, .L76
 197:./Middlewares/LwIP/src/apps/http/http_client.c ****       }
 1386              		.loc 1 197 9 is_stmt 1 view .LVU346
ARM GAS  /var/folders/yz/w8msd8211qzc60m57tpkzbn80000gn/T//ccvgDrY8.s 			page 41


 1387 0010 0093     		str	r3, [sp]
 1388 0012 1346     		mov	r3, r2
 1389              	.LVL143:
 197:./Middlewares/LwIP/src/apps/http/http_client.c ****       }
 1390              		.loc 1 197 9 is_stmt 0 view .LVU347
 1391 0014 A26A     		ldr	r2, [r4, #40]
 1392              	.LVL144:
 197:./Middlewares/LwIP/src/apps/http/http_client.c ****       }
 1393              		.loc 1 197 9 view .LVU348
 1394 0016 606A     		ldr	r0, [r4, #36]
 1395 0018 A847     		blx	r5
 1396              	.LVL145:
 1397              	.L76:
 200:./Middlewares/LwIP/src/apps/http/http_client.c ****   }
 1398              		.loc 1 200 5 is_stmt 1 view .LVU349
 200:./Middlewares/LwIP/src/apps/http/http_client.c ****   }
 1399              		.loc 1 200 12 is_stmt 0 view .LVU350
 1400 001a 2046     		mov	r0, r4
 1401 001c FFF7FEFF 		bl	httpc_free_state
 1402              	.LVL146:
 203:./Middlewares/LwIP/src/apps/http/http_client.c **** 
 1403              		.loc 1 203 1 view .LVU351
 1404 0020 03B0     		add	sp, sp, #12
 1405              	.LCFI27:
 1406              		.cfi_def_cfa_offset 12
 1407              		@ sp needed
 1408 0022 30BD     		pop	{r4, r5, pc}
 1409              	.LVL147:
 1410              	.L77:
 1411              	.LCFI28:
 1412              		.cfi_def_cfa_offset 0
 1413              		.cfi_restore 4
 1414              		.cfi_restore 5
 1415              		.cfi_restore 14
 202:./Middlewares/LwIP/src/apps/http/http_client.c **** }
 1416              		.loc 1 202 10 view .LVU352
 1417 0024 0020     		movs	r0, #0
 1418              	.LVL148:
 203:./Middlewares/LwIP/src/apps/http/http_client.c **** 
 1419              		.loc 1 203 1 view .LVU353
 1420 0026 7047     		bx	lr
 1421              		.cfi_endproc
 1422              	.LFE26:
 1424              		.section	.text.httpc_tcp_poll,"ax",%progbits
 1425              		.align	1
 1426              		.syntax unified
 1427              		.thumb
 1428              		.thumb_func
 1429              		.fpu fpv5-sp-d16
 1431              	httpc_tcp_poll:
 1432              	.LVL149:
 1433              	.LFB31:
 366:./Middlewares/LwIP/src/apps/http/http_client.c ****   /* implement timeout */
 1434              		.loc 1 366 1 is_stmt 1 view -0
 1435              		.cfi_startproc
 1436              		@ args = 0, pretend = 0, frame = 0
 1437              		@ frame_needed = 0, uses_anonymous_args = 0
ARM GAS  /var/folders/yz/w8msd8211qzc60m57tpkzbn80000gn/T//ccvgDrY8.s 			page 42


 368:./Middlewares/LwIP/src/apps/http/http_client.c ****   LWIP_UNUSED_ARG(pcb);
 1438              		.loc 1 368 3 view .LVU355
 369:./Middlewares/LwIP/src/apps/http/http_client.c ****   if (req != NULL) {
 1439              		.loc 1 369 3 view .LVU356
 370:./Middlewares/LwIP/src/apps/http/http_client.c ****     if (req->timeout_ticks) {
 1440              		.loc 1 370 3 view .LVU357
 370:./Middlewares/LwIP/src/apps/http/http_client.c ****     if (req->timeout_ticks) {
 1441              		.loc 1 370 6 is_stmt 0 view .LVU358
 1442 0000 78B1     		cbz	r0, .L85
 366:./Middlewares/LwIP/src/apps/http/http_client.c ****   /* implement timeout */
 1443              		.loc 1 366 1 view .LVU359
 1444 0002 10B5     		push	{r4, lr}
 1445              	.LCFI29:
 1446              		.cfi_def_cfa_offset 8
 1447              		.cfi_offset 4, -8
 1448              		.cfi_offset 14, -4
 1449 0004 0446     		mov	r4, r0
 371:./Middlewares/LwIP/src/apps/http/http_client.c ****       req->timeout_ticks--;
 1450              		.loc 1 371 5 is_stmt 1 view .LVU360
 371:./Middlewares/LwIP/src/apps/http/http_client.c ****       req->timeout_ticks--;
 1451              		.loc 1 371 12 is_stmt 0 view .LVU361
 1452 0006 C368     		ldr	r3, [r0, #12]
 371:./Middlewares/LwIP/src/apps/http/http_client.c ****       req->timeout_ticks--;
 1453              		.loc 1 371 8 view .LVU362
 1454 0008 0BB1     		cbz	r3, .L84
 372:./Middlewares/LwIP/src/apps/http/http_client.c ****     }
 1455              		.loc 1 372 7 is_stmt 1 view .LVU363
 372:./Middlewares/LwIP/src/apps/http/http_client.c ****     }
 1456              		.loc 1 372 25 is_stmt 0 view .LVU364
 1457 000a 013B     		subs	r3, r3, #1
 1458 000c C360     		str	r3, [r0, #12]
 1459              	.L84:
 374:./Middlewares/LwIP/src/apps/http/http_client.c ****       return httpc_close(req, HTTPC_RESULT_ERR_TIMEOUT, 0, ERR_OK);
 1460              		.loc 1 374 5 is_stmt 1 view .LVU365
 374:./Middlewares/LwIP/src/apps/http/http_client.c ****       return httpc_close(req, HTTPC_RESULT_ERR_TIMEOUT, 0, ERR_OK);
 1461              		.loc 1 374 13 is_stmt 0 view .LVU366
 1462 000e E368     		ldr	r3, [r4, #12]
 374:./Middlewares/LwIP/src/apps/http/http_client.c ****       return httpc_close(req, HTTPC_RESULT_ERR_TIMEOUT, 0, ERR_OK);
 1463              		.loc 1 374 8 view .LVU367
 1464 0010 0BB1     		cbz	r3, .L91
 378:./Middlewares/LwIP/src/apps/http/http_client.c **** }
 1465              		.loc 1 378 10 view .LVU368
 1466 0012 0020     		movs	r0, #0
 1467              	.LVL150:
 1468              	.L83:
 379:./Middlewares/LwIP/src/apps/http/http_client.c **** 
 1469              		.loc 1 379 1 view .LVU369
 1470 0014 10BD     		pop	{r4, pc}
 1471              	.LVL151:
 1472              	.L91:
 375:./Middlewares/LwIP/src/apps/http/http_client.c ****     }
 1473              		.loc 1 375 7 is_stmt 1 view .LVU370
 375:./Middlewares/LwIP/src/apps/http/http_client.c ****     }
 1474              		.loc 1 375 14 is_stmt 0 view .LVU371
 1475 0016 1A46     		mov	r2, r3
 1476 0018 0521     		movs	r1, #5
 1477              	.LVL152:
ARM GAS  /var/folders/yz/w8msd8211qzc60m57tpkzbn80000gn/T//ccvgDrY8.s 			page 43


 375:./Middlewares/LwIP/src/apps/http/http_client.c ****     }
 1478              		.loc 1 375 14 view .LVU372
 1479 001a 2046     		mov	r0, r4
 1480              	.LVL153:
 375:./Middlewares/LwIP/src/apps/http/http_client.c ****     }
 1481              		.loc 1 375 14 view .LVU373
 1482 001c FFF7FEFF 		bl	httpc_close
 1483              	.LVL154:
 1484 0020 F8E7     		b	.L83
 1485              	.LVL155:
 1486              	.L85:
 1487              	.LCFI30:
 1488              		.cfi_def_cfa_offset 0
 1489              		.cfi_restore 4
 1490              		.cfi_restore 14
 378:./Middlewares/LwIP/src/apps/http/http_client.c **** }
 1491              		.loc 1 378 10 view .LVU374
 1492 0022 0020     		movs	r0, #0
 1493              	.LVL156:
 379:./Middlewares/LwIP/src/apps/http/http_client.c **** 
 1494              		.loc 1 379 1 view .LVU375
 1495 0024 7047     		bx	lr
 1496              		.cfi_endproc
 1497              	.LFE31:
 1499              		.section	.text.httpc_tcp_err,"ax",%progbits
 1500              		.align	1
 1501              		.syntax unified
 1502              		.thumb
 1503              		.thumb_func
 1504              		.fpu fpv5-sp-d16
 1506              	httpc_tcp_err:
 1507              	.LVL157:
 1508              	.LFB30:
 354:./Middlewares/LwIP/src/apps/http/http_client.c ****   httpc_state_t* req = (httpc_state_t*)arg;
 1509              		.loc 1 354 1 is_stmt 1 view -0
 1510              		.cfi_startproc
 1511              		@ args = 0, pretend = 0, frame = 0
 1512              		@ frame_needed = 0, uses_anonymous_args = 0
 355:./Middlewares/LwIP/src/apps/http/http_client.c ****   if (req != NULL) {
 1513              		.loc 1 355 3 view .LVU377
 356:./Middlewares/LwIP/src/apps/http/http_client.c ****     /* pcb has already been deallocated */
 1514              		.loc 1 356 3 view .LVU378
 356:./Middlewares/LwIP/src/apps/http/http_client.c ****     /* pcb has already been deallocated */
 1515              		.loc 1 356 6 is_stmt 0 view .LVU379
 1516 0000 38B1     		cbz	r0, .L95
 354:./Middlewares/LwIP/src/apps/http/http_client.c ****   httpc_state_t* req = (httpc_state_t*)arg;
 1517              		.loc 1 354 1 view .LVU380
 1518 0002 10B5     		push	{r4, lr}
 1519              	.LCFI31:
 1520              		.cfi_def_cfa_offset 8
 1521              		.cfi_offset 4, -8
 1522              		.cfi_offset 14, -4
 1523 0004 0B46     		mov	r3, r1
 358:./Middlewares/LwIP/src/apps/http/http_client.c ****     httpc_close(req, HTTPC_RESULT_ERR_CLOSED, 0, err);
 1524              		.loc 1 358 5 is_stmt 1 view .LVU381
 358:./Middlewares/LwIP/src/apps/http/http_client.c ****     httpc_close(req, HTTPC_RESULT_ERR_CLOSED, 0, err);
 1525              		.loc 1 358 14 is_stmt 0 view .LVU382
ARM GAS  /var/folders/yz/w8msd8211qzc60m57tpkzbn80000gn/T//ccvgDrY8.s 			page 44


 1526 0006 0022     		movs	r2, #0
 1527 0008 0260     		str	r2, [r0]
 359:./Middlewares/LwIP/src/apps/http/http_client.c ****   }
 1528              		.loc 1 359 5 is_stmt 1 view .LVU383
 1529 000a 0421     		movs	r1, #4
 1530              	.LVL158:
 359:./Middlewares/LwIP/src/apps/http/http_client.c ****   }
 1531              		.loc 1 359 5 is_stmt 0 view .LVU384
 1532 000c FFF7FEFF 		bl	httpc_close
 1533              	.LVL159:
 361:./Middlewares/LwIP/src/apps/http/http_client.c **** 
 1534              		.loc 1 361 1 view .LVU385
 1535 0010 10BD     		pop	{r4, pc}
 1536              	.LVL160:
 1537              	.L95:
 1538              	.LCFI32:
 1539              		.cfi_def_cfa_offset 0
 1540              		.cfi_restore 4
 1541              		.cfi_restore 14
 361:./Middlewares/LwIP/src/apps/http/http_client.c **** 
 1542              		.loc 1 361 1 view .LVU386
 1543 0012 7047     		bx	lr
 1544              		.cfi_endproc
 1545              	.LFE30:
 1547              		.section	.text.httpc_tcp_recv,"ax",%progbits
 1548              		.align	1
 1549              		.syntax unified
 1550              		.thumb
 1551              		.thumb_func
 1552              		.fpu fpv5-sp-d16
 1554              	httpc_tcp_recv:
 1555              	.LVL161:
 1556              	.LFB29:
 281:./Middlewares/LwIP/src/apps/http/http_client.c ****   httpc_state_t* req = (httpc_state_t*)arg;
 1557              		.loc 1 281 1 is_stmt 1 view -0
 1558              		.cfi_startproc
 1559              		@ args = 0, pretend = 0, frame = 8
 1560              		@ frame_needed = 0, uses_anonymous_args = 0
 281:./Middlewares/LwIP/src/apps/http/http_client.c ****   httpc_state_t* req = (httpc_state_t*)arg;
 1561              		.loc 1 281 1 is_stmt 0 view .LVU388
 1562 0000 2DE9F041 		push	{r4, r5, r6, r7, r8, lr}
 1563              	.LCFI33:
 1564              		.cfi_def_cfa_offset 24
 1565              		.cfi_offset 4, -24
 1566              		.cfi_offset 5, -20
 1567              		.cfi_offset 6, -16
 1568              		.cfi_offset 7, -12
 1569              		.cfi_offset 8, -8
 1570              		.cfi_offset 14, -4
 1571 0004 84B0     		sub	sp, sp, #16
 1572              	.LCFI34:
 1573              		.cfi_def_cfa_offset 40
 1574 0006 0446     		mov	r4, r0
 282:./Middlewares/LwIP/src/apps/http/http_client.c ****   LWIP_UNUSED_ARG(r);
 1575              		.loc 1 282 3 is_stmt 1 view .LVU389
 1576              	.LVL162:
 283:./Middlewares/LwIP/src/apps/http/http_client.c **** 
ARM GAS  /var/folders/yz/w8msd8211qzc60m57tpkzbn80000gn/T//ccvgDrY8.s 			page 45


 1577              		.loc 1 283 3 view .LVU390
 285:./Middlewares/LwIP/src/apps/http/http_client.c ****     httpc_result_t result;
 1578              		.loc 1 285 3 view .LVU391
 285:./Middlewares/LwIP/src/apps/http/http_client.c ****     httpc_result_t result;
 1579              		.loc 1 285 6 is_stmt 0 view .LVU392
 1580 0008 E2B1     		cbz	r2, .L116
 1581 000a 0F46     		mov	r7, r1
 1582 000c 1E46     		mov	r6, r3
 1583 000e 1546     		mov	r5, r2
 300:./Middlewares/LwIP/src/apps/http/http_client.c ****     if (req->rx_hdrs == NULL) {
 1584              		.loc 1 300 3 is_stmt 1 view .LVU393
 300:./Middlewares/LwIP/src/apps/http/http_client.c ****     if (req->rx_hdrs == NULL) {
 1585              		.loc 1 300 10 is_stmt 0 view .LVU394
 1586 0010 90F83030 		ldrb	r3, [r0, #48]	@ zero_extendqisi2
 1587              	.LVL163:
 300:./Middlewares/LwIP/src/apps/http/http_client.c ****     if (req->rx_hdrs == NULL) {
 1588              		.loc 1 300 6 view .LVU395
 1589 0014 022B     		cmp	r3, #2
 1590 0016 0BD0     		beq	.L102
 301:./Middlewares/LwIP/src/apps/http/http_client.c ****       req->rx_hdrs = p;
 1591              		.loc 1 301 5 is_stmt 1 view .LVU396
 301:./Middlewares/LwIP/src/apps/http/http_client.c ****       req->rx_hdrs = p;
 1592              		.loc 1 301 12 is_stmt 0 view .LVU397
 1593 0018 4069     		ldr	r0, [r0, #20]
 1594              	.LVL164:
 301:./Middlewares/LwIP/src/apps/http/http_client.c ****       req->rx_hdrs = p;
 1595              		.loc 1 301 8 view .LVU398
 1596 001a 58B3     		cbz	r0, .L117
 304:./Middlewares/LwIP/src/apps/http/http_client.c ****     }
 1597              		.loc 1 304 7 is_stmt 1 view .LVU399
 1598 001c 1146     		mov	r1, r2
 1599              	.LVL165:
 304:./Middlewares/LwIP/src/apps/http/http_client.c ****     }
 1600              		.loc 1 304 7 is_stmt 0 view .LVU400
 1601 001e FFF7FEFF 		bl	pbuf_cat
 1602              	.LVL166:
 1603              	.L104:
 306:./Middlewares/LwIP/src/apps/http/http_client.c ****       u16_t status_str_off;
 1604              		.loc 1 306 5 is_stmt 1 view .LVU401
 306:./Middlewares/LwIP/src/apps/http/http_client.c ****       u16_t status_str_off;
 1605              		.loc 1 306 12 is_stmt 0 view .LVU402
 1606 0022 94F83030 		ldrb	r3, [r4, #48]	@ zero_extendqisi2
 306:./Middlewares/LwIP/src/apps/http/http_client.c ****       u16_t status_str_off;
 1607              		.loc 1 306 8 view .LVU403
 1608 0026 3BB3     		cbz	r3, .L118
 1609              	.L105:
 314:./Middlewares/LwIP/src/apps/http/http_client.c ****       u16_t total_header_len;
 1610              		.loc 1 314 5 is_stmt 1 view .LVU404
 314:./Middlewares/LwIP/src/apps/http/http_client.c ****       u16_t total_header_len;
 1611              		.loc 1 314 12 is_stmt 0 view .LVU405
 1612 0028 94F83030 		ldrb	r3, [r4, #48]	@ zero_extendqisi2
 314:./Middlewares/LwIP/src/apps/http/http_client.c ****       u16_t total_header_len;
 1613              		.loc 1 314 8 view .LVU406
 1614 002c 012B     		cmp	r3, #1
 1615 002e 32D0     		beq	.L119
 1616              	.L102:
 338:./Middlewares/LwIP/src/apps/http/http_client.c ****     req->rx_content_len += p->tot_len;
ARM GAS  /var/folders/yz/w8msd8211qzc60m57tpkzbn80000gn/T//ccvgDrY8.s 			page 46


 1617              		.loc 1 338 3 is_stmt 1 view .LVU407
 338:./Middlewares/LwIP/src/apps/http/http_client.c ****     req->rx_content_len += p->tot_len;
 1618              		.loc 1 338 6 is_stmt 0 view .LVU408
 1619 0030 002D     		cmp	r5, #0
 1620 0032 76D0     		beq	.L113
 338:./Middlewares/LwIP/src/apps/http/http_client.c ****     req->rx_content_len += p->tot_len;
 1621              		.loc 1 338 26 discriminator 1 view .LVU409
 1622 0034 94F83030 		ldrb	r3, [r4, #48]	@ zero_extendqisi2
 338:./Middlewares/LwIP/src/apps/http/http_client.c ****     req->rx_content_len += p->tot_len;
 1623              		.loc 1 338 19 discriminator 1 view .LVU410
 1624 0038 022B     		cmp	r3, #2
 1625 003a 5AD0     		beq	.L120
 348:./Middlewares/LwIP/src/apps/http/http_client.c **** }
 1626              		.loc 1 348 10 view .LVU411
 1627 003c 0020     		movs	r0, #0
 1628              	.LVL167:
 1629              	.L101:
 349:./Middlewares/LwIP/src/apps/http/http_client.c **** 
 1630              		.loc 1 349 1 view .LVU412
 1631 003e 04B0     		add	sp, sp, #16
 1632              	.LCFI35:
 1633              		.cfi_remember_state
 1634              		.cfi_def_cfa_offset 24
 1635              		@ sp needed
 1636 0040 BDE8F081 		pop	{r4, r5, r6, r7, r8, pc}
 1637              	.LVL168:
 1638              	.L116:
 1639              	.LCFI36:
 1640              		.cfi_restore_state
 1641              	.LBB16:
 286:./Middlewares/LwIP/src/apps/http/http_client.c ****     if (req->parse_state != HTTPC_PARSE_RX_DATA) {
 1642              		.loc 1 286 5 is_stmt 1 view .LVU413
 287:./Middlewares/LwIP/src/apps/http/http_client.c ****       /* did not get RX data yet */
 1643              		.loc 1 287 5 view .LVU414
 287:./Middlewares/LwIP/src/apps/http/http_client.c ****       /* did not get RX data yet */
 1644              		.loc 1 287 12 is_stmt 0 view .LVU415
 1645 0044 90F83030 		ldrb	r3, [r0, #48]	@ zero_extendqisi2
 1646              	.LVL169:
 287:./Middlewares/LwIP/src/apps/http/http_client.c ****       /* did not get RX data yet */
 1647              		.loc 1 287 8 view .LVU416
 1648 0048 022B     		cmp	r3, #2
 1649 004a 06D0     		beq	.L121
 289:./Middlewares/LwIP/src/apps/http/http_client.c ****     } else if ((req->hdr_content_len != HTTPC_CONTENT_LEN_INVALID) &&
 1650              		.loc 1 289 14 view .LVU417
 1651 004c 0421     		movs	r1, #4
 1652              	.LVL170:
 1653              	.L100:
 298:./Middlewares/LwIP/src/apps/http/http_client.c ****   }
 1654              		.loc 1 298 5 is_stmt 1 view .LVU418
 298:./Middlewares/LwIP/src/apps/http/http_client.c ****   }
 1655              		.loc 1 298 12 is_stmt 0 view .LVU419
 1656 004e 0023     		movs	r3, #0
 1657 0050 628B     		ldrh	r2, [r4, #26]
 1658 0052 2046     		mov	r0, r4
 1659              	.LVL171:
 298:./Middlewares/LwIP/src/apps/http/http_client.c ****   }
 1660              		.loc 1 298 12 view .LVU420
ARM GAS  /var/folders/yz/w8msd8211qzc60m57tpkzbn80000gn/T//ccvgDrY8.s 			page 47


 1661 0054 FFF7FEFF 		bl	httpc_close
 1662              	.LVL172:
 298:./Middlewares/LwIP/src/apps/http/http_client.c ****   }
 1663              		.loc 1 298 12 view .LVU421
 1664 0058 F1E7     		b	.L101
 1665              	.LVL173:
 1666              	.L121:
 290:./Middlewares/LwIP/src/apps/http/http_client.c ****       (req->hdr_content_len != req->rx_content_len)) {
 1667              		.loc 1 290 12 is_stmt 1 view .LVU422
 290:./Middlewares/LwIP/src/apps/http/http_client.c ****       (req->hdr_content_len != req->rx_content_len)) {
 1668              		.loc 1 290 20 is_stmt 0 view .LVU423
 1669 005a C36A     		ldr	r3, [r0, #44]
 290:./Middlewares/LwIP/src/apps/http/http_client.c ****       (req->hdr_content_len != req->rx_content_len)) {
 1670              		.loc 1 290 15 view .LVU424
 1671 005c B3F1FF3F 		cmp	r3, #-1
 1672 0060 06D0     		beq	.L111
 291:./Middlewares/LwIP/src/apps/http/http_client.c ****       /* header has been received with content length but not all data received */
 1673              		.loc 1 291 35 discriminator 1 view .LVU425
 1674 0062 826A     		ldr	r2, [r0, #40]
 1675              	.LVL174:
 290:./Middlewares/LwIP/src/apps/http/http_client.c ****       (req->hdr_content_len != req->rx_content_len)) {
 1676              		.loc 1 290 68 discriminator 1 view .LVU426
 1677 0064 9342     		cmp	r3, r2
 1678 0066 01D0     		beq	.L122
 293:./Middlewares/LwIP/src/apps/http/http_client.c ****     } else {
 1679              		.loc 1 293 14 view .LVU427
 1680 0068 0921     		movs	r1, #9
 1681              	.LVL175:
 293:./Middlewares/LwIP/src/apps/http/http_client.c ****     } else {
 1682              		.loc 1 293 14 view .LVU428
 1683 006a F0E7     		b	.L100
 1684              	.LVL176:
 1685              	.L122:
 296:./Middlewares/LwIP/src/apps/http/http_client.c ****     }
 1686              		.loc 1 296 14 view .LVU429
 1687 006c 0021     		movs	r1, #0
 1688              	.LVL177:
 296:./Middlewares/LwIP/src/apps/http/http_client.c ****     }
 1689              		.loc 1 296 14 view .LVU430
 1690 006e EEE7     		b	.L100
 1691              	.LVL178:
 1692              	.L111:
 296:./Middlewares/LwIP/src/apps/http/http_client.c ****     }
 1693              		.loc 1 296 14 view .LVU431
 1694 0070 0021     		movs	r1, #0
 1695              	.LVL179:
 296:./Middlewares/LwIP/src/apps/http/http_client.c ****     }
 1696              		.loc 1 296 14 view .LVU432
 1697 0072 ECE7     		b	.L100
 1698              	.LVL180:
 1699              	.L117:
 296:./Middlewares/LwIP/src/apps/http/http_client.c ****     }
 1700              		.loc 1 296 14 view .LVU433
 1701              	.LBE16:
 302:./Middlewares/LwIP/src/apps/http/http_client.c ****     } else {
 1702              		.loc 1 302 7 is_stmt 1 view .LVU434
 302:./Middlewares/LwIP/src/apps/http/http_client.c ****     } else {
ARM GAS  /var/folders/yz/w8msd8211qzc60m57tpkzbn80000gn/T//ccvgDrY8.s 			page 48


 1703              		.loc 1 302 20 is_stmt 0 view .LVU435
 1704 0074 6261     		str	r2, [r4, #20]
 1705 0076 D4E7     		b	.L104
 1706              	.LVL181:
 1707              	.L118:
 1708              	.LBB17:
 307:./Middlewares/LwIP/src/apps/http/http_client.c ****       err_t err = http_parse_response_status(req->rx_hdrs, &req->rx_http_version, &req->rx_status, 
 1709              		.loc 1 307 7 is_stmt 1 view .LVU436
 308:./Middlewares/LwIP/src/apps/http/http_client.c ****       if (err == ERR_OK) {
 1710              		.loc 1 308 7 view .LVU437
 308:./Middlewares/LwIP/src/apps/http/http_client.c ****       if (err == ERR_OK) {
 1711              		.loc 1 308 19 is_stmt 0 view .LVU438
 1712 0078 0DF10E03 		add	r3, sp, #14
 1713 007c 04F11A02 		add	r2, r4, #26
 1714 0080 04F11801 		add	r1, r4, #24
 1715 0084 6069     		ldr	r0, [r4, #20]
 1716 0086 FFF7FEFF 		bl	http_parse_response_status
 1717              	.LVL182:
 309:./Middlewares/LwIP/src/apps/http/http_client.c ****         /* don't care status string */
 1718              		.loc 1 309 7 is_stmt 1 view .LVU439
 309:./Middlewares/LwIP/src/apps/http/http_client.c ****         /* don't care status string */
 1719              		.loc 1 309 10 is_stmt 0 view .LVU440
 1720 008a 0028     		cmp	r0, #0
 1721 008c CCD1     		bne	.L105
 311:./Middlewares/LwIP/src/apps/http/http_client.c ****       }
 1722              		.loc 1 311 9 is_stmt 1 view .LVU441
 311:./Middlewares/LwIP/src/apps/http/http_client.c ****       }
 1723              		.loc 1 311 26 is_stmt 0 view .LVU442
 1724 008e 0123     		movs	r3, #1
 1725 0090 84F83030 		strb	r3, [r4, #48]
 1726 0094 C8E7     		b	.L105
 1727              	.LVL183:
 1728              	.L119:
 311:./Middlewares/LwIP/src/apps/http/http_client.c ****       }
 1729              		.loc 1 311 26 view .LVU443
 1730              	.LBE17:
 1731              	.LBB18:
 315:./Middlewares/LwIP/src/apps/http/http_client.c ****       err_t err = http_wait_headers(req->rx_hdrs, &req->hdr_content_len, &total_header_len);
 1732              		.loc 1 315 7 is_stmt 1 view .LVU444
 316:./Middlewares/LwIP/src/apps/http/http_client.c ****       if (err == ERR_OK) {
 1733              		.loc 1 316 7 view .LVU445
 316:./Middlewares/LwIP/src/apps/http/http_client.c ****       if (err == ERR_OK) {
 1734              		.loc 1 316 19 is_stmt 0 view .LVU446
 1735 0096 0DF10E02 		add	r2, sp, #14
 1736 009a 04F12C01 		add	r1, r4, #44
 1737 009e 6069     		ldr	r0, [r4, #20]
 1738 00a0 FFF7FEFF 		bl	http_wait_headers
 1739              	.LVL184:
 317:./Middlewares/LwIP/src/apps/http/http_client.c ****         struct pbuf *q;
 1740              		.loc 1 317 7 is_stmt 1 view .LVU447
 317:./Middlewares/LwIP/src/apps/http/http_client.c ****         struct pbuf *q;
 1741              		.loc 1 317 10 is_stmt 0 view .LVU448
 1742 00a4 0028     		cmp	r0, #0
 1743 00a6 C3D1     		bne	.L102
 1744              	.LBB19:
 318:./Middlewares/LwIP/src/apps/http/http_client.c ****         /* full header received, send window update for header bytes and call into client callback 
 1745              		.loc 1 318 9 is_stmt 1 view .LVU449
ARM GAS  /var/folders/yz/w8msd8211qzc60m57tpkzbn80000gn/T//ccvgDrY8.s 			page 49


 320:./Middlewares/LwIP/src/apps/http/http_client.c ****         if (req->conn_settings) {
 1746              		.loc 1 320 9 view .LVU450
 1747 00a8 BDF80E10 		ldrh	r1, [sp, #14]
 1748 00ac 3846     		mov	r0, r7
 1749              	.LVL185:
 320:./Middlewares/LwIP/src/apps/http/http_client.c ****         if (req->conn_settings) {
 1750              		.loc 1 320 9 is_stmt 0 view .LVU451
 1751 00ae FFF7FEFF 		bl	tcp_recved
 1752              	.LVL186:
 321:./Middlewares/LwIP/src/apps/http/http_client.c ****           if (req->conn_settings->headers_done_fn) {
 1753              		.loc 1 321 9 is_stmt 1 view .LVU452
 321:./Middlewares/LwIP/src/apps/http/http_client.c ****           if (req->conn_settings->headers_done_fn) {
 1754              		.loc 1 321 16 is_stmt 0 view .LVU453
 1755 00b2 236A     		ldr	r3, [r4, #32]
 321:./Middlewares/LwIP/src/apps/http/http_client.c ****           if (req->conn_settings->headers_done_fn) {
 1756              		.loc 1 321 12 view .LVU454
 1757 00b4 5BB1     		cbz	r3, .L108
 322:./Middlewares/LwIP/src/apps/http/http_client.c ****             err = req->conn_settings->headers_done_fn(req, req->callback_arg, req->rx_hdrs, total_h
 1758              		.loc 1 322 11 is_stmt 1 view .LVU455
 322:./Middlewares/LwIP/src/apps/http/http_client.c ****             err = req->conn_settings->headers_done_fn(req, req->callback_arg, req->rx_hdrs, total_h
 1759              		.loc 1 322 33 is_stmt 0 view .LVU456
 1760 00b6 DD68     		ldr	r5, [r3, #12]
 1761              	.LVL187:
 322:./Middlewares/LwIP/src/apps/http/http_client.c ****             err = req->conn_settings->headers_done_fn(req, req->callback_arg, req->rx_hdrs, total_h
 1762              		.loc 1 322 14 view .LVU457
 1763 00b8 4DB1     		cbz	r5, .L108
 323:./Middlewares/LwIP/src/apps/http/http_client.c ****             if (err != ERR_OK) {
 1764              		.loc 1 323 13 is_stmt 1 view .LVU458
 323:./Middlewares/LwIP/src/apps/http/http_client.c ****             if (err != ERR_OK) {
 1765              		.loc 1 323 19 is_stmt 0 view .LVU459
 1766 00ba E36A     		ldr	r3, [r4, #44]
 1767 00bc 0093     		str	r3, [sp]
 1768 00be BDF80E30 		ldrh	r3, [sp, #14]
 1769 00c2 6269     		ldr	r2, [r4, #20]
 1770 00c4 616A     		ldr	r1, [r4, #36]
 1771 00c6 2046     		mov	r0, r4
 1772 00c8 A847     		blx	r5
 1773              	.LVL188:
 324:./Middlewares/LwIP/src/apps/http/http_client.c ****               return httpc_close(req, HTTPC_RESULT_LOCAL_ABORT, req->rx_status, err);
 1774              		.loc 1 324 13 is_stmt 1 view .LVU460
 324:./Middlewares/LwIP/src/apps/http/http_client.c ****               return httpc_close(req, HTTPC_RESULT_LOCAL_ABORT, req->rx_status, err);
 1775              		.loc 1 324 16 is_stmt 0 view .LVU461
 1776 00ca 0346     		mov	r3, r0
 1777 00cc 58B9     		cbnz	r0, .L123
 1778              	.LVL189:
 1779              	.L108:
 330:./Middlewares/LwIP/src/apps/http/http_client.c ****         p = q;
 1780              		.loc 1 330 9 is_stmt 1 view .LVU462
 330:./Middlewares/LwIP/src/apps/http/http_client.c ****         p = q;
 1781              		.loc 1 330 13 is_stmt 0 view .LVU463
 1782 00ce BDF80E10 		ldrh	r1, [sp, #14]
 1783 00d2 6069     		ldr	r0, [r4, #20]
 1784 00d4 FFF7FEFF 		bl	pbuf_free_header
 1785              	.LVL190:
 1786 00d8 0546     		mov	r5, r0
 1787              	.LVL191:
 331:./Middlewares/LwIP/src/apps/http/http_client.c ****         req->rx_hdrs = NULL;
ARM GAS  /var/folders/yz/w8msd8211qzc60m57tpkzbn80000gn/T//ccvgDrY8.s 			page 50


 1788              		.loc 1 331 9 is_stmt 1 view .LVU464
 332:./Middlewares/LwIP/src/apps/http/http_client.c ****         /* go on with data */
 1789              		.loc 1 332 9 view .LVU465
 332:./Middlewares/LwIP/src/apps/http/http_client.c ****         /* go on with data */
 1790              		.loc 1 332 22 is_stmt 0 view .LVU466
 1791 00da 0023     		movs	r3, #0
 1792 00dc 6361     		str	r3, [r4, #20]
 334:./Middlewares/LwIP/src/apps/http/http_client.c ****       }
 1793              		.loc 1 334 9 is_stmt 1 view .LVU467
 334:./Middlewares/LwIP/src/apps/http/http_client.c ****       }
 1794              		.loc 1 334 26 is_stmt 0 view .LVU468
 1795 00de 0223     		movs	r3, #2
 1796 00e0 84F83030 		strb	r3, [r4, #48]
 334:./Middlewares/LwIP/src/apps/http/http_client.c ****       }
 1797              		.loc 1 334 26 view .LVU469
 1798 00e4 A4E7     		b	.L102
 1799              	.LVL192:
 1800              	.L123:
 325:./Middlewares/LwIP/src/apps/http/http_client.c ****             }
 1801              		.loc 1 325 15 is_stmt 1 view .LVU470
 325:./Middlewares/LwIP/src/apps/http/http_client.c ****             }
 1802              		.loc 1 325 22 is_stmt 0 view .LVU471
 1803 00e6 628B     		ldrh	r2, [r4, #26]
 1804 00e8 0821     		movs	r1, #8
 1805 00ea 2046     		mov	r0, r4
 1806              	.LVL193:
 325:./Middlewares/LwIP/src/apps/http/http_client.c ****             }
 1807              		.loc 1 325 22 view .LVU472
 1808 00ec FFF7FEFF 		bl	httpc_close
 1809              	.LVL194:
 1810 00f0 A5E7     		b	.L101
 1811              	.LVL195:
 1812              	.L120:
 325:./Middlewares/LwIP/src/apps/http/http_client.c ****             }
 1813              		.loc 1 325 22 view .LVU473
 1814              	.LBE19:
 1815              	.LBE18:
 339:./Middlewares/LwIP/src/apps/http/http_client.c ****     if (req->recv_fn != NULL) {
 1816              		.loc 1 339 5 is_stmt 1 view .LVU474
 339:./Middlewares/LwIP/src/apps/http/http_client.c ****     if (req->recv_fn != NULL) {
 1817              		.loc 1 339 29 is_stmt 0 view .LVU475
 1818 00f2 2A89     		ldrh	r2, [r5, #8]
 339:./Middlewares/LwIP/src/apps/http/http_client.c ****     if (req->recv_fn != NULL) {
 1819              		.loc 1 339 25 view .LVU476
 1820 00f4 A36A     		ldr	r3, [r4, #40]
 1821 00f6 1344     		add	r3, r3, r2
 1822 00f8 A362     		str	r3, [r4, #40]
 340:./Middlewares/LwIP/src/apps/http/http_client.c ****       /* directly return here: the connection migth already be aborted from the callback! */
 1823              		.loc 1 340 5 is_stmt 1 view .LVU477
 340:./Middlewares/LwIP/src/apps/http/http_client.c ****       /* directly return here: the connection migth already be aborted from the callback! */
 1824              		.loc 1 340 12 is_stmt 0 view .LVU478
 1825 00fa D4F81C80 		ldr	r8, [r4, #28]
 340:./Middlewares/LwIP/src/apps/http/http_client.c ****       /* directly return here: the connection migth already be aborted from the callback! */
 1826              		.loc 1 340 8 view .LVU479
 1827 00fe B8F1000F 		cmp	r8, #0
 1828 0102 05D0     		beq	.L109
 342:./Middlewares/LwIP/src/apps/http/http_client.c ****     } else {
ARM GAS  /var/folders/yz/w8msd8211qzc60m57tpkzbn80000gn/T//ccvgDrY8.s 			page 51


 1829              		.loc 1 342 7 is_stmt 1 view .LVU480
 342:./Middlewares/LwIP/src/apps/http/http_client.c ****     } else {
 1830              		.loc 1 342 14 is_stmt 0 view .LVU481
 1831 0104 3346     		mov	r3, r6
 1832 0106 2A46     		mov	r2, r5
 1833 0108 3946     		mov	r1, r7
 1834 010a 606A     		ldr	r0, [r4, #36]
 1835 010c C047     		blx	r8
 1836              	.LVL196:
 1837 010e 96E7     		b	.L101
 1838              	.L109:
 344:./Middlewares/LwIP/src/apps/http/http_client.c ****       pbuf_free(p);
 1839              		.loc 1 344 7 is_stmt 1 view .LVU482
 1840 0110 2989     		ldrh	r1, [r5, #8]
 1841 0112 3846     		mov	r0, r7
 1842 0114 FFF7FEFF 		bl	tcp_recved
 1843              	.LVL197:
 345:./Middlewares/LwIP/src/apps/http/http_client.c ****     }
 1844              		.loc 1 345 7 view .LVU483
 1845 0118 2846     		mov	r0, r5
 1846 011a FFF7FEFF 		bl	pbuf_free
 1847              	.LVL198:
 348:./Middlewares/LwIP/src/apps/http/http_client.c **** }
 1848              		.loc 1 348 10 is_stmt 0 view .LVU484
 1849 011e 0020     		movs	r0, #0
 1850 0120 8DE7     		b	.L101
 1851              	.L113:
 348:./Middlewares/LwIP/src/apps/http/http_client.c **** }
 1852              		.loc 1 348 10 view .LVU485
 1853 0122 0020     		movs	r0, #0
 1854 0124 8BE7     		b	.L101
 1855              		.cfi_endproc
 1856              	.LFE29:
 1858              		.section	.text.httpc_tcp_connected,"ax",%progbits
 1859              		.align	1
 1860              		.syntax unified
 1861              		.thumb
 1862              		.thumb_func
 1863              		.fpu fpv5-sp-d16
 1865              	httpc_tcp_connected:
 1866              	.LVL199:
 1867              	.LFB33:
 395:./Middlewares/LwIP/src/apps/http/http_client.c ****   err_t r;
 1868              		.loc 1 395 1 is_stmt 1 view -0
 1869              		.cfi_startproc
 1870              		@ args = 0, pretend = 0, frame = 0
 1871              		@ frame_needed = 0, uses_anonymous_args = 0
 395:./Middlewares/LwIP/src/apps/http/http_client.c ****   err_t r;
 1872              		.loc 1 395 1 is_stmt 0 view .LVU487
 1873 0000 38B5     		push	{r3, r4, r5, lr}
 1874              	.LCFI37:
 1875              		.cfi_def_cfa_offset 16
 1876              		.cfi_offset 3, -16
 1877              		.cfi_offset 4, -12
 1878              		.cfi_offset 5, -8
 1879              		.cfi_offset 14, -4
 1880 0002 0446     		mov	r4, r0
ARM GAS  /var/folders/yz/w8msd8211qzc60m57tpkzbn80000gn/T//ccvgDrY8.s 			page 52


 396:./Middlewares/LwIP/src/apps/http/http_client.c ****   httpc_state_t* req = (httpc_state_t*)arg;
 1881              		.loc 1 396 3 is_stmt 1 view .LVU488
 397:./Middlewares/LwIP/src/apps/http/http_client.c ****   LWIP_UNUSED_ARG(pcb);
 1882              		.loc 1 397 3 view .LVU489
 1883              	.LVL200:
 398:./Middlewares/LwIP/src/apps/http/http_client.c ****   LWIP_UNUSED_ARG(err);
 1884              		.loc 1 398 3 view .LVU490
 399:./Middlewares/LwIP/src/apps/http/http_client.c **** 
 1885              		.loc 1 399 3 view .LVU491
 402:./Middlewares/LwIP/src/apps/http/http_client.c ****   if (r != ERR_OK) {
 1886              		.loc 1 402 3 view .LVU492
 402:./Middlewares/LwIP/src/apps/http/http_client.c ****   if (r != ERR_OK) {
 1887              		.loc 1 402 32 is_stmt 0 view .LVU493
 1888 0004 0169     		ldr	r1, [r0, #16]
 1889              	.LVL201:
 402:./Middlewares/LwIP/src/apps/http/http_client.c ****   if (r != ERR_OK) {
 1890              		.loc 1 402 64 view .LVU494
 1891 0006 4A89     		ldrh	r2, [r1, #10]
 1892              	.LVL202:
 402:./Middlewares/LwIP/src/apps/http/http_client.c ****   if (r != ERR_OK) {
 1893              		.loc 1 402 7 view .LVU495
 1894 0008 013A     		subs	r2, r2, #1
 1895 000a 0123     		movs	r3, #1
 1896 000c 92B2     		uxth	r2, r2
 1897 000e 4968     		ldr	r1, [r1, #4]
 1898 0010 0068     		ldr	r0, [r0]
 1899              	.LVL203:
 402:./Middlewares/LwIP/src/apps/http/http_client.c ****   if (r != ERR_OK) {
 1900              		.loc 1 402 7 view .LVU496
 1901 0012 FFF7FEFF 		bl	tcp_write
 1902              	.LVL204:
 403:./Middlewares/LwIP/src/apps/http/http_client.c ****      /* could not write the single small request -> fail, don't retry */
 1903              		.loc 1 403 3 is_stmt 1 view .LVU497
 403:./Middlewares/LwIP/src/apps/http/http_client.c ****      /* could not write the single small request -> fail, don't retry */
 1904              		.loc 1 403 6 is_stmt 0 view .LVU498
 1905 0016 0546     		mov	r5, r0
 1906 0018 48B9     		cbnz	r0, .L128
 408:./Middlewares/LwIP/src/apps/http/http_client.c ****   req->request = NULL;
 1907              		.loc 1 408 3 is_stmt 1 view .LVU499
 1908 001a 2069     		ldr	r0, [r4, #16]
 1909              	.LVL205:
 408:./Middlewares/LwIP/src/apps/http/http_client.c ****   req->request = NULL;
 1910              		.loc 1 408 3 is_stmt 0 view .LVU500
 1911 001c FFF7FEFF 		bl	pbuf_free
 1912              	.LVL206:
 409:./Middlewares/LwIP/src/apps/http/http_client.c **** 
 1913              		.loc 1 409 3 is_stmt 1 view .LVU501
 409:./Middlewares/LwIP/src/apps/http/http_client.c **** 
 1914              		.loc 1 409 16 is_stmt 0 view .LVU502
 1915 0020 0023     		movs	r3, #0
 1916 0022 2361     		str	r3, [r4, #16]
 411:./Middlewares/LwIP/src/apps/http/http_client.c ****   return ERR_OK;
 1917              		.loc 1 411 3 is_stmt 1 view .LVU503
 1918 0024 2068     		ldr	r0, [r4]
 1919 0026 FFF7FEFF 		bl	tcp_output
 1920              	.LVL207:
 412:./Middlewares/LwIP/src/apps/http/http_client.c **** }
ARM GAS  /var/folders/yz/w8msd8211qzc60m57tpkzbn80000gn/T//ccvgDrY8.s 			page 53


 1921              		.loc 1 412 3 view .LVU504
 1922              	.L126:
 413:./Middlewares/LwIP/src/apps/http/http_client.c **** 
 1923              		.loc 1 413 1 is_stmt 0 view .LVU505
 1924 002a 2846     		mov	r0, r5
 1925 002c 38BD     		pop	{r3, r4, r5, pc}
 1926              	.LVL208:
 1927              	.L128:
 405:./Middlewares/LwIP/src/apps/http/http_client.c ****   }
 1928              		.loc 1 405 6 is_stmt 1 view .LVU506
 405:./Middlewares/LwIP/src/apps/http/http_client.c ****   }
 1929              		.loc 1 405 13 is_stmt 0 view .LVU507
 1930 002e 0346     		mov	r3, r0
 1931 0030 0022     		movs	r2, #0
 1932 0032 0721     		movs	r1, #7
 1933 0034 2046     		mov	r0, r4
 1934              	.LVL209:
 405:./Middlewares/LwIP/src/apps/http/http_client.c ****   }
 1935              		.loc 1 405 13 view .LVU508
 1936 0036 FFF7FEFF 		bl	httpc_close
 1937              	.LVL210:
 1938 003a 0546     		mov	r5, r0
 1939 003c F5E7     		b	.L126
 1940              		.cfi_endproc
 1941              	.LFE33:
 1943              		.section	.text.httpc_get_internal_dns,"ax",%progbits
 1944              		.align	1
 1945              		.syntax unified
 1946              		.thumb
 1947              		.thumb_func
 1948              		.fpu fpv5-sp-d16
 1950              	httpc_get_internal_dns:
 1951              	.LVL211:
 1952              	.LFB35:
 467:./Middlewares/LwIP/src/apps/http/http_client.c ****   err_t err;
 1953              		.loc 1 467 1 is_stmt 1 view -0
 1954              		.cfi_startproc
 1955              		@ args = 0, pretend = 0, frame = 0
 1956              		@ frame_needed = 0, uses_anonymous_args = 0
 467:./Middlewares/LwIP/src/apps/http/http_client.c ****   err_t err;
 1957              		.loc 1 467 1 is_stmt 0 view .LVU510
 1958 0000 70B5     		push	{r4, r5, r6, lr}
 1959              	.LCFI38:
 1960              		.cfi_def_cfa_offset 16
 1961              		.cfi_offset 4, -16
 1962              		.cfi_offset 5, -12
 1963              		.cfi_offset 6, -8
 1964              		.cfi_offset 14, -4
 1965 0002 0C46     		mov	r4, r1
 468:./Middlewares/LwIP/src/apps/http/http_client.c ****   LWIP_ASSERT("req != NULL", req != NULL);
 1966              		.loc 1 468 3 is_stmt 1 view .LVU511
 469:./Middlewares/LwIP/src/apps/http/http_client.c **** 
 1967              		.loc 1 469 3 view .LVU512
 469:./Middlewares/LwIP/src/apps/http/http_client.c **** 
 1968              		.loc 1 469 3 view .LVU513
 1969 0004 0546     		mov	r5, r0
 1970 0006 50B1     		cbz	r0, .L134
ARM GAS  /var/folders/yz/w8msd8211qzc60m57tpkzbn80000gn/T//ccvgDrY8.s 			page 54


 1971              	.LVL212:
 1972              	.L130:
 469:./Middlewares/LwIP/src/apps/http/http_client.c **** 
 1973              		.loc 1 469 3 discriminator 3 view .LVU514
 469:./Middlewares/LwIP/src/apps/http/http_client.c **** 
 1974              		.loc 1 469 3 discriminator 3 view .LVU515
 474:./Middlewares/LwIP/src/apps/http/http_client.c **** #endif
 1975              		.loc 1 474 3 discriminator 3 view .LVU516
 474:./Middlewares/LwIP/src/apps/http/http_client.c **** #endif
 1976              		.loc 1 474 9 is_stmt 0 discriminator 3 view .LVU517
 1977 0008 2E1D     		adds	r6, r5, #4
 1978 000a 3146     		mov	r1, r6
 1979 000c 2046     		mov	r0, r4
 1980 000e FFF7FEFF 		bl	ip4addr_aton
 1981              	.LVL213:
 474:./Middlewares/LwIP/src/apps/http/http_client.c **** #endif
 1982              		.loc 1 474 7 discriminator 3 view .LVU518
 1983 0012 60B1     		cbz	r0, .L132
 1984              	.LVL214:
 477:./Middlewares/LwIP/src/apps/http/http_client.c ****     /* cached or IP-string */
 1985              		.loc 1 477 3 is_stmt 1 view .LVU519
 479:./Middlewares/LwIP/src/apps/http/http_client.c ****   } else if (err == ERR_INPROGRESS) {
 1986              		.loc 1 479 5 view .LVU520
 479:./Middlewares/LwIP/src/apps/http/http_client.c ****   } else if (err == ERR_INPROGRESS) {
 1987              		.loc 1 479 11 is_stmt 0 view .LVU521
 1988 0014 3146     		mov	r1, r6
 1989 0016 2846     		mov	r0, r5
 1990 0018 FFF7FEFF 		bl	httpc_get_internal_addr
 1991              	.LVL215:
 1992              	.L131:
 483:./Middlewares/LwIP/src/apps/http/http_client.c **** }
 1993              		.loc 1 483 3 is_stmt 1 view .LVU522
 484:./Middlewares/LwIP/src/apps/http/http_client.c **** 
 1994              		.loc 1 484 1 is_stmt 0 view .LVU523
 1995 001c 70BD     		pop	{r4, r5, r6, pc}
 1996              	.LVL216:
 1997              	.L134:
 469:./Middlewares/LwIP/src/apps/http/http_client.c **** 
 1998              		.loc 1 469 3 is_stmt 1 discriminator 1 view .LVU524
 469:./Middlewares/LwIP/src/apps/http/http_client.c **** 
 1999              		.loc 1 469 3 discriminator 1 view .LVU525
 2000 001e 054B     		ldr	r3, .L135
 2001 0020 40F2D512 		movw	r2, #469
 2002 0024 0449     		ldr	r1, .L135+4
 2003              	.LVL217:
 469:./Middlewares/LwIP/src/apps/http/http_client.c **** 
 2004              		.loc 1 469 3 is_stmt 0 discriminator 1 view .LVU526
 2005 0026 0548     		ldr	r0, .L135+8
 2006              	.LVL218:
 469:./Middlewares/LwIP/src/apps/http/http_client.c **** 
 2007              		.loc 1 469 3 discriminator 1 view .LVU527
 2008 0028 FFF7FEFF 		bl	printf
 2009              	.LVL219:
 2010 002c ECE7     		b	.L130
 2011              	.L132:
 474:./Middlewares/LwIP/src/apps/http/http_client.c **** #endif
 2012              		.loc 1 474 7 view .LVU528
ARM GAS  /var/folders/yz/w8msd8211qzc60m57tpkzbn80000gn/T//ccvgDrY8.s 			page 55


 2013 002e 6FF00F00 		mvn	r0, #15
 2014 0032 F3E7     		b	.L131
 2015              	.L136:
 2016              		.align	2
 2017              	.L135:
 2018 0034 00000000 		.word	.LC5
 2019 0038 00000000 		.word	.LC13
 2020 003c 44000000 		.word	.LC7
 2021              		.cfi_endproc
 2022              	.LFE35:
 2024              		.section	.rodata.httpc_get_file.str1.4,"aMS",%progbits,1
 2025              		.align	2
 2026              	.LC15:
 2027 0000 696E7661 		.ascii	"invalid parameters\000"
 2027      6C696420 
 2027      70617261 
 2027      6D657465 
 2027      727300
 2028              		.section	.text.httpc_get_file,"ax",%progbits
 2029              		.align	1
 2030              		.global	httpc_get_file
 2031              		.syntax unified
 2032              		.thumb
 2033              		.thumb_func
 2034              		.fpu fpv5-sp-d16
 2036              	httpc_get_file:
 2037              	.LVL220:
 2038              	.LFB40:
 616:./Middlewares/LwIP/src/apps/http/http_client.c **** 
 617:./Middlewares/LwIP/src/apps/http/http_client.c **** /**
 618:./Middlewares/LwIP/src/apps/http/http_client.c ****  * @ingroup httpc 
 619:./Middlewares/LwIP/src/apps/http/http_client.c ****  * HTTP client API: get a file by passing server IP address
 620:./Middlewares/LwIP/src/apps/http/http_client.c ****  *
 621:./Middlewares/LwIP/src/apps/http/http_client.c ****  * @param server_addr IP address of the server to connect
 622:./Middlewares/LwIP/src/apps/http/http_client.c ****  * @param port tcp port of the server
 623:./Middlewares/LwIP/src/apps/http/http_client.c ****  * @param uri uri to get from the server, remember leading "/"!
 624:./Middlewares/LwIP/src/apps/http/http_client.c ****  * @param settings connection settings (callbacks, proxy, etc.)
 625:./Middlewares/LwIP/src/apps/http/http_client.c ****  * @param recv_fn the http body (not the headers) are passed to this callback
 626:./Middlewares/LwIP/src/apps/http/http_client.c ****  * @param callback_arg argument passed to all the callbacks
 627:./Middlewares/LwIP/src/apps/http/http_client.c ****  * @param connection retreives the connection handle (to match in callbacks)
 628:./Middlewares/LwIP/src/apps/http/http_client.c ****  * @return ERR_OK if starting the request succeeds (callback_fn will be called later)
 629:./Middlewares/LwIP/src/apps/http/http_client.c ****  *         or an error code
 630:./Middlewares/LwIP/src/apps/http/http_client.c ****  */
 631:./Middlewares/LwIP/src/apps/http/http_client.c **** err_t
 632:./Middlewares/LwIP/src/apps/http/http_client.c **** httpc_get_file(const ip_addr_t* server_addr, u16_t port, const char* uri, const httpc_connection_t 
 633:./Middlewares/LwIP/src/apps/http/http_client.c ****                altcp_recv_fn recv_fn, void* callback_arg, httpc_state_t **connection)
 634:./Middlewares/LwIP/src/apps/http/http_client.c **** {
 2039              		.loc 1 634 1 is_stmt 1 view -0
 2040              		.cfi_startproc
 2041              		@ args = 12, pretend = 0, frame = 8
 2042              		@ frame_needed = 0, uses_anonymous_args = 0
 2043              		.loc 1 634 1 is_stmt 0 view .LVU530
 2044 0000 70B5     		push	{r4, r5, r6, lr}
 2045              	.LCFI39:
 2046              		.cfi_def_cfa_offset 16
 2047              		.cfi_offset 4, -16
 2048              		.cfi_offset 5, -12
ARM GAS  /var/folders/yz/w8msd8211qzc60m57tpkzbn80000gn/T//ccvgDrY8.s 			page 56


 2049              		.cfi_offset 6, -8
 2050              		.cfi_offset 14, -4
 2051 0002 86B0     		sub	sp, sp, #24
 2052              	.LCFI40:
 2053              		.cfi_def_cfa_offset 40
 2054 0004 1C46     		mov	r4, r3
 2055 0006 0A9B     		ldr	r3, [sp, #40]
 2056              	.LVL221:
 635:./Middlewares/LwIP/src/apps/http/http_client.c ****   err_t err;
 2057              		.loc 1 635 3 is_stmt 1 view .LVU531
 636:./Middlewares/LwIP/src/apps/http/http_client.c ****   httpc_state_t* req;
 2058              		.loc 1 636 3 view .LVU532
 637:./Middlewares/LwIP/src/apps/http/http_client.c **** 
 638:./Middlewares/LwIP/src/apps/http/http_client.c ****   LWIP_ERROR("invalid parameters", (server_addr != NULL) && (uri != NULL) && (recv_fn != NULL), ret
 2059              		.loc 1 638 3 view .LVU533
 2060              		.loc 1 638 3 view .LVU534
 2061 0008 1546     		mov	r5, r2
 2062 000a B2FA82F2 		clz	r2, r2
 2063              	.LVL222:
 2064              		.loc 1 638 3 is_stmt 0 view .LVU535
 2065 000e 5209     		lsrs	r2, r2, #5
 2066 0010 0028     		cmp	r0, #0
 2067 0012 08BF     		it	eq
 2068 0014 0122     		moveq	r2, #1
 2069 0016 EAB9     		cbnz	r2, .L138
 2070 0018 0646     		mov	r6, r0
 2071              		.loc 1 638 3 discriminator 2 view .LVU536
 2072 001a DBB1     		cbz	r3, .L138
 2073              		.loc 1 638 3 is_stmt 1 discriminator 4 view .LVU537
 2074              		.loc 1 638 3 discriminator 4 view .LVU538
 639:./Middlewares/LwIP/src/apps/http/http_client.c **** 
 640:./Middlewares/LwIP/src/apps/http/http_client.c ****   err = httpc_init_connection_addr(&req, settings, server_addr, port,
 2075              		.loc 1 640 3 discriminator 4 view .LVU539
 2076              		.loc 1 640 9 is_stmt 0 discriminator 4 view .LVU540
 2077 001c 0B9A     		ldr	r2, [sp, #44]
 2078 001e 0292     		str	r2, [sp, #8]
 2079 0020 0193     		str	r3, [sp, #4]
 2080 0022 0095     		str	r5, [sp]
 2081 0024 0B46     		mov	r3, r1
 2082 0026 0246     		mov	r2, r0
 2083 0028 2146     		mov	r1, r4
 2084              	.LVL223:
 2085              		.loc 1 640 9 discriminator 4 view .LVU541
 2086 002a 05A8     		add	r0, sp, #20
 2087              	.LVL224:
 2088              		.loc 1 640 9 discriminator 4 view .LVU542
 2089 002c FFF7FEFF 		bl	httpc_init_connection_addr
 2090              	.LVL225:
 641:./Middlewares/LwIP/src/apps/http/http_client.c ****     uri, recv_fn, callback_arg);
 642:./Middlewares/LwIP/src/apps/http/http_client.c ****   if (err != ERR_OK) {
 2091              		.loc 1 642 3 is_stmt 1 discriminator 4 view .LVU543
 2092              		.loc 1 642 6 is_stmt 0 discriminator 4 view .LVU544
 2093 0030 0546     		mov	r5, r0
 2094              	.LVL226:
 2095              		.loc 1 642 6 discriminator 4 view .LVU545
 2096 0032 60B9     		cbnz	r0, .L140
 643:./Middlewares/LwIP/src/apps/http/http_client.c ****     return err;
ARM GAS  /var/folders/yz/w8msd8211qzc60m57tpkzbn80000gn/T//ccvgDrY8.s 			page 57


 644:./Middlewares/LwIP/src/apps/http/http_client.c ****   }
 645:./Middlewares/LwIP/src/apps/http/http_client.c **** 
 646:./Middlewares/LwIP/src/apps/http/http_client.c ****   if (settings->use_proxy) {
 2097              		.loc 1 646 3 is_stmt 1 view .LVU546
 2098              		.loc 1 646 15 is_stmt 0 view .LVU547
 2099 0034 A379     		ldrb	r3, [r4, #6]	@ zero_extendqisi2
 2100              		.loc 1 646 6 view .LVU548
 2101 0036 BBB1     		cbz	r3, .L141
 647:./Middlewares/LwIP/src/apps/http/http_client.c ****     err = httpc_get_internal_addr(req, &settings->proxy_addr);
 2102              		.loc 1 647 5 is_stmt 1 view .LVU549
 2103              		.loc 1 647 11 is_stmt 0 view .LVU550
 2104 0038 2146     		mov	r1, r4
 2105 003a 0598     		ldr	r0, [sp, #20]
 2106              	.LVL227:
 2107              		.loc 1 647 11 view .LVU551
 2108 003c FFF7FEFF 		bl	httpc_get_internal_addr
 2109              	.LVL228:
 2110 0040 0546     		mov	r5, r0
 2111              	.LVL229:
 2112              	.L142:
 648:./Middlewares/LwIP/src/apps/http/http_client.c ****   } else {
 649:./Middlewares/LwIP/src/apps/http/http_client.c ****     err = httpc_get_internal_addr(req, server_addr);
 650:./Middlewares/LwIP/src/apps/http/http_client.c ****   }
 651:./Middlewares/LwIP/src/apps/http/http_client.c ****   if(err != ERR_OK) {
 2113              		.loc 1 651 3 is_stmt 1 view .LVU552
 2114              		.loc 1 651 5 is_stmt 0 view .LVU553
 2115 0042 BDB9     		cbnz	r5, .L145
 652:./Middlewares/LwIP/src/apps/http/http_client.c ****     httpc_free_state(req);
 653:./Middlewares/LwIP/src/apps/http/http_client.c ****     return err;
 654:./Middlewares/LwIP/src/apps/http/http_client.c ****   }
 655:./Middlewares/LwIP/src/apps/http/http_client.c **** 
 656:./Middlewares/LwIP/src/apps/http/http_client.c ****   if (connection != NULL) {
 2116              		.loc 1 656 3 is_stmt 1 view .LVU554
 2117              		.loc 1 656 6 is_stmt 0 view .LVU555
 2118 0044 0C9B     		ldr	r3, [sp, #48]
 2119 0046 13B1     		cbz	r3, .L140
 657:./Middlewares/LwIP/src/apps/http/http_client.c ****     *connection = req;
 2120              		.loc 1 657 5 is_stmt 1 view .LVU556
 2121              		.loc 1 657 17 is_stmt 0 view .LVU557
 2122 0048 059B     		ldr	r3, [sp, #20]
 2123 004a 0C9A     		ldr	r2, [sp, #48]
 2124 004c 1360     		str	r3, [r2]
 2125              	.LVL230:
 2126              	.L140:
 658:./Middlewares/LwIP/src/apps/http/http_client.c ****   }
 659:./Middlewares/LwIP/src/apps/http/http_client.c ****   return ERR_OK;
 660:./Middlewares/LwIP/src/apps/http/http_client.c **** }
 2127              		.loc 1 660 1 view .LVU558
 2128 004e 2846     		mov	r0, r5
 2129 0050 06B0     		add	sp, sp, #24
 2130              	.LCFI41:
 2131              		.cfi_remember_state
 2132              		.cfi_def_cfa_offset 16
 2133              		@ sp needed
 2134 0052 70BD     		pop	{r4, r5, r6, pc}
 2135              	.LVL231:
 2136              	.L138:
ARM GAS  /var/folders/yz/w8msd8211qzc60m57tpkzbn80000gn/T//ccvgDrY8.s 			page 58


 2137              	.LCFI42:
 2138              		.cfi_restore_state
 638:./Middlewares/LwIP/src/apps/http/http_client.c **** 
 2139              		.loc 1 638 3 is_stmt 1 discriminator 3 view .LVU559
 638:./Middlewares/LwIP/src/apps/http/http_client.c **** 
 2140              		.loc 1 638 3 discriminator 3 view .LVU560
 2141 0054 094B     		ldr	r3, .L146
 2142 0056 40F27E22 		movw	r2, #638
 2143 005a 0949     		ldr	r1, .L146+4
 2144              	.LVL232:
 638:./Middlewares/LwIP/src/apps/http/http_client.c **** 
 2145              		.loc 1 638 3 is_stmt 0 discriminator 3 view .LVU561
 2146 005c 0948     		ldr	r0, .L146+8
 2147              	.LVL233:
 638:./Middlewares/LwIP/src/apps/http/http_client.c **** 
 2148              		.loc 1 638 3 discriminator 3 view .LVU562
 2149 005e FFF7FEFF 		bl	printf
 2150              	.LVL234:
 638:./Middlewares/LwIP/src/apps/http/http_client.c **** 
 2151              		.loc 1 638 3 is_stmt 1 discriminator 3 view .LVU563
 638:./Middlewares/LwIP/src/apps/http/http_client.c **** 
 2152              		.loc 1 638 3 discriminator 3 view .LVU564
 2153 0062 6FF00F05 		mvn	r5, #15
 2154              	.LVL235:
 638:./Middlewares/LwIP/src/apps/http/http_client.c **** 
 2155              		.loc 1 638 3 is_stmt 0 discriminator 3 view .LVU565
 2156 0066 F2E7     		b	.L140
 2157              	.LVL236:
 2158              	.L141:
 649:./Middlewares/LwIP/src/apps/http/http_client.c ****   }
 2159              		.loc 1 649 5 is_stmt 1 view .LVU566
 649:./Middlewares/LwIP/src/apps/http/http_client.c ****   }
 2160              		.loc 1 649 11 is_stmt 0 view .LVU567
 2161 0068 3146     		mov	r1, r6
 2162 006a 0598     		ldr	r0, [sp, #20]
 2163              	.LVL237:
 649:./Middlewares/LwIP/src/apps/http/http_client.c ****   }
 2164              		.loc 1 649 11 view .LVU568
 2165 006c FFF7FEFF 		bl	httpc_get_internal_addr
 2166              	.LVL238:
 2167 0070 0546     		mov	r5, r0
 2168              	.LVL239:
 649:./Middlewares/LwIP/src/apps/http/http_client.c ****   }
 2169              		.loc 1 649 11 view .LVU569
 2170 0072 E6E7     		b	.L142
 2171              	.L145:
 652:./Middlewares/LwIP/src/apps/http/http_client.c ****     return err;
 2172              		.loc 1 652 5 is_stmt 1 view .LVU570
 2173 0074 0598     		ldr	r0, [sp, #20]
 2174 0076 FFF7FEFF 		bl	httpc_free_state
 2175              	.LVL240:
 653:./Middlewares/LwIP/src/apps/http/http_client.c ****   }
 2176              		.loc 1 653 5 view .LVU571
 653:./Middlewares/LwIP/src/apps/http/http_client.c ****   }
 2177              		.loc 1 653 12 is_stmt 0 view .LVU572
 2178 007a E8E7     		b	.L140
 2179              	.L147:
ARM GAS  /var/folders/yz/w8msd8211qzc60m57tpkzbn80000gn/T//ccvgDrY8.s 			page 59


 2180              		.align	2
 2181              	.L146:
 2182 007c 00000000 		.word	.LC5
 2183 0080 00000000 		.word	.LC15
 2184 0084 44000000 		.word	.LC7
 2185              		.cfi_endproc
 2186              	.LFE40:
 2188              		.section	.text.httpc_get_file_dns,"ax",%progbits
 2189              		.align	1
 2190              		.global	httpc_get_file_dns
 2191              		.syntax unified
 2192              		.thumb
 2193              		.thumb_func
 2194              		.fpu fpv5-sp-d16
 2196              	httpc_get_file_dns:
 2197              	.LVL241:
 2198              	.LFB41:
 661:./Middlewares/LwIP/src/apps/http/http_client.c **** 
 662:./Middlewares/LwIP/src/apps/http/http_client.c **** /**
 663:./Middlewares/LwIP/src/apps/http/http_client.c ****  * @ingroup httpc 
 664:./Middlewares/LwIP/src/apps/http/http_client.c ****  * HTTP client API: get a file by passing server name as string (DNS name or IP address string)
 665:./Middlewares/LwIP/src/apps/http/http_client.c ****  *
 666:./Middlewares/LwIP/src/apps/http/http_client.c ****  * @param server_name server name as string (DNS name or IP address string)
 667:./Middlewares/LwIP/src/apps/http/http_client.c ****  * @param port tcp port of the server
 668:./Middlewares/LwIP/src/apps/http/http_client.c ****  * @param uri uri to get from the server, remember leading "/"!
 669:./Middlewares/LwIP/src/apps/http/http_client.c ****  * @param settings connection settings (callbacks, proxy, etc.)
 670:./Middlewares/LwIP/src/apps/http/http_client.c ****  * @param recv_fn the http body (not the headers) are passed to this callback
 671:./Middlewares/LwIP/src/apps/http/http_client.c ****  * @param callback_arg argument passed to all the callbacks
 672:./Middlewares/LwIP/src/apps/http/http_client.c ****  * @param connection retreives the connection handle (to match in callbacks)
 673:./Middlewares/LwIP/src/apps/http/http_client.c ****  * @return ERR_OK if starting the request succeeds (callback_fn will be called later)
 674:./Middlewares/LwIP/src/apps/http/http_client.c ****  *         or an error code
 675:./Middlewares/LwIP/src/apps/http/http_client.c ****  */
 676:./Middlewares/LwIP/src/apps/http/http_client.c **** err_t
 677:./Middlewares/LwIP/src/apps/http/http_client.c **** httpc_get_file_dns(const char* server_name, u16_t port, const char* uri, const httpc_connection_t *
 678:./Middlewares/LwIP/src/apps/http/http_client.c ****                    altcp_recv_fn recv_fn, void* callback_arg, httpc_state_t **connection)
 679:./Middlewares/LwIP/src/apps/http/http_client.c **** {
 2199              		.loc 1 679 1 is_stmt 1 view -0
 2200              		.cfi_startproc
 2201              		@ args = 12, pretend = 0, frame = 8
 2202              		@ frame_needed = 0, uses_anonymous_args = 0
 2203              		.loc 1 679 1 is_stmt 0 view .LVU574
 2204 0000 70B5     		push	{r4, r5, r6, lr}
 2205              	.LCFI43:
 2206              		.cfi_def_cfa_offset 16
 2207              		.cfi_offset 4, -16
 2208              		.cfi_offset 5, -12
 2209              		.cfi_offset 6, -8
 2210              		.cfi_offset 14, -4
 2211 0002 86B0     		sub	sp, sp, #24
 2212              	.LCFI44:
 2213              		.cfi_def_cfa_offset 40
 2214 0004 1C46     		mov	r4, r3
 2215 0006 0A9B     		ldr	r3, [sp, #40]
 2216              	.LVL242:
 680:./Middlewares/LwIP/src/apps/http/http_client.c ****   err_t err;
 2217              		.loc 1 680 3 is_stmt 1 view .LVU575
 681:./Middlewares/LwIP/src/apps/http/http_client.c ****   httpc_state_t* req;
ARM GAS  /var/folders/yz/w8msd8211qzc60m57tpkzbn80000gn/T//ccvgDrY8.s 			page 60


 2218              		.loc 1 681 3 view .LVU576
 682:./Middlewares/LwIP/src/apps/http/http_client.c **** 
 683:./Middlewares/LwIP/src/apps/http/http_client.c ****   LWIP_ERROR("invalid parameters", (server_name != NULL) && (uri != NULL) && (recv_fn != NULL), ret
 2219              		.loc 1 683 3 view .LVU577
 2220              		.loc 1 683 3 view .LVU578
 2221 0008 1546     		mov	r5, r2
 2222 000a B2FA82F2 		clz	r2, r2
 2223              	.LVL243:
 2224              		.loc 1 683 3 is_stmt 0 view .LVU579
 2225 000e 5209     		lsrs	r2, r2, #5
 2226 0010 0028     		cmp	r0, #0
 2227 0012 08BF     		it	eq
 2228 0014 0122     		moveq	r2, #1
 2229 0016 EAB9     		cbnz	r2, .L149
 2230 0018 0646     		mov	r6, r0
 2231              		.loc 1 683 3 discriminator 2 view .LVU580
 2232 001a DBB1     		cbz	r3, .L149
 2233              		.loc 1 683 3 is_stmt 1 discriminator 4 view .LVU581
 2234              		.loc 1 683 3 discriminator 4 view .LVU582
 684:./Middlewares/LwIP/src/apps/http/http_client.c **** 
 685:./Middlewares/LwIP/src/apps/http/http_client.c ****   err = httpc_init_connection(&req, settings, server_name, port, uri, recv_fn, callback_arg);
 2235              		.loc 1 685 3 discriminator 4 view .LVU583
 2236              		.loc 1 685 9 is_stmt 0 discriminator 4 view .LVU584
 2237 001c 0B9A     		ldr	r2, [sp, #44]
 2238 001e 0292     		str	r2, [sp, #8]
 2239 0020 0193     		str	r3, [sp, #4]
 2240 0022 0095     		str	r5, [sp]
 2241 0024 0B46     		mov	r3, r1
 2242 0026 0246     		mov	r2, r0
 2243 0028 2146     		mov	r1, r4
 2244              	.LVL244:
 2245              		.loc 1 685 9 discriminator 4 view .LVU585
 2246 002a 05A8     		add	r0, sp, #20
 2247              	.LVL245:
 2248              		.loc 1 685 9 discriminator 4 view .LVU586
 2249 002c FFF7FEFF 		bl	httpc_init_connection
 2250              	.LVL246:
 686:./Middlewares/LwIP/src/apps/http/http_client.c ****   if (err != ERR_OK) {
 2251              		.loc 1 686 3 is_stmt 1 discriminator 4 view .LVU587
 2252              		.loc 1 686 6 is_stmt 0 discriminator 4 view .LVU588
 2253 0030 0546     		mov	r5, r0
 2254              	.LVL247:
 2255              		.loc 1 686 6 discriminator 4 view .LVU589
 2256 0032 60B9     		cbnz	r0, .L151
 687:./Middlewares/LwIP/src/apps/http/http_client.c ****     return err;
 688:./Middlewares/LwIP/src/apps/http/http_client.c ****   }
 689:./Middlewares/LwIP/src/apps/http/http_client.c **** 
 690:./Middlewares/LwIP/src/apps/http/http_client.c ****   if (settings->use_proxy) {
 2257              		.loc 1 690 3 is_stmt 1 view .LVU590
 2258              		.loc 1 690 15 is_stmt 0 view .LVU591
 2259 0034 A379     		ldrb	r3, [r4, #6]	@ zero_extendqisi2
 2260              		.loc 1 690 6 view .LVU592
 2261 0036 BBB1     		cbz	r3, .L152
 691:./Middlewares/LwIP/src/apps/http/http_client.c ****     err = httpc_get_internal_addr(req, &settings->proxy_addr);
 2262              		.loc 1 691 5 is_stmt 1 view .LVU593
 2263              		.loc 1 691 11 is_stmt 0 view .LVU594
 2264 0038 2146     		mov	r1, r4
ARM GAS  /var/folders/yz/w8msd8211qzc60m57tpkzbn80000gn/T//ccvgDrY8.s 			page 61


 2265 003a 0598     		ldr	r0, [sp, #20]
 2266              	.LVL248:
 2267              		.loc 1 691 11 view .LVU595
 2268 003c FFF7FEFF 		bl	httpc_get_internal_addr
 2269              	.LVL249:
 2270 0040 0546     		mov	r5, r0
 2271              	.LVL250:
 2272              	.L153:
 692:./Middlewares/LwIP/src/apps/http/http_client.c ****   } else {
 693:./Middlewares/LwIP/src/apps/http/http_client.c ****     err = httpc_get_internal_dns(req, server_name);
 694:./Middlewares/LwIP/src/apps/http/http_client.c ****   }
 695:./Middlewares/LwIP/src/apps/http/http_client.c ****   if(err != ERR_OK) {
 2273              		.loc 1 695 3 is_stmt 1 view .LVU596
 2274              		.loc 1 695 5 is_stmt 0 view .LVU597
 2275 0042 BDB9     		cbnz	r5, .L156
 696:./Middlewares/LwIP/src/apps/http/http_client.c ****     httpc_free_state(req);
 697:./Middlewares/LwIP/src/apps/http/http_client.c ****     return err;
 698:./Middlewares/LwIP/src/apps/http/http_client.c ****   }
 699:./Middlewares/LwIP/src/apps/http/http_client.c **** 
 700:./Middlewares/LwIP/src/apps/http/http_client.c ****   if (connection != NULL) {
 2276              		.loc 1 700 3 is_stmt 1 view .LVU598
 2277              		.loc 1 700 6 is_stmt 0 view .LVU599
 2278 0044 0C9B     		ldr	r3, [sp, #48]
 2279 0046 13B1     		cbz	r3, .L151
 701:./Middlewares/LwIP/src/apps/http/http_client.c ****     *connection = req;
 2280              		.loc 1 701 5 is_stmt 1 view .LVU600
 2281              		.loc 1 701 17 is_stmt 0 view .LVU601
 2282 0048 059B     		ldr	r3, [sp, #20]
 2283 004a 0C9A     		ldr	r2, [sp, #48]
 2284 004c 1360     		str	r3, [r2]
 2285              	.LVL251:
 2286              	.L151:
 702:./Middlewares/LwIP/src/apps/http/http_client.c ****   }
 703:./Middlewares/LwIP/src/apps/http/http_client.c ****   return ERR_OK;
 704:./Middlewares/LwIP/src/apps/http/http_client.c **** }
 2287              		.loc 1 704 1 view .LVU602
 2288 004e 2846     		mov	r0, r5
 2289 0050 06B0     		add	sp, sp, #24
 2290              	.LCFI45:
 2291              		.cfi_remember_state
 2292              		.cfi_def_cfa_offset 16
 2293              		@ sp needed
 2294 0052 70BD     		pop	{r4, r5, r6, pc}
 2295              	.LVL252:
 2296              	.L149:
 2297              	.LCFI46:
 2298              		.cfi_restore_state
 683:./Middlewares/LwIP/src/apps/http/http_client.c **** 
 2299              		.loc 1 683 3 is_stmt 1 discriminator 3 view .LVU603
 683:./Middlewares/LwIP/src/apps/http/http_client.c **** 
 2300              		.loc 1 683 3 discriminator 3 view .LVU604
 2301 0054 094B     		ldr	r3, .L157
 2302 0056 40F2AB22 		movw	r2, #683
 2303 005a 0949     		ldr	r1, .L157+4
 2304              	.LVL253:
 683:./Middlewares/LwIP/src/apps/http/http_client.c **** 
 2305              		.loc 1 683 3 is_stmt 0 discriminator 3 view .LVU605
ARM GAS  /var/folders/yz/w8msd8211qzc60m57tpkzbn80000gn/T//ccvgDrY8.s 			page 62


 2306 005c 0948     		ldr	r0, .L157+8
 2307              	.LVL254:
 683:./Middlewares/LwIP/src/apps/http/http_client.c **** 
 2308              		.loc 1 683 3 discriminator 3 view .LVU606
 2309 005e FFF7FEFF 		bl	printf
 2310              	.LVL255:
 683:./Middlewares/LwIP/src/apps/http/http_client.c **** 
 2311              		.loc 1 683 3 is_stmt 1 discriminator 3 view .LVU607
 683:./Middlewares/LwIP/src/apps/http/http_client.c **** 
 2312              		.loc 1 683 3 discriminator 3 view .LVU608
 2313 0062 6FF00F05 		mvn	r5, #15
 2314              	.LVL256:
 683:./Middlewares/LwIP/src/apps/http/http_client.c **** 
 2315              		.loc 1 683 3 is_stmt 0 discriminator 3 view .LVU609
 2316 0066 F2E7     		b	.L151
 2317              	.LVL257:
 2318              	.L152:
 693:./Middlewares/LwIP/src/apps/http/http_client.c ****   }
 2319              		.loc 1 693 5 is_stmt 1 view .LVU610
 693:./Middlewares/LwIP/src/apps/http/http_client.c ****   }
 2320              		.loc 1 693 11 is_stmt 0 view .LVU611
 2321 0068 3146     		mov	r1, r6
 2322 006a 0598     		ldr	r0, [sp, #20]
 2323              	.LVL258:
 693:./Middlewares/LwIP/src/apps/http/http_client.c ****   }
 2324              		.loc 1 693 11 view .LVU612
 2325 006c FFF7FEFF 		bl	httpc_get_internal_dns
 2326              	.LVL259:
 2327 0070 0546     		mov	r5, r0
 2328              	.LVL260:
 693:./Middlewares/LwIP/src/apps/http/http_client.c ****   }
 2329              		.loc 1 693 11 view .LVU613
 2330 0072 E6E7     		b	.L153
 2331              	.L156:
 696:./Middlewares/LwIP/src/apps/http/http_client.c ****     return err;
 2332              		.loc 1 696 5 is_stmt 1 view .LVU614
 2333 0074 0598     		ldr	r0, [sp, #20]
 2334 0076 FFF7FEFF 		bl	httpc_free_state
 2335              	.LVL261:
 697:./Middlewares/LwIP/src/apps/http/http_client.c ****   }
 2336              		.loc 1 697 5 view .LVU615
 697:./Middlewares/LwIP/src/apps/http/http_client.c ****   }
 2337              		.loc 1 697 12 is_stmt 0 view .LVU616
 2338 007a E8E7     		b	.L151
 2339              	.L158:
 2340              		.align	2
 2341              	.L157:
 2342 007c 00000000 		.word	.LC5
 2343 0080 00000000 		.word	.LC15
 2344 0084 44000000 		.word	.LC7
 2345              		.cfi_endproc
 2346              	.LFE41:
 2348              		.text
 2349              	.Letext0:
 2350              		.file 2 "/usr/local/Cellar/arm-none-eabi-gcc/9-2019-q4-major/gcc/lib/gcc/arm-none-eabi/9.2.1/inclu
 2351              		.file 3 "/usr/local/Cellar/arm-none-eabi-gcc/9-2019-q4-major/gcc/arm-none-eabi/include/machine/_de
 2352              		.file 4 "/usr/local/Cellar/arm-none-eabi-gcc/9-2019-q4-major/gcc/arm-none-eabi/include/sys/lock.h"
ARM GAS  /var/folders/yz/w8msd8211qzc60m57tpkzbn80000gn/T//ccvgDrY8.s 			page 63


 2353              		.file 5 "/usr/local/Cellar/arm-none-eabi-gcc/9-2019-q4-major/gcc/arm-none-eabi/include/sys/_types.
 2354              		.file 6 "/usr/local/Cellar/arm-none-eabi-gcc/9-2019-q4-major/gcc/arm-none-eabi/include/sys/reent.h
 2355              		.file 7 "/usr/local/Cellar/arm-none-eabi-gcc/9-2019-q4-major/gcc/arm-none-eabi/include/stdlib.h"
 2356              		.file 8 "/usr/local/Cellar/arm-none-eabi-gcc/9-2019-q4-major/gcc/arm-none-eabi/include/sys/_stdint
 2357              		.file 9 "/usr/local/Cellar/arm-none-eabi-gcc/9-2019-q4-major/gcc/arm-none-eabi/include/time.h"
 2358              		.file 10 "Middlewares/LwIP/src/include/lwip/arch.h"
 2359              		.file 11 "/usr/local/Cellar/arm-none-eabi-gcc/9-2019-q4-major/gcc/arm-none-eabi/include/ctype.h"
 2360              		.file 12 "Middlewares/LwIP/src/include/lwip/ip4_addr.h"
 2361              		.file 13 "Middlewares/LwIP/src/include/lwip/ip_addr.h"
 2362              		.file 14 "Middlewares/LwIP/src/include/lwip/err.h"
 2363              		.file 15 "Middlewares/LwIP/src/include/lwip/tcpbase.h"
 2364              		.file 16 "Middlewares/LwIP/src/include/lwip/mem.h"
 2365              		.file 17 "Middlewares/LwIP/src/include/lwip/pbuf.h"
 2366              		.file 18 "Middlewares/LwIP/src/include/lwip/priv/memp_priv.h"
 2367              		.file 19 "Middlewares/LwIP/src/include/lwip/memp.h"
 2368              		.file 20 "Middlewares/LwIP/src/include/lwip/netif.h"
 2369              		.file 21 "Middlewares/LwIP/src/include/lwip/prot/ip4.h"
 2370              		.file 22 "Middlewares/LwIP/src/include/lwip/ip.h"
 2371              		.file 23 "Middlewares/LwIP/src/include/lwip/tcp.h"
 2372              		.file 24 "Middlewares/LwIP/src/include/lwip/prot/iana.h"
 2373              		.file 25 "Middlewares/LwIP/src/include/lwip/apps/http_client.h"
 2374              		.file 26 "/usr/local/Cellar/arm-none-eabi-gcc/9-2019-q4-major/gcc/arm-none-eabi/include/stdio.h"
 2375              		.file 27 "<built-in>"
ARM GAS  /var/folders/yz/w8msd8211qzc60m57tpkzbn80000gn/T//ccvgDrY8.s 			page 64

