ARM GAS  /var/folders/yz/w8msd8211qzc60m57tpkzbn80000gn/T//ccF428gJ.s 			page 1


   1              		.cpu cortex-m7
   2              		.eabi_attribute 27, 1
   3              		.eabi_attribute 28, 1
   4              		.eabi_attribute 20, 1
   5              		.eabi_attribute 21, 1
   6              		.eabi_attribute 23, 3
   7              		.eabi_attribute 24, 1
   8              		.eabi_attribute 25, 1
   9              		.eabi_attribute 26, 1
  10              		.eabi_attribute 30, 1
  11              		.eabi_attribute 34, 1
  12              		.eabi_attribute 18, 4
  13              		.file	"httpserver-netconn.c"
  14              		.text
  15              	.Ltext0:
  16              		.cfi_sections	.debug_frame
  17              		.section	.rodata.http_server_netconn_init.str1.4,"aMS",%progbits,1
  18              		.align	2
  19              	.LC0:
  20 0000 48545450 		.ascii	"HTTP\000"
  20      00
  21              		.section	.text.http_server_netconn_init,"ax",%progbits
  22              		.align	1
  23              		.global	http_server_netconn_init
  24              		.arch armv7e-m
  25              		.syntax unified
  26              		.thumb
  27              		.thumb_func
  28              		.fpu fpv5-sp-d16
  30              	http_server_netconn_init:
  31              	.LFB32:
  32              		.file 1 "Src/httpserver-netconn.c"
   1:Src/httpserver-netconn.c **** /**
   2:Src/httpserver-netconn.c ****   ******************************************************************************
   3:Src/httpserver-netconn.c ****   * @file    LwIP/LwIP_HTTP_Server_Netconn_RTOS/Src/httpser-netconn.c 
   4:Src/httpserver-netconn.c ****   * @author  MCD Application Team
   5:Src/httpserver-netconn.c ****   * @brief   Basic http server implementation using LwIP netconn API  
   6:Src/httpserver-netconn.c ****   ******************************************************************************
   7:Src/httpserver-netconn.c ****   * @attention
   8:Src/httpserver-netconn.c ****   *
   9:Src/httpserver-netconn.c ****   * <h2><center>&copy; Copyright (c) 2016 STMicroelectronics International N.V. 
  10:Src/httpserver-netconn.c ****   * All rights reserved.</center></h2>
  11:Src/httpserver-netconn.c ****   *
  12:Src/httpserver-netconn.c ****   * Redistribution and use in source and binary forms, with or without 
  13:Src/httpserver-netconn.c ****   * modification, are permitted, provided that the following conditions are met:
  14:Src/httpserver-netconn.c ****   *
  15:Src/httpserver-netconn.c ****   * 1. Redistribution of source code must retain the above copyright notice, 
  16:Src/httpserver-netconn.c ****   *    this list of conditions and the following disclaimer.
  17:Src/httpserver-netconn.c ****   * 2. Redistributions in binary form must reproduce the above copyright notice,
  18:Src/httpserver-netconn.c ****   *    this list of conditions and the following disclaimer in the documentation
  19:Src/httpserver-netconn.c ****   *    and/or other materials provided with the distribution.
  20:Src/httpserver-netconn.c ****   * 3. Neither the name of STMicroelectronics nor the names of other 
  21:Src/httpserver-netconn.c ****   *    contributors to this software may be used to endorse or promote products 
  22:Src/httpserver-netconn.c ****   *    derived from this software without specific written permission.
  23:Src/httpserver-netconn.c ****   * 4. This software, including modifications and/or derivative works of this 
  24:Src/httpserver-netconn.c ****   *    software, must execute solely and exclusively on microcontroller or
  25:Src/httpserver-netconn.c ****   *    microprocessor devices manufactured by or for STMicroelectronics.
ARM GAS  /var/folders/yz/w8msd8211qzc60m57tpkzbn80000gn/T//ccF428gJ.s 			page 2


  26:Src/httpserver-netconn.c ****   * 5. Redistribution and use of this software other than as permitted under 
  27:Src/httpserver-netconn.c ****   *    this license is void and will automatically terminate your rights under 
  28:Src/httpserver-netconn.c ****   *    this license. 
  29:Src/httpserver-netconn.c ****   *
  30:Src/httpserver-netconn.c ****   * THIS SOFTWARE IS PROVIDED BY STMICROELECTRONICS AND CONTRIBUTORS "AS IS" 
  31:Src/httpserver-netconn.c ****   * AND ANY EXPRESS, IMPLIED OR STATUTORY WARRANTIES, INCLUDING, BUT NOT 
  32:Src/httpserver-netconn.c ****   * LIMITED TO, THE IMPLIED WARRANTIES OF MERCHANTABILITY, FITNESS FOR A 
  33:Src/httpserver-netconn.c ****   * PARTICULAR PURPOSE AND NON-INFRINGEMENT OF THIRD PARTY INTELLECTUAL PROPERTY
  34:Src/httpserver-netconn.c ****   * RIGHTS ARE DISCLAIMED TO THE FULLEST EXTENT PERMITTED BY LAW. IN NO EVENT 
  35:Src/httpserver-netconn.c ****   * SHALL STMICROELECTRONICS OR CONTRIBUTORS BE LIABLE FOR ANY DIRECT, INDIRECT,
  36:Src/httpserver-netconn.c ****   * INCIDENTAL, SPECIAL, EXEMPLARY, OR CONSEQUENTIAL DAMAGES (INCLUDING, BUT NOT
  37:Src/httpserver-netconn.c ****   * LIMITED TO, PROCUREMENT OF SUBSTITUTE GOODS OR SERVICES; LOSS OF USE, DATA, 
  38:Src/httpserver-netconn.c ****   * OR PROFITS; OR BUSINESS INTERRUPTION) HOWEVER CAUSED AND ON ANY THEORY OF 
  39:Src/httpserver-netconn.c ****   * LIABILITY, WHETHER IN CONTRACT, STRICT LIABILITY, OR TORT (INCLUDING 
  40:Src/httpserver-netconn.c ****   * NEGLIGENCE OR OTHERWISE) ARISING IN ANY WAY OUT OF THE USE OF THIS SOFTWARE,
  41:Src/httpserver-netconn.c ****   * EVEN IF ADVISED OF THE POSSIBILITY OF SUCH DAMAGE.
  42:Src/httpserver-netconn.c ****   *
  43:Src/httpserver-netconn.c ****   ******************************************************************************
  44:Src/httpserver-netconn.c ****   */
  45:Src/httpserver-netconn.c **** 
  46:Src/httpserver-netconn.c **** /* Includes ------------------------------------------------------------------*/
  47:Src/httpserver-netconn.c **** #include "lwip/opt.h"
  48:Src/httpserver-netconn.c **** #include "lwip/arch.h"
  49:Src/httpserver-netconn.c **** #include "lwip/api.h"
  50:Src/httpserver-netconn.c **** #include "lwip/apps/fs.h"
  51:Src/httpserver-netconn.c **** #include "string.h"
  52:Src/httpserver-netconn.c **** #include <stdio.h>
  53:Src/httpserver-netconn.c **** #include "httpserver-netconn.h"
  54:Src/httpserver-netconn.c **** #include "cmsis_os.h"
  55:Src/httpserver-netconn.c **** 
  56:Src/httpserver-netconn.c **** /* Private typedef -----------------------------------------------------------*/
  57:Src/httpserver-netconn.c **** /* Private define ------------------------------------------------------------*/
  58:Src/httpserver-netconn.c **** #define WEBSERVER_THREAD_PRIO    osPriorityAboveNormal
  59:Src/httpserver-netconn.c **** 
  60:Src/httpserver-netconn.c **** /* Private macro -------------------------------------------------------------*/
  61:Src/httpserver-netconn.c **** /* Private variables ---------------------------------------------------------*/
  62:Src/httpserver-netconn.c **** u32_t nPageHits = 0;
  63:Src/httpserver-netconn.c **** 
  64:Src/httpserver-netconn.c **** /* Format of dynamic web page: the page header */
  65:Src/httpserver-netconn.c **** static const unsigned char PAGE_START[] = {
  66:Src/httpserver-netconn.c **** 0x3c,0x21,0x44,0x4f,0x43,0x54,0x59,0x50,0x45,0x20,0x68,0x74,0x6d,0x6c,0x20,0x50,
  67:Src/httpserver-netconn.c **** 0x55,0x42,0x4c,0x49,0x43,0x20,0x22,0x2d,0x2f,0x2f,0x57,0x33,0x43,0x2f,0x2f,0x44,
  68:Src/httpserver-netconn.c **** 0x54,0x44,0x20,0x48,0x54,0x4d,0x4c,0x20,0x34,0x2e,0x30,0x31,0x2f,0x2f,0x45,0x4e,
  69:Src/httpserver-netconn.c **** 0x22,0x20,0x22,0x68,0x74,0x74,0x70,0x3a,0x2f,0x2f,0x77,0x77,0x77,0x2e,0x77,0x33,
  70:Src/httpserver-netconn.c **** 0x2e,0x6f,0x72,0x67,0x2f,0x54,0x52,0x2f,0x68,0x74,0x6d,0x6c,0x34,0x2f,0x73,0x74,
  71:Src/httpserver-netconn.c **** 0x72,0x69,0x63,0x74,0x2e,0x64,0x74,0x64,0x22,0x3e,0x0d,0x0a,0x3c,0x68,0x74,0x6d,
  72:Src/httpserver-netconn.c **** 0x6c,0x3e,0x0d,0x0a,0x3c,0x68,0x65,0x61,0x64,0x3e,0x0d,0x0a,0x20,0x20,0x3c,0x74,
  73:Src/httpserver-netconn.c **** 0x69,0x74,0x6c,0x65,0x3e,0x53,0x54,0x4d,0x33,0x32,0x46,0x37,0x78,0x78,0x54,0x41,
  74:Src/httpserver-netconn.c **** 0x53,0x4b,0x53,0x3c,0x2f,0x74,0x69,0x74,0x6c,0x65,0x3e,0x0d,0x0a,0x20,0x20,0x3c,
  75:Src/httpserver-netconn.c **** 0x6d,0x65,0x74,0x61,0x20,0x68,0x74,0x74,0x70,0x2d,0x65,0x71,0x75,0x69,0x76,0x3d,
  76:Src/httpserver-netconn.c **** 0x22,0x43,0x6f,0x6e,0x74,0x65,0x6e,0x74,0x2d,0x54,0x79,0x70,0x65,0x22,0x0d,0x0a,
  77:Src/httpserver-netconn.c **** 0x20,0x63,0x6f,0x6e,0x74,0x65,0x6e,0x74,0x3d,0x22,0x74,0x65,0x78,0x74,0x2f,0x68,
  78:Src/httpserver-netconn.c **** 0x74,0x6d,0x6c,0x3b,0x20,0x63,0x68,0x61,0x72,0x73,0x65,0x74,0x3d,0x77,0x69,0x6e,
  79:Src/httpserver-netconn.c **** 0x64,0x6f,0x77,0x73,0x2d,0x31,0x32,0x35,0x32,0x22,0x3e,0x0d,0x0a,0x20,0x20,0x3c,
  80:Src/httpserver-netconn.c **** 0x6d,0x65,0x74,0x61,0x20,0x68,0x74,0x74,0x70,0x2d,0x65,0x71,0x75,0x69,0x76,0x3d,
  81:Src/httpserver-netconn.c **** 0x22,0x72,0x65,0x66,0x72,0x65,0x73,0x68,0x22,0x20,0x63,0x6f,0x6e,0x74,0x65,0x6e,
  82:Src/httpserver-netconn.c **** 0x74,0x3d,0x22,0x31,0x22,0x3e,0x0d,0x0a,0x20,0x20,0x3c,0x6d,0x65,0x74,0x61,0x20,
ARM GAS  /var/folders/yz/w8msd8211qzc60m57tpkzbn80000gn/T//ccF428gJ.s 			page 3


  83:Src/httpserver-netconn.c **** 0x63,0x6f,0x6e,0x74,0x65,0x6e,0x74,0x3d,0x22,0x4d,0x53,0x48,0x54,0x4d,0x4c,0x20,
  84:Src/httpserver-netconn.c **** 0x36,0x2e,0x30,0x30,0x2e,0x32,0x38,0x30,0x30,0x2e,0x31,0x35,0x36,0x31,0x22,0x20,
  85:Src/httpserver-netconn.c **** 0x6e,0x61,0x6d,0x65,0x3d,0x22,0x47,0x45,0x4e,0x45,0x52,0x41,0x54,0x4f,0x52,0x22,
  86:Src/httpserver-netconn.c **** 0x3e,0x0d,0x0a,0x20,0x20,0x3c,0x73,0x74,0x79,0x6c,0x65,0x20,0x3d,0x22,0x66,0x6f,
  87:Src/httpserver-netconn.c **** 0x6e,0x74,0x2d,0x77,0x65,0x69,0x67,0x68,0x74,0x3a,0x20,0x6e,0x6f,0x72,0x6d,0x61,
  88:Src/httpserver-netconn.c **** 0x6c,0x3b,0x20,0x66,0x6f,0x6e,0x74,0x2d,0x66,0x61,0x6d,0x69,0x6c,0x79,0x3a,0x20,
  89:Src/httpserver-netconn.c **** 0x56,0x65,0x72,0x64,0x61,0x6e,0x61,0x3b,0x22,0x3e,0x3c,0x2f,0x73,0x74,0x79,0x6c,
  90:Src/httpserver-netconn.c **** 0x65,0x3e,0x0d,0x0a,0x3c,0x2f,0x68,0x65,0x61,0x64,0x3e,0x0d,0x0a,0x3c,0x62,0x6f,
  91:Src/httpserver-netconn.c **** 0x64,0x79,0x3e,0x0d,0x0a,0x3c,0x68,0x34,0x3e,0x3c,0x73,0x6d,0x61,0x6c,0x6c,0x20,
  92:Src/httpserver-netconn.c **** 0x73,0x74,0x79,0x6c,0x65,0x3d,0x22,0x66,0x6f,0x6e,0x74,0x2d,0x66,0x61,0x6d,0x69,
  93:Src/httpserver-netconn.c **** 0x6c,0x79,0x3a,0x20,0x56,0x65,0x72,0x64,0x61,0x6e,0x61,0x3b,0x22,0x3e,0x3c,0x73,
  94:Src/httpserver-netconn.c **** 0x6d,0x61,0x6c,0x6c,0x3e,0x3c,0x62,0x69,0x67,0x3e,0x3c,0x62,0x69,0x67,0x3e,0x3c,
  95:Src/httpserver-netconn.c **** 0x62,0x69,0x67,0x0d,0x0a,0x20,0x73,0x74,0x79,0x6c,0x65,0x3d,0x22,0x66,0x6f,0x6e,
  96:Src/httpserver-netconn.c **** 0x74,0x2d,0x77,0x65,0x69,0x67,0x68,0x74,0x3a,0x20,0x62,0x6f,0x6c,0x64,0x3b,0x22,
  97:Src/httpserver-netconn.c **** 0x3e,0x3c,0x62,0x69,0x67,0x3e,0x3c,0x73,0x74,0x72,0x6f,0x6e,0x67,0x3e,0x3c,0x65,
  98:Src/httpserver-netconn.c **** 0x6d,0x3e,0x3c,0x73,0x70,0x61,0x6e,0x0d,0x0a,0x20,0x73,0x74,0x79,0x6c,0x65,0x3d,
  99:Src/httpserver-netconn.c **** 0x22,0x66,0x6f,0x6e,0x74,0x2d,0x73,0x74,0x79,0x6c,0x65,0x3a,0x20,0x69,0x74,0x61,
 100:Src/httpserver-netconn.c **** 0x6c,0x69,0x63,0x3b,0x22,0x3e,0x53,0x54,0x4d,0x33,0x32,0x46,0x37,0x78,0x78,0x20,
 101:Src/httpserver-netconn.c **** 0x4c,0x69,0x73,0x74,0x20,0x6f,0x66,0x20,0x74,0x61,0x73,0x6b,0x73,0x20,0x61,0x6e,
 102:Src/httpserver-netconn.c **** 0x64,0x0d,0x0a,0x74,0x68,0x65,0x69,0x72,0x20,0x73,0x74,0x61,0x74,0x75,0x73,0x3c,
 103:Src/httpserver-netconn.c **** 0x2f,0x73,0x70,0x61,0x6e,0x3e,0x3c,0x2f,0x65,0x6d,0x3e,0x3c,0x2f,0x73,0x74,0x72,
 104:Src/httpserver-netconn.c **** 0x6f,0x6e,0x67,0x3e,0x3c,0x2f,0x62,0x69,0x67,0x3e,0x3c,0x2f,0x62,0x69,0x67,0x3e,
 105:Src/httpserver-netconn.c **** 0x3c,0x2f,0x62,0x69,0x67,0x3e,0x3c,0x2f,0x62,0x69,0x67,0x3e,0x3c,0x2f,0x73,0x6d,
 106:Src/httpserver-netconn.c **** 0x61,0x6c,0x6c,0x3e,0x3c,0x2f,0x73,0x6d,0x61,0x6c,0x6c,0x3e,0x3c,0x2f,0x68,0x34,
 107:Src/httpserver-netconn.c **** 0x3e,0x0d,0x0a,0x3c,0x68,0x72,0x20,0x73,0x74,0x79,0x6c,0x65,0x3d,0x22,0x77,0x69,
 108:Src/httpserver-netconn.c **** 0x64,0x74,0x68,0x3a,0x20,0x31,0x30,0x30,0x25,0x3b,0x20,0x68,0x65,0x69,0x67,0x68,
 109:Src/httpserver-netconn.c **** 0x74,0x3a,0x20,0x32,0x70,0x78,0x3b,0x22,0x3e,0x3c,0x73,0x70,0x61,0x6e,0x0d,0x0a,
 110:Src/httpserver-netconn.c **** 0x20,0x73,0x74,0x79,0x6c,0x65,0x3d,0x22,0x66,0x6f,0x6e,0x74,0x2d,0x77,0x65,0x69,
 111:Src/httpserver-netconn.c **** 0x67,0x68,0x74,0x3a,0x20,0x62,0x6f,0x6c,0x64,0x3b,0x22,0x3e,0x0d,0x0a,0x3c,0x2f,
 112:Src/httpserver-netconn.c **** 0x73,0x70,0x61,0x6e,0x3e,0x3c,0x73,0x70,0x61,0x6e,0x20,0x73,0x74,0x79,0x6c,0x65,
 113:Src/httpserver-netconn.c **** 0x3d,0x22,0x66,0x6f,0x6e,0x74,0x2d,0x77,0x65,0x69,0x67,0x68,0x74,0x3a,0x20,0x62,
 114:Src/httpserver-netconn.c **** 0x6f,0x6c,0x64,0x3b,0x22,0x3e,0x0d,0x0a,0x3c,0x74,0x61,0x62,0x6c,0x65,0x20,0x73,
 115:Src/httpserver-netconn.c **** 0x74,0x79,0x6c,0x65,0x3d,0x22,0x77,0x69,0x64,0x74,0x68,0x3a,0x20,0x39,0x36,0x31,
 116:Src/httpserver-netconn.c **** 0x70,0x78,0x3b,0x20,0x68,0x65,0x69,0x67,0x68,0x74,0x3a,0x20,0x33,0x30,0x70,0x78,
 117:Src/httpserver-netconn.c **** 0x3b,0x22,0x20,0x62,0x6f,0x72,0x64,0x65,0x72,0x3d,0x22,0x31,0x22,0x0d,0x0a,0x20,
 118:Src/httpserver-netconn.c **** 0x63,0x65,0x6c,0x6c,0x70,0x61,0x64,0x64,0x69,0x6e,0x67,0x3d,0x22,0x32,0x22,0x20,
 119:Src/httpserver-netconn.c **** 0x63,0x65,0x6c,0x6c,0x73,0x70,0x61,0x63,0x69,0x6e,0x67,0x3d,0x22,0x32,0x22,0x3e,
 120:Src/httpserver-netconn.c **** 0x0d,0x0a,0x20,0x20,0x3c,0x74,0x62,0x6f,0x64,0x79,0x3e,0x0d,0x0a,0x20,0x20,0x20,
 121:Src/httpserver-netconn.c **** 0x20,0x3c,0x74,0x72,0x3e,0x0d,0x0a,0x20,0x20,0x20,0x20,0x20,0x20,0x3c,0x74,0x64,
 122:Src/httpserver-netconn.c **** 0x0d,0x0a,0x20,0x73,0x74,0x79,0x6c,0x65,0x3d,0x22,0x66,0x6f,0x6e,0x74,0x2d,0x66,
 123:Src/httpserver-netconn.c **** 0x61,0x6d,0x69,0x6c,0x79,0x3a,0x20,0x56,0x65,0x72,0x64,0x61,0x6e,0x61,0x3b,0x20,
 124:Src/httpserver-netconn.c **** 0x66,0x6f,0x6e,0x74,0x2d,0x77,0x65,0x69,0x67,0x68,0x74,0x3a,0x20,0x62,0x6f,0x6c,
 125:Src/httpserver-netconn.c **** 0x64,0x3b,0x20,0x66,0x6f,0x6e,0x74,0x2d,0x73,0x74,0x79,0x6c,0x65,0x3a,0x20,0x69,
 126:Src/httpserver-netconn.c **** 0x74,0x61,0x6c,0x69,0x63,0x3b,0x20,0x62,0x61,0x63,0x6b,0x67,0x72,0x6f,0x75,0x6e,
 127:Src/httpserver-netconn.c **** 0x64,0x2d,0x63,0x6f,0x6c,0x6f,0x72,0x3a,0x20,0x72,0x67,0x62,0x28,0x35,0x31,0x2c,
 128:Src/httpserver-netconn.c **** 0x20,0x35,0x31,0x2c,0x20,0x32,0x35,0x35,0x29,0x3b,0x20,0x74,0x65,0x78,0x74,0x2d,
 129:Src/httpserver-netconn.c **** 0x61,0x6c,0x69,0x67,0x6e,0x3a,0x20,0x63,0x65,0x6e,0x74,0x65,0x72,0x3b,0x22,0x3e,
 130:Src/httpserver-netconn.c **** 0x3c,0x73,0x6d,0x61,0x6c,0x6c,0x3e,0x3c,0x61,0x0d,0x0a,0x20,0x68,0x72,0x65,0x66,
 131:Src/httpserver-netconn.c **** 0x3d,0x22,0x2f,0x53,0x54,0x4d,0x33,0x32,0x46,0x37,0x78,0x78,0x2e,0x68,0x74,0x6d,
 132:Src/httpserver-netconn.c **** 0x6c,0x22,0x3e,0x3c,0x73,0x70,0x61,0x6e,0x20,0x73,0x74,0x79,0x6c,0x65,0x3d,0x22,
 133:Src/httpserver-netconn.c **** 0x63,0x6f,0x6c,0x6f,0x72,0x3a,0x20,0x77,0x68,0x69,0x74,0x65,0x3b,0x22,0x3e,0x48,
 134:Src/httpserver-netconn.c **** 0x6f,0x6d,0x65,0x0d,0x0a,0x70,0x61,0x67,0x65,0x3c,0x2f,0x73,0x70,0x61,0x6e,0x3e,
 135:Src/httpserver-netconn.c **** 0x3c,0x2f,0x61,0x3e,0x3c,0x2f,0x73,0x6d,0x61,0x6c,0x6c,0x3e,0x3c,0x2f,0x74,0x64,
 136:Src/httpserver-netconn.c **** 0x3e,0x0d,0x0a,0x20,0x20,0x20,0x20,0x20,0x20,0x3c,0x74,0x64,0x0d,0x0a,0x20,0x73,
 137:Src/httpserver-netconn.c **** 0x74,0x79,0x6c,0x65,0x3d,0x22,0x66,0x6f,0x6e,0x74,0x2d,0x66,0x61,0x6d,0x69,0x6c,
 138:Src/httpserver-netconn.c **** 0x79,0x3a,0x20,0x56,0x65,0x72,0x64,0x61,0x6e,0x61,0x3b,0x20,0x66,0x6f,0x6e,0x74,
 139:Src/httpserver-netconn.c **** 0x2d,0x77,0x65,0x69,0x67,0x68,0x74,0x3a,0x20,0x62,0x6f,0x6c,0x64,0x3b,0x20,0x66,
ARM GAS  /var/folders/yz/w8msd8211qzc60m57tpkzbn80000gn/T//ccF428gJ.s 			page 4


 140:Src/httpserver-netconn.c **** 0x6f,0x6e,0x74,0x2d,0x73,0x74,0x79,0x6c,0x65,0x3a,0x20,0x69,0x74,0x61,0x6c,0x69,
 141:Src/httpserver-netconn.c **** 0x63,0x3b,0x20,0x62,0x61,0x63,0x6b,0x67,0x72,0x6f,0x75,0x6e,0x64,0x2d,0x63,0x6f,
 142:Src/httpserver-netconn.c **** 0x6c,0x6f,0x72,0x3a,0x20,0x72,0x67,0x62,0x28,0x35,0x31,0x2c,0x20,0x35,0x31,0x2c,
 143:Src/httpserver-netconn.c **** 0x20,0x32,0x35,0x35,0x29,0x3b,0x20,0x74,0x65,0x78,0x74,0x2d,0x61,0x6c,0x69,0x67,
 144:Src/httpserver-netconn.c **** 0x6e,0x3a,0x20,0x63,0x65,0x6e,0x74,0x65,0x72,0x3b,0x22,0x3e,0x3c,0x61,0x0d,0x0a,
 145:Src/httpserver-netconn.c **** 0x20,0x68,0x72,0x65,0x66,0x3d,0x22,0x53,0x54,0x4d,0x33,0x32,0x46,0x37,0x78,0x78,
 146:Src/httpserver-netconn.c **** 0x41,0x44,0x43,0x2e,0x68,0x74,0x6d,0x6c,0x22,0x3e,0x3c,0x73,0x70,0x61,0x6e,0x20,
 147:Src/httpserver-netconn.c **** 0x73,0x74,0x79,0x6c,0x65,0x3d,0x22,0x66,0x6f,0x6e,0x74,0x2d,0x77,0x65,0x69,0x67,
 148:Src/httpserver-netconn.c **** 0x68,0x74,0x3a,0x20,0x62,0x6f,0x6c,0x64,0x3b,0x22,0x3e,0x3c,0x2f,0x73,0x70,0x61,
 149:Src/httpserver-netconn.c **** 0x6e,0x3e,0x3c,0x2f,0x61,0x3e,0x3c,0x73,0x6d,0x61,0x6c,0x6c,0x3e,0x3c,0x61,0x0d,
 150:Src/httpserver-netconn.c **** 0x0a,0x20,0x68,0x72,0x65,0x66,0x3d,0x22,0x2f,0x53,0x54,0x4d,0x33,0x32,0x46,0x37,
 151:Src/httpserver-netconn.c **** 0x78,0x78,0x54,0x41,0x53,0x4b,0x53,0x2e,0x68,0x74,0x6d,0x6c,0x22,0x3e,0x3c,0x73,
 152:Src/httpserver-netconn.c **** 0x70,0x61,0x6e,0x20,0x73,0x74,0x79,0x6c,0x65,0x3d,0x22,0x63,0x6f,0x6c,0x6f,0x72,
 153:Src/httpserver-netconn.c **** 0x3a,0x20,0x77,0x68,0x69,0x74,0x65,0x3b,0x22,0x3e,0x4c,0x69,0x73,0x74,0x0d,0x0a,
 154:Src/httpserver-netconn.c **** 0x6f,0x66,0x20,0x74,0x61,0x73,0x6b,0x73,0x3c,0x2f,0x73,0x70,0x61,0x6e,0x3e,0x3c,
 155:Src/httpserver-netconn.c **** 0x2f,0x61,0x3e,0x3c,0x2f,0x73,0x6d,0x61,0x6c,0x6c,0x3e,0x3c,0x2f,0x74,0x64,0x3e,
 156:Src/httpserver-netconn.c **** 0x0d,0x0a,0x20,0x20,0x20,0x20,0x3c,0x2f,0x74,0x72,0x3e,0x0d,0x0a,0x20,0x20,0x3c,
 157:Src/httpserver-netconn.c **** 0x2f,0x74,0x62,0x6f,0x64,0x79,0x3e,0x0d,0x0a,0x3c,0x2f,0x74,0x61,0x62,0x6c,0x65,
 158:Src/httpserver-netconn.c **** 0x3e,0x0d,0x0a,0x3c,0x62,0x72,0x3e,0x0d,0x0a,0x3c,0x2f,0x73,0x70,0x61,0x6e,0x3e,
 159:Src/httpserver-netconn.c **** 0x3c,0x73,0x70,0x61,0x6e,0x20,0x73,0x74,0x79,0x6c,0x65,0x3d,0x22,0x66,0x6f,0x6e,
 160:Src/httpserver-netconn.c **** 0x74,0x2d,0x77,0x65,0x69,0x67,0x68,0x74,0x3a,0x20,0x62,0x6f,0x6c,0x64,0x3b,0x22,
 161:Src/httpserver-netconn.c **** 0x3e,0x3c,0x2f,0x73,0x70,0x61,0x6e,0x3e,0x3c,0x73,0x6d,0x61,0x6c,0x6c,0x3e,0x3c,
 162:Src/httpserver-netconn.c **** 0x73,0x70,0x61,0x6e,0x0d,0x0a,0x20,0x73,0x74,0x79,0x6c,0x65,0x3d,0x22,0x66,0x6f,
 163:Src/httpserver-netconn.c **** 0x6e,0x74,0x2d,0x66,0x61,0x6d,0x69,0x6c,0x79,0x3a,0x20,0x56,0x65,0x72,0x64,0x61,
 164:Src/httpserver-netconn.c **** 0x6e,0x61,0x3b,0x22,0x3e,0x4e,0x75,0x6d,0x62,0x65,0x72,0x20,0x6f,0x66,0x20,0x70,
 165:Src/httpserver-netconn.c **** 0x61,0x67,0x65,0x20,0x68,0x69,0x74,0x73,0x3a,0x0d,0x0a,0x00};
 166:Src/httpserver-netconn.c **** 
 167:Src/httpserver-netconn.c **** /* Private function prototypes -----------------------------------------------*/
 168:Src/httpserver-netconn.c **** /* Private functions ---------------------------------------------------------*/
 169:Src/httpserver-netconn.c **** 
 170:Src/httpserver-netconn.c **** /**
 171:Src/httpserver-netconn.c ****   * @brief serve tcp connection  
 172:Src/httpserver-netconn.c ****   * @param conn: pointer on connection structure 
 173:Src/httpserver-netconn.c ****   * @retval None
 174:Src/httpserver-netconn.c ****   */
 175:Src/httpserver-netconn.c **** static void http_server_serve(struct netconn *conn) 
 176:Src/httpserver-netconn.c **** {
 177:Src/httpserver-netconn.c ****   struct netbuf *inbuf;
 178:Src/httpserver-netconn.c ****   err_t recv_err;
 179:Src/httpserver-netconn.c ****   char* buf;
 180:Src/httpserver-netconn.c ****   u16_t buflen;
 181:Src/httpserver-netconn.c ****   struct fs_file file;
 182:Src/httpserver-netconn.c ****   
 183:Src/httpserver-netconn.c ****   /* Read the data from the port, blocking if nothing yet there. 
 184:Src/httpserver-netconn.c ****    We assume the request (the part we care about) is in one netbuf */
 185:Src/httpserver-netconn.c ****   recv_err = netconn_recv(conn, &inbuf);
 186:Src/httpserver-netconn.c ****   
 187:Src/httpserver-netconn.c ****   if (recv_err == ERR_OK)
 188:Src/httpserver-netconn.c ****   {
 189:Src/httpserver-netconn.c ****     if (netconn_err(conn) == ERR_OK) 
 190:Src/httpserver-netconn.c ****     {
 191:Src/httpserver-netconn.c ****       netbuf_data(inbuf, (void**)&buf, &buflen);
 192:Src/httpserver-netconn.c ****     
 193:Src/httpserver-netconn.c ****       /* Is this an HTTP GET command? (only check the first 5 chars, since
 194:Src/httpserver-netconn.c ****       there are other formats for GET, and we're keeping it very simple )*/
 195:Src/httpserver-netconn.c ****       if ((buflen >=5) && (strncmp(buf, "GET /", 5) == 0))
 196:Src/httpserver-netconn.c ****       {
ARM GAS  /var/folders/yz/w8msd8211qzc60m57tpkzbn80000gn/T//ccF428gJ.s 			page 5


 197:Src/httpserver-netconn.c ****         /* Check if request to get ST.gif */ 
 198:Src/httpserver-netconn.c ****         if (strncmp((char const *)buf,"GET /STM32F7xx_files/ST.gif",27)==0)
 199:Src/httpserver-netconn.c ****         {
 200:Src/httpserver-netconn.c ****           fs_open(&file, "/STM32F7xx_files/ST.gif"); 
 201:Src/httpserver-netconn.c ****           netconn_write(conn, (const unsigned char*)(file.data), (size_t)file.len, NETCONN_NOCOPY);
 202:Src/httpserver-netconn.c ****           fs_close(&file);
 203:Src/httpserver-netconn.c ****         }   
 204:Src/httpserver-netconn.c ****         /* Check if request to get stm32.jpeg */
 205:Src/httpserver-netconn.c ****         else if (strncmp((char const *)buf,"GET /STM32F7xx_files/stm32.jpg",30)==0)
 206:Src/httpserver-netconn.c ****         {
 207:Src/httpserver-netconn.c ****           fs_open(&file, "/STM32F7xx_files/stm32.jpg"); 
 208:Src/httpserver-netconn.c ****           netconn_write(conn, (const unsigned char*)(file.data), (size_t)file.len, NETCONN_NOCOPY);
 209:Src/httpserver-netconn.c ****           fs_close(&file);
 210:Src/httpserver-netconn.c ****         }
 211:Src/httpserver-netconn.c ****         else if (strncmp((char const *)buf,"GET /STM32F7xx_files/logo.jpg", 29) == 0)              
 212:Src/httpserver-netconn.c ****         {
 213:Src/httpserver-netconn.c ****           /* Check if request to get ST logo.jpg */
 214:Src/httpserver-netconn.c ****           fs_open(&file, "/STM32F7xx_files/logo.jpg"); 
 215:Src/httpserver-netconn.c ****           netconn_write(conn, (const unsigned char*)(file.data), (size_t)file.len, NETCONN_NOCOPY);
 216:Src/httpserver-netconn.c ****           fs_close(&file);
 217:Src/httpserver-netconn.c ****         }
 218:Src/httpserver-netconn.c ****         else if(strncmp(buf, "GET /STM32F7xxTASKS.html", 24) == 0)
 219:Src/httpserver-netconn.c ****         {
 220:Src/httpserver-netconn.c ****            /* Load dynamic page */
 221:Src/httpserver-netconn.c ****            DynWebPage(conn);
 222:Src/httpserver-netconn.c ****         }
 223:Src/httpserver-netconn.c ****         else if((strncmp(buf, "GET /STM32F7xx.html", 19) == 0)||(strncmp(buf, "GET / ", 6) == 0)) 
 224:Src/httpserver-netconn.c ****         {
 225:Src/httpserver-netconn.c ****           /* Load STM32F7xx page */
 226:Src/httpserver-netconn.c ****           fs_open(&file, "/STM32F7xx.html"); 
 227:Src/httpserver-netconn.c ****           netconn_write(conn, (const unsigned char*)(file.data), (size_t)file.len, NETCONN_NOCOPY);
 228:Src/httpserver-netconn.c ****           fs_close(&file);
 229:Src/httpserver-netconn.c ****         }
 230:Src/httpserver-netconn.c ****         else 
 231:Src/httpserver-netconn.c ****         {
 232:Src/httpserver-netconn.c ****           /* Load Error page */
 233:Src/httpserver-netconn.c ****           fs_open(&file, "/404.html"); 
 234:Src/httpserver-netconn.c ****           netconn_write(conn, (const unsigned char*)(file.data), (size_t)file.len, NETCONN_NOCOPY);
 235:Src/httpserver-netconn.c ****           fs_close(&file);
 236:Src/httpserver-netconn.c ****         }
 237:Src/httpserver-netconn.c ****       }      
 238:Src/httpserver-netconn.c ****     }
 239:Src/httpserver-netconn.c ****   }
 240:Src/httpserver-netconn.c ****   /* Close the connection (server closes in HTTP) */
 241:Src/httpserver-netconn.c ****   netconn_close(conn);
 242:Src/httpserver-netconn.c ****   
 243:Src/httpserver-netconn.c ****   /* Delete the buffer (netconn_recv gives us ownership,
 244:Src/httpserver-netconn.c ****    so we have to make sure to deallocate the buffer) */
 245:Src/httpserver-netconn.c ****   netbuf_delete(inbuf);
 246:Src/httpserver-netconn.c **** }
 247:Src/httpserver-netconn.c **** 
 248:Src/httpserver-netconn.c **** 
 249:Src/httpserver-netconn.c **** /**
 250:Src/httpserver-netconn.c ****   * @brief  http server thread 
 251:Src/httpserver-netconn.c ****   * @param arg: pointer on argument(not used here) 
 252:Src/httpserver-netconn.c ****   * @retval None
 253:Src/httpserver-netconn.c ****   */
ARM GAS  /var/folders/yz/w8msd8211qzc60m57tpkzbn80000gn/T//ccF428gJ.s 			page 6


 254:Src/httpserver-netconn.c **** static void http_server_netconn_thread(void *arg)
 255:Src/httpserver-netconn.c **** { 
 256:Src/httpserver-netconn.c ****   struct netconn *conn, *newconn;
 257:Src/httpserver-netconn.c ****   err_t err, accept_err;
 258:Src/httpserver-netconn.c ****   
 259:Src/httpserver-netconn.c ****   /* Create a new TCP connection handle */
 260:Src/httpserver-netconn.c ****   conn = netconn_new(NETCONN_TCP);
 261:Src/httpserver-netconn.c ****   
 262:Src/httpserver-netconn.c ****   if (conn!= NULL)
 263:Src/httpserver-netconn.c ****   {
 264:Src/httpserver-netconn.c ****     /* Bind to port 80 (HTTP) with default IP address */
 265:Src/httpserver-netconn.c ****     err = netconn_bind(conn, NULL, 80);
 266:Src/httpserver-netconn.c ****     
 267:Src/httpserver-netconn.c ****     if (err == ERR_OK)
 268:Src/httpserver-netconn.c ****     {
 269:Src/httpserver-netconn.c ****       /* Put the connection into LISTEN state */
 270:Src/httpserver-netconn.c ****       netconn_listen(conn);
 271:Src/httpserver-netconn.c ****   
 272:Src/httpserver-netconn.c ****       while(1) 
 273:Src/httpserver-netconn.c ****       {
 274:Src/httpserver-netconn.c ****         /* accept any icoming connection */
 275:Src/httpserver-netconn.c ****         accept_err = netconn_accept(conn, &newconn);
 276:Src/httpserver-netconn.c ****         if(accept_err == ERR_OK)
 277:Src/httpserver-netconn.c ****         {
 278:Src/httpserver-netconn.c ****           /* serve connection */
 279:Src/httpserver-netconn.c ****           http_server_serve(newconn);
 280:Src/httpserver-netconn.c **** 
 281:Src/httpserver-netconn.c ****           /* delete connection */
 282:Src/httpserver-netconn.c ****           netconn_delete(newconn);
 283:Src/httpserver-netconn.c ****         }
 284:Src/httpserver-netconn.c ****       }
 285:Src/httpserver-netconn.c ****     }
 286:Src/httpserver-netconn.c ****   }
 287:Src/httpserver-netconn.c **** }
 288:Src/httpserver-netconn.c **** 
 289:Src/httpserver-netconn.c **** /**
 290:Src/httpserver-netconn.c ****   * @brief  Initialize the HTTP server (start its thread) 
 291:Src/httpserver-netconn.c ****   * @param  none
 292:Src/httpserver-netconn.c ****   * @retval None
 293:Src/httpserver-netconn.c ****   */
 294:Src/httpserver-netconn.c **** void http_server_netconn_init()
 295:Src/httpserver-netconn.c **** {
  33              		.loc 1 295 1 view -0
  34              		.cfi_startproc
  35              		@ args = 0, pretend = 0, frame = 0
  36              		@ frame_needed = 0, uses_anonymous_args = 0
  37 0000 00B5     		push	{lr}
  38              	.LCFI0:
  39              		.cfi_def_cfa_offset 4
  40              		.cfi_offset 14, -4
  41 0002 83B0     		sub	sp, sp, #12
  42              	.LCFI1:
  43              		.cfi_def_cfa_offset 16
 296:Src/httpserver-netconn.c ****   sys_thread_new("HTTP", http_server_netconn_thread, NULL, DEFAULT_THREAD_STACKSIZE, WEBSERVER_THRE
  44              		.loc 1 296 3 view .LVU1
  45 0004 0123     		movs	r3, #1
  46 0006 0093     		str	r3, [sp]
ARM GAS  /var/folders/yz/w8msd8211qzc60m57tpkzbn80000gn/T//ccF428gJ.s 			page 7


  47 0008 4FF4FA73 		mov	r3, #500
  48 000c 0022     		movs	r2, #0
  49 000e 0349     		ldr	r1, .L3
  50 0010 0348     		ldr	r0, .L3+4
  51 0012 FFF7FEFF 		bl	sys_thread_new
  52              	.LVL0:
 297:Src/httpserver-netconn.c **** }
  53              		.loc 1 297 1 is_stmt 0 view .LVU2
  54 0016 03B0     		add	sp, sp, #12
  55              	.LCFI2:
  56              		.cfi_def_cfa_offset 4
  57              		@ sp needed
  58 0018 5DF804FB 		ldr	pc, [sp], #4
  59              	.L4:
  60              		.align	2
  61              	.L3:
  62 001c 00000000 		.word	http_server_netconn_thread
  63 0020 00000000 		.word	.LC0
  64              		.cfi_endproc
  65              	.LFE32:
  67              		.section	.rodata.DynWebPage.str1.4,"aMS",%progbits,1
  68              		.align	2
  69              	.LC1:
  70 0000 256400   		.ascii	"%d\000"
  71 0003 00       		.align	2
  72              	.LC2:
  73 0004 3C707265 		.ascii	"<pre><br>Name          State  Priority  Stack   Num"
  73      3E3C6272 
  73      3E4E616D 
  73      65202020 
  73      20202020 
  74 0037 00       		.ascii	"\000"
  75              		.align	2
  76              	.LC3:
  77 0038 3C62723E 		.ascii	"<br>---------------------------------------------<b"
  77      2D2D2D2D 
  77      2D2D2D2D 
  77      2D2D2D2D 
  77      2D2D2D2D 
  78 006b 723E00   		.ascii	"r>\000"
  79 006e 0000     		.align	2
  80              	.LC4:
  81 0070 3C62723E 		.ascii	"<br><br>-------------------------------------------"
  81      3C62723E 
  81      2D2D2D2D 
  81      2D2D2D2D 
  81      2D2D2D2D 
  82 00a3 2D2D00   		.ascii	"--\000"
  83 00a6 0000     		.align	2
  84              	.LC5:
  85 00a8 3C62723E 		.ascii	"<br>B : Blocked, R : Ready, D : Deleted, S : Suspen"
  85      42203A20 
  85      426C6F63 
  85      6B65642C 
  85      2052203A 
  86 00db 6465643C 		.ascii	"ded<br>\000"
  86      62723E00 
ARM GAS  /var/folders/yz/w8msd8211qzc60m57tpkzbn80000gn/T//ccF428gJ.s 			page 8


  87              		.section	.text.DynWebPage,"ax",%progbits
  88              		.align	1
  89              		.global	DynWebPage
  90              		.syntax unified
  91              		.thumb
  92              		.thumb_func
  93              		.fpu fpv5-sp-d16
  95              	DynWebPage:
  96              	.LVL1:
  97              	.LFB33:
 298:Src/httpserver-netconn.c **** 
 299:Src/httpserver-netconn.c **** /**
 300:Src/httpserver-netconn.c ****   * @brief  Create and send a dynamic Web Page. This page contains the list of 
 301:Src/httpserver-netconn.c ****   *         running tasks and the number of page hits. 
 302:Src/httpserver-netconn.c ****   * @param  conn pointer on connection structure 
 303:Src/httpserver-netconn.c ****   * @retval None
 304:Src/httpserver-netconn.c ****   */
 305:Src/httpserver-netconn.c **** void DynWebPage(struct netconn *conn)
 306:Src/httpserver-netconn.c **** {
  98              		.loc 1 306 1 is_stmt 1 view -0
  99              		.cfi_startproc
 100              		@ args = 0, pretend = 0, frame = 528
 101              		@ frame_needed = 0, uses_anonymous_args = 0
 102              		.loc 1 306 1 is_stmt 0 view .LVU4
 103 0000 F0B5     		push	{r4, r5, r6, r7, lr}
 104              	.LCFI3:
 105              		.cfi_def_cfa_offset 20
 106              		.cfi_offset 4, -20
 107              		.cfi_offset 5, -16
 108              		.cfi_offset 6, -12
 109              		.cfi_offset 7, -8
 110              		.cfi_offset 14, -4
 111 0002 ADF5077D 		sub	sp, sp, #540
 112              	.LCFI4:
 113              		.cfi_def_cfa_offset 560
 114 0006 0646     		mov	r6, r0
 307:Src/httpserver-netconn.c ****   portCHAR PAGE_BODY[512];
 115              		.loc 1 307 3 is_stmt 1 view .LVU5
 308:Src/httpserver-netconn.c ****   portCHAR pagehits[10] = {0};
 116              		.loc 1 308 3 view .LVU6
 117              		.loc 1 308 12 is_stmt 0 view .LVU7
 118 0008 0021     		movs	r1, #0
 119 000a 0391     		str	r1, [sp, #12]
 120 000c 0491     		str	r1, [sp, #16]
 121 000e ADF81410 		strh	r1, [sp, #20]	@ movhi
 309:Src/httpserver-netconn.c **** 
 310:Src/httpserver-netconn.c ****   memset(PAGE_BODY, 0,512);
 122              		.loc 1 310 3 is_stmt 1 view .LVU8
 123 0012 4FF40072 		mov	r2, #512
 124 0016 06A8     		add	r0, sp, #24
 125              	.LVL2:
 126              		.loc 1 310 3 is_stmt 0 view .LVU9
 127 0018 FFF7FEFF 		bl	memset
 128              	.LVL3:
 311:Src/httpserver-netconn.c **** 
 312:Src/httpserver-netconn.c ****   /* Update the hit count */
 313:Src/httpserver-netconn.c ****   nPageHits++;
ARM GAS  /var/folders/yz/w8msd8211qzc60m57tpkzbn80000gn/T//ccF428gJ.s 			page 9


 129              		.loc 1 313 3 is_stmt 1 view .LVU10
 130              		.loc 1 313 12 is_stmt 0 view .LVU11
 131 001c 404B     		ldr	r3, .L11
 132 001e 1A68     		ldr	r2, [r3]
 133 0020 0132     		adds	r2, r2, #1
 134 0022 1A60     		str	r2, [r3]
 314:Src/httpserver-netconn.c ****   sprintf(pagehits, "%d", (int)nPageHits);
 135              		.loc 1 314 3 is_stmt 1 view .LVU12
 136 0024 3F49     		ldr	r1, .L11+4
 137 0026 03A8     		add	r0, sp, #12
 138 0028 FFF7FEFF 		bl	sprintf
 139              	.LVL4:
 315:Src/httpserver-netconn.c ****   strcat(PAGE_BODY, pagehits);
 140              		.loc 1 315 3 view .LVU13
 141 002c 03A9     		add	r1, sp, #12
 142 002e 06A8     		add	r0, sp, #24
 143 0030 FFF7FEFF 		bl	strcat
 144              	.LVL5:
 316:Src/httpserver-netconn.c ****   strcat((char *)PAGE_BODY, "<pre><br>Name          State  Priority  Stack   Num" );
 145              		.loc 1 316 3 view .LVU14
 146 0034 06A8     		add	r0, sp, #24
 147 0036 FFF7FEFF 		bl	strlen
 148              	.LVL6:
 149 003a 3B4D     		ldr	r5, .L11+8
 150 003c 06AB     		add	r3, sp, #24
 151 003e 1C18     		adds	r4, r3, r0
 152 0040 05F1300C 		add	ip, r5, #48
 153              	.L6:
 154 0044 2F46     		mov	r7, r5
 155 0046 0FCF     		ldmia	r7!, {r0, r1, r2, r3}
 156 0048 2060     		str	r0, [r4]	@ unaligned
 157 004a 6160     		str	r1, [r4, #4]	@ unaligned
 158 004c A260     		str	r2, [r4, #8]	@ unaligned
 159 004e E360     		str	r3, [r4, #12]	@ unaligned
 160 0050 3D46     		mov	r5, r7
 161 0052 1034     		adds	r4, r4, #16
 162 0054 6745     		cmp	r7, ip
 163 0056 F5D1     		bne	.L6
 164 0058 3868     		ldr	r0, [r7]
 165 005a 2060     		str	r0, [r4]	@ unaligned
 317:Src/httpserver-netconn.c ****   strcat((char *)PAGE_BODY, "<br>---------------------------------------------<br>");
 166              		.loc 1 317 3 view .LVU15
 167 005c 06A8     		add	r0, sp, #24
 168 005e FFF7FEFF 		bl	strlen
 169              	.LVL7:
 170 0062 324D     		ldr	r5, .L11+12
 171 0064 06AB     		add	r3, sp, #24
 172 0066 1C18     		adds	r4, r3, r0
 173 0068 05F1300C 		add	ip, r5, #48
 174              	.L7:
 175 006c 2F46     		mov	r7, r5
 176 006e 0FCF     		ldmia	r7!, {r0, r1, r2, r3}
 177 0070 2060     		str	r0, [r4]	@ unaligned
 178 0072 6160     		str	r1, [r4, #4]	@ unaligned
 179 0074 A260     		str	r2, [r4, #8]	@ unaligned
 180 0076 E360     		str	r3, [r4, #12]	@ unaligned
 181 0078 3D46     		mov	r5, r7
ARM GAS  /var/folders/yz/w8msd8211qzc60m57tpkzbn80000gn/T//ccF428gJ.s 			page 10


 182 007a 1034     		adds	r4, r4, #16
 183 007c 6745     		cmp	r7, ip
 184 007e F5D1     		bne	.L7
 185 0080 3868     		ldr	r0, [r7]
 186 0082 2060     		str	r0, [r4]	@ unaligned
 187 0084 BB88     		ldrh	r3, [r7, #4]	@ unaligned
 188 0086 A380     		strh	r3, [r4, #4]	@ unaligned
 318:Src/httpserver-netconn.c ****     
 319:Src/httpserver-netconn.c ****   /* The list of tasks and their status */
 320:Src/httpserver-netconn.c ****   osThreadList((unsigned char *)(PAGE_BODY + strlen(PAGE_BODY)));
 189              		.loc 1 320 3 view .LVU16
 190              		.loc 1 320 46 is_stmt 0 view .LVU17
 191 0088 06A8     		add	r0, sp, #24
 192 008a FFF7FEFF 		bl	strlen
 193              	.LVL8:
 194              		.loc 1 320 3 view .LVU18
 195 008e 06AB     		add	r3, sp, #24
 196 0090 1844     		add	r0, r0, r3
 197 0092 FFF7FEFF 		bl	osThreadList
 198              	.LVL9:
 321:Src/httpserver-netconn.c ****   strcat((char *)PAGE_BODY, "<br><br>---------------------------------------------");
 199              		.loc 1 321 3 is_stmt 1 view .LVU19
 200 0096 06A8     		add	r0, sp, #24
 201 0098 FFF7FEFF 		bl	strlen
 202              	.LVL10:
 203 009c 244D     		ldr	r5, .L11+16
 204 009e 06AB     		add	r3, sp, #24
 205 00a0 1C18     		adds	r4, r3, r0
 206 00a2 05F1300C 		add	ip, r5, #48
 207              	.L8:
 208 00a6 2F46     		mov	r7, r5
 209 00a8 0FCF     		ldmia	r7!, {r0, r1, r2, r3}
 210 00aa 2060     		str	r0, [r4]	@ unaligned
 211 00ac 6160     		str	r1, [r4, #4]	@ unaligned
 212 00ae A260     		str	r2, [r4, #8]	@ unaligned
 213 00b0 E360     		str	r3, [r4, #12]	@ unaligned
 214 00b2 3D46     		mov	r5, r7
 215 00b4 1034     		adds	r4, r4, #16
 216 00b6 6745     		cmp	r7, ip
 217 00b8 F5D1     		bne	.L8
 218 00ba 3868     		ldr	r0, [r7]
 219 00bc 2060     		str	r0, [r4]	@ unaligned
 220 00be BB88     		ldrh	r3, [r7, #4]	@ unaligned
 221 00c0 A380     		strh	r3, [r4, #4]	@ unaligned
 322:Src/httpserver-netconn.c ****   strcat((char *)PAGE_BODY, "<br>B : Blocked, R : Ready, D : Deleted, S : Suspended<br>");
 222              		.loc 1 322 3 view .LVU20
 223 00c2 06A8     		add	r0, sp, #24
 224 00c4 FFF7FEFF 		bl	strlen
 225              	.LVL11:
 226 00c8 1A4D     		ldr	r5, .L11+20
 227 00ca 06AB     		add	r3, sp, #24
 228 00cc 1C18     		adds	r4, r3, r0
 229 00ce 05F1300C 		add	ip, r5, #48
 230              	.L9:
 231 00d2 2F46     		mov	r7, r5
 232 00d4 0FCF     		ldmia	r7!, {r0, r1, r2, r3}
 233 00d6 2060     		str	r0, [r4]	@ unaligned
ARM GAS  /var/folders/yz/w8msd8211qzc60m57tpkzbn80000gn/T//ccF428gJ.s 			page 11


 234 00d8 6160     		str	r1, [r4, #4]	@ unaligned
 235 00da A260     		str	r2, [r4, #8]	@ unaligned
 236 00dc E360     		str	r3, [r4, #12]	@ unaligned
 237 00de 3D46     		mov	r5, r7
 238 00e0 1034     		adds	r4, r4, #16
 239 00e2 6745     		cmp	r7, ip
 240 00e4 F5D1     		bne	.L9
 241 00e6 03CD     		ldmia	r5!, {r0, r1}
 242 00e8 2060     		str	r0, [r4]	@ unaligned
 243 00ea 6160     		str	r1, [r4, #4]	@ unaligned
 244 00ec 2A88     		ldrh	r2, [r5]	@ unaligned
 245 00ee AB78     		ldrb	r3, [r5, #2]	@ zero_extendqisi2
 246 00f0 2281     		strh	r2, [r4, #8]	@ unaligned
 247 00f2 A372     		strb	r3, [r4, #10]
 323:Src/httpserver-netconn.c **** 
 324:Src/httpserver-netconn.c ****   /* Send the dynamically generated page */
 325:Src/httpserver-netconn.c ****   netconn_write(conn, PAGE_START, strlen((char*)PAGE_START), NETCONN_COPY);
 248              		.loc 1 325 3 view .LVU21
 249 00f4 0024     		movs	r4, #0
 250 00f6 0094     		str	r4, [sp]
 251 00f8 0123     		movs	r3, #1
 252 00fa 40F23B62 		movw	r2, #1595
 253 00fe 0E49     		ldr	r1, .L11+24
 254 0100 3046     		mov	r0, r6
 255 0102 FFF7FEFF 		bl	netconn_write_partly
 256              	.LVL12:
 326:Src/httpserver-netconn.c ****   netconn_write(conn, PAGE_BODY, strlen(PAGE_BODY), NETCONN_COPY);
 257              		.loc 1 326 3 view .LVU22
 258 0106 06A8     		add	r0, sp, #24
 259 0108 FFF7FEFF 		bl	strlen
 260              	.LVL13:
 261 010c 0246     		mov	r2, r0
 262 010e 0094     		str	r4, [sp]
 263 0110 0123     		movs	r3, #1
 264 0112 06A9     		add	r1, sp, #24
 265 0114 3046     		mov	r0, r6
 266 0116 FFF7FEFF 		bl	netconn_write_partly
 267              	.LVL14:
 327:Src/httpserver-netconn.c **** }
 268              		.loc 1 327 1 is_stmt 0 view .LVU23
 269 011a 0DF5077D 		add	sp, sp, #540
 270              	.LCFI5:
 271              		.cfi_def_cfa_offset 20
 272              		@ sp needed
 273 011e F0BD     		pop	{r4, r5, r6, r7, pc}
 274              	.LVL15:
 275              	.L12:
 276              		.loc 1 327 1 view .LVU24
 277              		.align	2
 278              	.L11:
 279 0120 00000000 		.word	.LANCHOR0
 280 0124 00000000 		.word	.LC1
 281 0128 04000000 		.word	.LC2
 282 012c 38000000 		.word	.LC3
 283 0130 70000000 		.word	.LC4
 284 0134 A8000000 		.word	.LC5
 285 0138 00000000 		.word	.LANCHOR1
ARM GAS  /var/folders/yz/w8msd8211qzc60m57tpkzbn80000gn/T//ccF428gJ.s 			page 12


 286              		.cfi_endproc
 287              	.LFE33:
 289              		.section	.rodata.http_server_serve.str1.4,"aMS",%progbits,1
 290              		.align	2
 291              	.LC6:
 292 0000 47455420 		.ascii	"GET /\000"
 292      2F00
 293 0006 0000     		.align	2
 294              	.LC7:
 295 0008 47455420 		.ascii	"GET /STM32F7xx_files/ST.gif\000"
 295      2F53544D 
 295      33324637 
 295      78785F66 
 295      696C6573 
 296              		.align	2
 297              	.LC8:
 298 0024 2F53544D 		.ascii	"/STM32F7xx_files/ST.gif\000"
 298      33324637 
 298      78785F66 
 298      696C6573 
 298      2F53542E 
 299              		.align	2
 300              	.LC9:
 301 003c 47455420 		.ascii	"GET /STM32F7xx_files/stm32.jpg\000"
 301      2F53544D 
 301      33324637 
 301      78785F66 
 301      696C6573 
 302 005b 00       		.align	2
 303              	.LC10:
 304 005c 2F53544D 		.ascii	"/STM32F7xx_files/stm32.jpg\000"
 304      33324637 
 304      78785F66 
 304      696C6573 
 304      2F73746D 
 305 0077 00       		.align	2
 306              	.LC11:
 307 0078 47455420 		.ascii	"GET /STM32F7xx_files/logo.jpg\000"
 307      2F53544D 
 307      33324637 
 307      78785F66 
 307      696C6573 
 308 0096 0000     		.align	2
 309              	.LC12:
 310 0098 2F53544D 		.ascii	"/STM32F7xx_files/logo.jpg\000"
 310      33324637 
 310      78785F66 
 310      696C6573 
 310      2F6C6F67 
 311 00b2 0000     		.align	2
 312              	.LC13:
 313 00b4 47455420 		.ascii	"GET /STM32F7xxTASKS.html\000"
 313      2F53544D 
 313      33324637 
 313      78785441 
 313      534B532E 
 314 00cd 000000   		.align	2
ARM GAS  /var/folders/yz/w8msd8211qzc60m57tpkzbn80000gn/T//ccF428gJ.s 			page 13


 315              	.LC14:
 316 00d0 47455420 		.ascii	"GET /STM32F7xx.html\000"
 316      2F53544D 
 316      33324637 
 316      78782E68 
 316      746D6C00 
 317              		.align	2
 318              	.LC15:
 319 00e4 47455420 		.ascii	"GET / \000"
 319      2F2000
 320 00eb 00       		.align	2
 321              	.LC16:
 322 00ec 2F53544D 		.ascii	"/STM32F7xx.html\000"
 322      33324637 
 322      78782E68 
 322      746D6C00 
 323              		.align	2
 324              	.LC17:
 325 00fc 2F343034 		.ascii	"/404.html\000"
 325      2E68746D 
 325      6C00
 326              		.section	.text.http_server_serve,"ax",%progbits
 327              		.align	1
 328              		.syntax unified
 329              		.thumb
 330              		.thumb_func
 331              		.fpu fpv5-sp-d16
 333              	http_server_serve:
 334              	.LVL16:
 335              	.LFB30:
 176:Src/httpserver-netconn.c ****   struct netbuf *inbuf;
 336              		.loc 1 176 1 is_stmt 1 view -0
 337              		.cfi_startproc
 338              		@ args = 0, pretend = 0, frame = 32
 339              		@ frame_needed = 0, uses_anonymous_args = 0
 176:Src/httpserver-netconn.c ****   struct netbuf *inbuf;
 340              		.loc 1 176 1 is_stmt 0 view .LVU26
 341 0000 30B5     		push	{r4, r5, lr}
 342              	.LCFI6:
 343              		.cfi_def_cfa_offset 12
 344              		.cfi_offset 4, -12
 345              		.cfi_offset 5, -8
 346              		.cfi_offset 14, -4
 347 0002 8BB0     		sub	sp, sp, #44
 348              	.LCFI7:
 349              		.cfi_def_cfa_offset 56
 350 0004 0446     		mov	r4, r0
 177:Src/httpserver-netconn.c ****   err_t recv_err;
 351              		.loc 1 177 3 is_stmt 1 view .LVU27
 178:Src/httpserver-netconn.c ****   char* buf;
 352              		.loc 1 178 3 view .LVU28
 179:Src/httpserver-netconn.c ****   u16_t buflen;
 353              		.loc 1 179 3 view .LVU29
 180:Src/httpserver-netconn.c ****   struct fs_file file;
 354              		.loc 1 180 3 view .LVU30
 181:Src/httpserver-netconn.c ****   
 355              		.loc 1 181 3 view .LVU31
ARM GAS  /var/folders/yz/w8msd8211qzc60m57tpkzbn80000gn/T//ccF428gJ.s 			page 14


 185:Src/httpserver-netconn.c ****   
 356              		.loc 1 185 3 view .LVU32
 185:Src/httpserver-netconn.c ****   
 357              		.loc 1 185 14 is_stmt 0 view .LVU33
 358 0006 09A9     		add	r1, sp, #36
 359 0008 FFF7FEFF 		bl	netconn_recv
 360              	.LVL17:
 187:Src/httpserver-netconn.c ****   {
 361              		.loc 1 187 3 is_stmt 1 view .LVU34
 187:Src/httpserver-netconn.c ****   {
 362              		.loc 1 187 6 is_stmt 0 view .LVU35
 363 000c 38B1     		cbz	r0, .L22
 364              	.LVL18:
 365              	.L14:
 241:Src/httpserver-netconn.c ****   
 366              		.loc 1 241 3 is_stmt 1 view .LVU36
 367 000e 2046     		mov	r0, r4
 368 0010 FFF7FEFF 		bl	netconn_close
 369              	.LVL19:
 245:Src/httpserver-netconn.c **** }
 370              		.loc 1 245 3 view .LVU37
 371 0014 0998     		ldr	r0, [sp, #36]
 372 0016 FFF7FEFF 		bl	netbuf_delete
 373              	.LVL20:
 246:Src/httpserver-netconn.c **** 
 374              		.loc 1 246 1 is_stmt 0 view .LVU38
 375 001a 0BB0     		add	sp, sp, #44
 376              	.LCFI8:
 377              		.cfi_remember_state
 378              		.cfi_def_cfa_offset 12
 379              		@ sp needed
 380 001c 30BD     		pop	{r4, r5, pc}
 381              	.LVL21:
 382              	.L22:
 383              	.LCFI9:
 384              		.cfi_restore_state
 189:Src/httpserver-netconn.c ****     {
 385              		.loc 1 189 5 is_stmt 1 view .LVU39
 189:Src/httpserver-netconn.c ****     {
 386              		.loc 1 189 9 is_stmt 0 view .LVU40
 387 001e 2046     		mov	r0, r4
 388              	.LVL22:
 189:Src/httpserver-netconn.c ****     {
 389              		.loc 1 189 9 view .LVU41
 390 0020 FFF7FEFF 		bl	netconn_err
 391              	.LVL23:
 189:Src/httpserver-netconn.c ****     {
 392              		.loc 1 189 8 view .LVU42
 393 0024 0028     		cmp	r0, #0
 394 0026 F2D1     		bne	.L14
 191:Src/httpserver-netconn.c ****     
 395              		.loc 1 191 7 is_stmt 1 view .LVU43
 396 0028 0DF11E02 		add	r2, sp, #30
 397 002c 08A9     		add	r1, sp, #32
 398 002e 0998     		ldr	r0, [sp, #36]
 399 0030 FFF7FEFF 		bl	netbuf_data
 400              	.LVL24:
ARM GAS  /var/folders/yz/w8msd8211qzc60m57tpkzbn80000gn/T//ccF428gJ.s 			page 15


 195:Src/httpserver-netconn.c ****       {
 401              		.loc 1 195 7 view .LVU44
 195:Src/httpserver-netconn.c ****       {
 402              		.loc 1 195 19 is_stmt 0 view .LVU45
 403 0034 BDF81E30 		ldrh	r3, [sp, #30]
 195:Src/httpserver-netconn.c ****       {
 404              		.loc 1 195 10 view .LVU46
 405 0038 042B     		cmp	r3, #4
 406 003a E8D9     		bls	.L14
 195:Src/httpserver-netconn.c ****       {
 407              		.loc 1 195 28 discriminator 1 view .LVU47
 408 003c 089D     		ldr	r5, [sp, #32]
 409 003e 0522     		movs	r2, #5
 410 0040 3E49     		ldr	r1, .L27
 411 0042 2846     		mov	r0, r5
 412 0044 FFF7FEFF 		bl	strncmp
 413              	.LVL25:
 195:Src/httpserver-netconn.c ****       {
 414              		.loc 1 195 24 discriminator 1 view .LVU48
 415 0048 0028     		cmp	r0, #0
 416 004a E0D1     		bne	.L14
 198:Src/httpserver-netconn.c ****         {
 417              		.loc 1 198 9 is_stmt 1 view .LVU49
 198:Src/httpserver-netconn.c ****         {
 418              		.loc 1 198 13 is_stmt 0 view .LVU50
 419 004c 1B22     		movs	r2, #27
 420 004e 3C49     		ldr	r1, .L27+4
 421 0050 2846     		mov	r0, r5
 422 0052 FFF7FEFF 		bl	strncmp
 423              	.LVL26:
 198:Src/httpserver-netconn.c ****         {
 424              		.loc 1 198 12 view .LVU51
 425 0056 0028     		cmp	r0, #0
 426 0058 30D0     		beq	.L23
 205:Src/httpserver-netconn.c ****         {
 427              		.loc 1 205 14 is_stmt 1 view .LVU52
 205:Src/httpserver-netconn.c ****         {
 428              		.loc 1 205 18 is_stmt 0 view .LVU53
 429 005a 1E22     		movs	r2, #30
 430 005c 3949     		ldr	r1, .L27+8
 431 005e 2846     		mov	r0, r5
 432 0060 FFF7FEFF 		bl	strncmp
 433              	.LVL27:
 205:Src/httpserver-netconn.c ****         {
 434              		.loc 1 205 17 view .LVU54
 435 0064 0028     		cmp	r0, #0
 436 0066 38D0     		beq	.L24
 211:Src/httpserver-netconn.c ****         {
 437              		.loc 1 211 14 is_stmt 1 view .LVU55
 211:Src/httpserver-netconn.c ****         {
 438              		.loc 1 211 18 is_stmt 0 view .LVU56
 439 0068 1D22     		movs	r2, #29
 440 006a 3749     		ldr	r1, .L27+12
 441 006c 2846     		mov	r0, r5
 442 006e FFF7FEFF 		bl	strncmp
 443              	.LVL28:
 211:Src/httpserver-netconn.c ****         {
ARM GAS  /var/folders/yz/w8msd8211qzc60m57tpkzbn80000gn/T//ccF428gJ.s 			page 16


 444              		.loc 1 211 17 view .LVU57
 445 0072 0028     		cmp	r0, #0
 446 0074 40D0     		beq	.L25
 218:Src/httpserver-netconn.c ****         {
 447              		.loc 1 218 14 is_stmt 1 view .LVU58
 218:Src/httpserver-netconn.c ****         {
 448              		.loc 1 218 17 is_stmt 0 view .LVU59
 449 0076 1822     		movs	r2, #24
 450 0078 3449     		ldr	r1, .L27+16
 451 007a 2846     		mov	r0, r5
 452 007c FFF7FEFF 		bl	strncmp
 453              	.LVL29:
 218:Src/httpserver-netconn.c ****         {
 454              		.loc 1 218 16 view .LVU60
 455 0080 0028     		cmp	r0, #0
 456 0082 48D0     		beq	.L26
 223:Src/httpserver-netconn.c ****         {
 457              		.loc 1 223 14 is_stmt 1 view .LVU61
 223:Src/httpserver-netconn.c ****         {
 458              		.loc 1 223 18 is_stmt 0 view .LVU62
 459 0084 1322     		movs	r2, #19
 460 0086 3249     		ldr	r1, .L27+20
 461 0088 2846     		mov	r0, r5
 462 008a FFF7FEFF 		bl	strncmp
 463              	.LVL30:
 223:Src/httpserver-netconn.c ****         {
 464              		.loc 1 223 16 view .LVU63
 465 008e 30B1     		cbz	r0, .L19
 223:Src/httpserver-netconn.c ****         {
 466              		.loc 1 223 66 discriminator 1 view .LVU64
 467 0090 0622     		movs	r2, #6
 468 0092 3049     		ldr	r1, .L27+24
 469 0094 2846     		mov	r0, r5
 470 0096 FFF7FEFF 		bl	strncmp
 471              	.LVL31:
 223:Src/httpserver-netconn.c ****         {
 472              		.loc 1 223 63 discriminator 1 view .LVU65
 473 009a 0028     		cmp	r0, #0
 474 009c 3FD1     		bne	.L20
 475              	.L19:
 226:Src/httpserver-netconn.c ****           netconn_write(conn, (const unsigned char*)(file.data), (size_t)file.len, NETCONN_NOCOPY);
 476              		.loc 1 226 11 is_stmt 1 view .LVU66
 477 009e 2E49     		ldr	r1, .L27+28
 478 00a0 02A8     		add	r0, sp, #8
 479 00a2 FFF7FEFF 		bl	fs_open
 480              	.LVL32:
 227:Src/httpserver-netconn.c ****           fs_close(&file);
 481              		.loc 1 227 11 view .LVU67
 482 00a6 0023     		movs	r3, #0
 483 00a8 0093     		str	r3, [sp]
 484 00aa 039A     		ldr	r2, [sp, #12]
 485 00ac 0299     		ldr	r1, [sp, #8]
 486 00ae 2046     		mov	r0, r4
 487 00b0 FFF7FEFF 		bl	netconn_write_partly
 488              	.LVL33:
 228:Src/httpserver-netconn.c ****         }
 489              		.loc 1 228 11 view .LVU68
ARM GAS  /var/folders/yz/w8msd8211qzc60m57tpkzbn80000gn/T//ccF428gJ.s 			page 17


 490 00b4 02A8     		add	r0, sp, #8
 491 00b6 FFF7FEFF 		bl	fs_close
 492              	.LVL34:
 493 00ba A8E7     		b	.L14
 494              	.L23:
 200:Src/httpserver-netconn.c ****           netconn_write(conn, (const unsigned char*)(file.data), (size_t)file.len, NETCONN_NOCOPY);
 495              		.loc 1 200 11 view .LVU69
 496 00bc 2749     		ldr	r1, .L27+32
 497 00be 02A8     		add	r0, sp, #8
 498 00c0 FFF7FEFF 		bl	fs_open
 499              	.LVL35:
 201:Src/httpserver-netconn.c ****           fs_close(&file);
 500              		.loc 1 201 11 view .LVU70
 501 00c4 0023     		movs	r3, #0
 502 00c6 0093     		str	r3, [sp]
 503 00c8 039A     		ldr	r2, [sp, #12]
 504 00ca 0299     		ldr	r1, [sp, #8]
 505 00cc 2046     		mov	r0, r4
 506 00ce FFF7FEFF 		bl	netconn_write_partly
 507              	.LVL36:
 202:Src/httpserver-netconn.c ****         }   
 508              		.loc 1 202 11 view .LVU71
 509 00d2 02A8     		add	r0, sp, #8
 510 00d4 FFF7FEFF 		bl	fs_close
 511              	.LVL37:
 512 00d8 99E7     		b	.L14
 513              	.L24:
 207:Src/httpserver-netconn.c ****           netconn_write(conn, (const unsigned char*)(file.data), (size_t)file.len, NETCONN_NOCOPY);
 514              		.loc 1 207 11 view .LVU72
 515 00da 2149     		ldr	r1, .L27+36
 516 00dc 02A8     		add	r0, sp, #8
 517 00de FFF7FEFF 		bl	fs_open
 518              	.LVL38:
 208:Src/httpserver-netconn.c ****           fs_close(&file);
 519              		.loc 1 208 11 view .LVU73
 520 00e2 0023     		movs	r3, #0
 521 00e4 0093     		str	r3, [sp]
 522 00e6 039A     		ldr	r2, [sp, #12]
 523 00e8 0299     		ldr	r1, [sp, #8]
 524 00ea 2046     		mov	r0, r4
 525 00ec FFF7FEFF 		bl	netconn_write_partly
 526              	.LVL39:
 209:Src/httpserver-netconn.c ****         }
 527              		.loc 1 209 11 view .LVU74
 528 00f0 02A8     		add	r0, sp, #8
 529 00f2 FFF7FEFF 		bl	fs_close
 530              	.LVL40:
 531 00f6 8AE7     		b	.L14
 532              	.L25:
 214:Src/httpserver-netconn.c ****           netconn_write(conn, (const unsigned char*)(file.data), (size_t)file.len, NETCONN_NOCOPY);
 533              		.loc 1 214 11 view .LVU75
 534 00f8 1A49     		ldr	r1, .L27+40
 535 00fa 02A8     		add	r0, sp, #8
 536 00fc FFF7FEFF 		bl	fs_open
 537              	.LVL41:
 215:Src/httpserver-netconn.c ****           fs_close(&file);
 538              		.loc 1 215 11 view .LVU76
ARM GAS  /var/folders/yz/w8msd8211qzc60m57tpkzbn80000gn/T//ccF428gJ.s 			page 18


 539 0100 0023     		movs	r3, #0
 540 0102 0093     		str	r3, [sp]
 541 0104 039A     		ldr	r2, [sp, #12]
 542 0106 0299     		ldr	r1, [sp, #8]
 543 0108 2046     		mov	r0, r4
 544 010a FFF7FEFF 		bl	netconn_write_partly
 545              	.LVL42:
 216:Src/httpserver-netconn.c ****         }
 546              		.loc 1 216 11 view .LVU77
 547 010e 02A8     		add	r0, sp, #8
 548 0110 FFF7FEFF 		bl	fs_close
 549              	.LVL43:
 550 0114 7BE7     		b	.L14
 551              	.L26:
 221:Src/httpserver-netconn.c ****         }
 552              		.loc 1 221 12 view .LVU78
 553 0116 2046     		mov	r0, r4
 554 0118 FFF7FEFF 		bl	DynWebPage
 555              	.LVL44:
 556 011c 77E7     		b	.L14
 557              	.L20:
 233:Src/httpserver-netconn.c ****           netconn_write(conn, (const unsigned char*)(file.data), (size_t)file.len, NETCONN_NOCOPY);
 558              		.loc 1 233 11 view .LVU79
 559 011e 1249     		ldr	r1, .L27+44
 560 0120 02A8     		add	r0, sp, #8
 561 0122 FFF7FEFF 		bl	fs_open
 562              	.LVL45:
 234:Src/httpserver-netconn.c ****           fs_close(&file);
 563              		.loc 1 234 11 view .LVU80
 564 0126 0023     		movs	r3, #0
 565 0128 0093     		str	r3, [sp]
 566 012a 039A     		ldr	r2, [sp, #12]
 567 012c 0299     		ldr	r1, [sp, #8]
 568 012e 2046     		mov	r0, r4
 569 0130 FFF7FEFF 		bl	netconn_write_partly
 570              	.LVL46:
 235:Src/httpserver-netconn.c ****         }
 571              		.loc 1 235 11 view .LVU81
 572 0134 02A8     		add	r0, sp, #8
 573 0136 FFF7FEFF 		bl	fs_close
 574              	.LVL47:
 575 013a 68E7     		b	.L14
 576              	.L28:
 577              		.align	2
 578              	.L27:
 579 013c 00000000 		.word	.LC6
 580 0140 08000000 		.word	.LC7
 581 0144 3C000000 		.word	.LC9
 582 0148 78000000 		.word	.LC11
 583 014c B4000000 		.word	.LC13
 584 0150 D0000000 		.word	.LC14
 585 0154 E4000000 		.word	.LC15
 586 0158 EC000000 		.word	.LC16
 587 015c 24000000 		.word	.LC8
 588 0160 5C000000 		.word	.LC10
 589 0164 98000000 		.word	.LC12
 590 0168 FC000000 		.word	.LC17
ARM GAS  /var/folders/yz/w8msd8211qzc60m57tpkzbn80000gn/T//ccF428gJ.s 			page 19


 591              		.cfi_endproc
 592              	.LFE30:
 594              		.section	.text.http_server_netconn_thread,"ax",%progbits
 595              		.align	1
 596              		.syntax unified
 597              		.thumb
 598              		.thumb_func
 599              		.fpu fpv5-sp-d16
 601              	http_server_netconn_thread:
 602              	.LVL48:
 603              	.LFB31:
 255:Src/httpserver-netconn.c ****   struct netconn *conn, *newconn;
 604              		.loc 1 255 1 view -0
 605              		.cfi_startproc
 606              		@ args = 0, pretend = 0, frame = 8
 607              		@ frame_needed = 0, uses_anonymous_args = 0
 255:Src/httpserver-netconn.c ****   struct netconn *conn, *newconn;
 608              		.loc 1 255 1 is_stmt 0 view .LVU83
 609 0000 10B5     		push	{r4, lr}
 610              	.LCFI10:
 611              		.cfi_def_cfa_offset 8
 612              		.cfi_offset 4, -8
 613              		.cfi_offset 14, -4
 614 0002 82B0     		sub	sp, sp, #8
 615              	.LCFI11:
 616              		.cfi_def_cfa_offset 16
 256:Src/httpserver-netconn.c ****   err_t err, accept_err;
 617              		.loc 1 256 3 is_stmt 1 view .LVU84
 257:Src/httpserver-netconn.c ****   
 618              		.loc 1 257 3 view .LVU85
 260:Src/httpserver-netconn.c ****   
 619              		.loc 1 260 3 view .LVU86
 260:Src/httpserver-netconn.c ****   
 620              		.loc 1 260 10 is_stmt 0 view .LVU87
 621 0004 0022     		movs	r2, #0
 622 0006 1146     		mov	r1, r2
 623 0008 1020     		movs	r0, #16
 624              	.LVL49:
 260:Src/httpserver-netconn.c ****   
 625              		.loc 1 260 10 view .LVU88
 626 000a FFF7FEFF 		bl	netconn_new_with_proto_and_callback
 627              	.LVL50:
 262:Src/httpserver-netconn.c ****   {
 628              		.loc 1 262 3 is_stmt 1 view .LVU89
 262:Src/httpserver-netconn.c ****   {
 629              		.loc 1 262 6 is_stmt 0 view .LVU90
 630 000e 28B1     		cbz	r0, .L29
 631 0010 0446     		mov	r4, r0
 265:Src/httpserver-netconn.c ****     
 632              		.loc 1 265 5 is_stmt 1 view .LVU91
 265:Src/httpserver-netconn.c ****     
 633              		.loc 1 265 11 is_stmt 0 view .LVU92
 634 0012 5022     		movs	r2, #80
 635 0014 0021     		movs	r1, #0
 636 0016 FFF7FEFF 		bl	netconn_bind
 637              	.LVL51:
 267:Src/httpserver-netconn.c ****     {
ARM GAS  /var/folders/yz/w8msd8211qzc60m57tpkzbn80000gn/T//ccF428gJ.s 			page 20


 638              		.loc 1 267 5 is_stmt 1 view .LVU93
 267:Src/httpserver-netconn.c ****     {
 639              		.loc 1 267 8 is_stmt 0 view .LVU94
 640 001a 08B1     		cbz	r0, .L34
 641              	.LVL52:
 642              	.L29:
 287:Src/httpserver-netconn.c **** 
 643              		.loc 1 287 1 view .LVU95
 644 001c 02B0     		add	sp, sp, #8
 645              	.LCFI12:
 646              		.cfi_remember_state
 647              		.cfi_def_cfa_offset 8
 648              		@ sp needed
 649 001e 10BD     		pop	{r4, pc}
 650              	.LVL53:
 651              	.L34:
 652              	.LCFI13:
 653              		.cfi_restore_state
 270:Src/httpserver-netconn.c ****   
 654              		.loc 1 270 7 is_stmt 1 view .LVU96
 655 0020 FF21     		movs	r1, #255
 656 0022 2046     		mov	r0, r4
 657              	.LVL54:
 270:Src/httpserver-netconn.c ****   
 658              		.loc 1 270 7 is_stmt 0 view .LVU97
 659 0024 FFF7FEFF 		bl	netconn_listen_with_backlog
 660              	.LVL55:
 661 0028 05E0     		b	.L31
 662              	.LVL56:
 663              	.L35:
 279:Src/httpserver-netconn.c **** 
 664              		.loc 1 279 11 is_stmt 1 view .LVU98
 665 002a 0198     		ldr	r0, [sp, #4]
 666              	.LVL57:
 279:Src/httpserver-netconn.c **** 
 667              		.loc 1 279 11 is_stmt 0 view .LVU99
 668 002c FFF7FEFF 		bl	http_server_serve
 669              	.LVL58:
 282:Src/httpserver-netconn.c ****         }
 670              		.loc 1 282 11 is_stmt 1 view .LVU100
 671 0030 0198     		ldr	r0, [sp, #4]
 672 0032 FFF7FEFF 		bl	netconn_delete
 673              	.LVL59:
 674              	.L31:
 272:Src/httpserver-netconn.c ****       {
 675              		.loc 1 272 7 view .LVU101
 275:Src/httpserver-netconn.c ****         if(accept_err == ERR_OK)
 676              		.loc 1 275 9 view .LVU102
 275:Src/httpserver-netconn.c ****         if(accept_err == ERR_OK)
 677              		.loc 1 275 22 is_stmt 0 view .LVU103
 678 0036 01A9     		add	r1, sp, #4
 679 0038 2046     		mov	r0, r4
 680 003a FFF7FEFF 		bl	netconn_accept
 681              	.LVL60:
 276:Src/httpserver-netconn.c ****         {
 682              		.loc 1 276 9 is_stmt 1 view .LVU104
 276:Src/httpserver-netconn.c ****         {
ARM GAS  /var/folders/yz/w8msd8211qzc60m57tpkzbn80000gn/T//ccF428gJ.s 			page 21


 683              		.loc 1 276 11 is_stmt 0 view .LVU105
 684 003e 0028     		cmp	r0, #0
 685 0040 F9D1     		bne	.L31
 686 0042 F2E7     		b	.L35
 687              		.cfi_endproc
 688              	.LFE31:
 690              		.global	nPageHits
 691              		.section	.bss.nPageHits,"aw",%nobits
 692              		.align	2
 693              		.set	.LANCHOR0,. + 0
 696              	nPageHits:
 697 0000 00000000 		.space	4
 698              		.section	.rodata.PAGE_START,"a"
 699              		.align	2
 700              		.set	.LANCHOR1,. + 0
 703              	PAGE_START:
 704 0000 3C21444F 		.ascii	"<!DOCTYPE html PUBLIC \"-//W3C//DTD HTML 4.01//EN\""
 704      43545950 
 704      45206874 
 704      6D6C2050 
 704      55424C49 
 705 0031 20226874 		.ascii	" \"http://www.w3.org/TR/html4/strict.dtd\">\015\012"
 705      74703A2F 
 705      2F777777 
 705      2E77332E 
 705      6F72672F 
 706 005c 3C68746D 		.ascii	"<html>\015\012<head>\015\012  <title>STM32F7xxTASKS"
 706      6C3E0D0A 
 706      3C686561 
 706      643E0D0A 
 706      20203C74 
 707 0083 3C2F7469 		.ascii	"</title>\015\012  <meta http-equiv=\"Content-Type\""
 707      746C653E 
 707      0D0A2020 
 707      3C6D6574 
 707      61206874 
 708 00ae 0D0A2063 		.ascii	"\015\012 content=\"text/html; charset=windows-1252\""
 708      6F6E7465 
 708      6E743D22 
 708      74657874 
 708      2F68746D 
 709 00da 3E0D0A20 		.ascii	">\015\012  <meta http-equiv=\"refresh\" content=\"1"
 709      203C6D65 
 709      74612068 
 709      7474702D 
 709      65717569 
 710 0104 223E0D0A 		.ascii	"\">\015\012  <meta content=\"MSHTML 6.00.2800.1561\""
 710      20203C6D 
 710      65746120 
 710      636F6E74 
 710      656E743D 
 711 012f 206E616D 		.ascii	" name=\"GENERATOR\">\015\012  <style =\"font-weight"
 711      653D2247 
 711      454E4552 
 711      41544F52 
 711      223E0D0A 
 712 0159 3A206E6F 		.ascii	": normal; font-family: Verdana;\"></style>\015\012<"
ARM GAS  /var/folders/yz/w8msd8211qzc60m57tpkzbn80000gn/T//ccF428gJ.s 			page 22


 712      726D616C 
 712      3B20666F 
 712      6E742D66 
 712      616D696C 
 713 0185 2F686561 		.ascii	"/head>\015\012<body>\015\012<h4><small style=\"font"
 713      643E0D0A 
 713      3C626F64 
 713      793E0D0A 
 713      3C68343E 
 714 01ab 2D66616D 		.ascii	"-family: Verdana;\"><small><big><big><big\015\012 s"
 714      696C793A 
 714      20566572 
 714      64616E61 
 714      3B223E3C 
 715 01d7 74796C65 		.ascii	"tyle=\"font-weight: bold;\"><big><strong><em><span\015"
 715      3D22666F 
 715      6E742D77 
 715      65696768 
 715      743A2062 
 716 0208 0A207374 		.ascii	"\012 style=\"font-style: italic;\">STM32F7xx List o"
 716      796C653D 
 716      22666F6E 
 716      742D7374 
 716      796C653A 
 717 0236 66207461 		.ascii	"f tasks and\015\012their status</span></em></strong"
 717      736B7320 
 717      616E640D 
 717      0A746865 
 717      69722073 
 718 0263 3E3C2F62 		.ascii	"></big></big></big></big></small></small></h4>\015\012"
 718      69673E3C 
 718      2F626967 
 718      3E3C2F62 
 718      69673E3C 
 719 0293 3C687220 		.ascii	"<hr style=\"width: 100%; height: 2px;\"><span\015\012"
 719      7374796C 
 719      653D2277 
 719      69647468 
 719      3A203130 
 720 02c0 20737479 		.ascii	" style=\"font-weight: bold;\">\015\012</span><span "
 720      6C653D22 
 720      666F6E74 
 720      2D776569 
 720      6768743A 
 721 02eb 7374796C 		.ascii	"style=\"font-weight: bold;\">\015\012<table style=\""
 721      653D2266 
 721      6F6E742D 
 721      77656967 
 721      68743A20 
 722 0316 77696474 		.ascii	"width: 961px; height: 30px;\" border=\"1\"\015\012 "
 722      683A2039 
 722      36317078 
 722      3B206865 
 722      69676874 
 723 0340 63656C6C 		.ascii	"cellpadding=\"2\" cellspacing=\"2\">\015\012  <tbod"
 723      70616464 
 723      696E673D 
ARM GAS  /var/folders/yz/w8msd8211qzc60m57tpkzbn80000gn/T//ccF428gJ.s 			page 23


 723      22322220 
 723      63656C6C 
 724 0369 793E0D0A 		.ascii	"y>\015\012    <tr>\015\012      <td\015\012 style=\""
 724      20202020 
 724      3C74723E 
 724      0D0A2020 
 724      20202020 
 725 038a 666F6E74 		.ascii	"font-family: Verdana; font-weight: bold; font-style"
 725      2D66616D 
 725      696C793A 
 725      20566572 
 725      64616E61 
 726 03bd 3A206974 		.ascii	": italic; background-color: rgb(51, 51, 255); text-"
 726      616C6963 
 726      3B206261 
 726      636B6772 
 726      6F756E64 
 727 03f0 616C6967 		.ascii	"align: center;\"><small><a\015\012 href=\"/STM32F7x"
 727      6E3A2063 
 727      656E7465 
 727      723B223E 
 727      3C736D61 
 728 041b 782E6874 		.ascii	"x.html\"><span style=\"color: white;\">Home\015\012"
 728      6D6C223E 
 728      3C737061 
 728      6E207374 
 728      796C653D 
 729 0445 70616765 		.ascii	"page</span></a></small></td>\015\012      <td\015\012"
 729      3C2F7370 
 729      616E3E3C 
 729      2F613E3C 
 729      2F736D61 
 730 046e 20737479 		.ascii	" style=\"font-family: Verdana; font-weight: bold; f"
 730      6C653D22 
 730      666F6E74 
 730      2D66616D 
 730      696C793A 
 731 04a0 6F6E742D 		.ascii	"ont-style: italic; background-color: rgb(51, 51, 25"
 731      7374796C 
 731      653A2069 
 731      74616C69 
 731      633B2062 
 732 04d3 35293B20 		.ascii	"5); text-align: center;\"><a\015\012 href=\"STM32F7"
 732      74657874 
 732      2D616C69 
 732      676E3A20 
 732      63656E74 
 733 04fe 78784144 		.ascii	"xxADC.html\"><span style=\"font-weight: bold;\"></s"
 733      432E6874 
 733      6D6C223E 
 733      3C737061 
 733      6E207374 
 734 052e 70616E3E 		.ascii	"pan></a><small><a\015\012 href=\"/STM32F7xxTASKS.ht"
 734      3C2F613E 
 734      3C736D61 
 734      6C6C3E3C 
 734      610D0A20 
ARM GAS  /var/folders/yz/w8msd8211qzc60m57tpkzbn80000gn/T//ccF428gJ.s 			page 24


 735 055a 6D6C223E 		.ascii	"ml\"><span style=\"color: white;\">List\015\012of t"
 735      3C737061 
 735      6E207374 
 735      796C653D 
 735      22636F6C 
 736 0584 61736B73 		.ascii	"asks</span></a></small></td>\015\012    </tr>\015\012"
 736      3C2F7370 
 736      616E3E3C 
 736      2F613E3C 
 736      2F736D61 
 737 05ad 20203C2F 		.ascii	"  </tbody>\015\012</table>\015\012<br>\015\012</spa"
 737      74626F64 
 737      793E0D0A 
 737      3C2F7461 
 737      626C653E 
 738 05ce 6E3E3C73 		.ascii	"n><span style=\"font-weight: bold;\"></span><small>"
 738      70616E20 
 738      7374796C 
 738      653D2266 
 738      6F6E742D 
 739 05ff 3C737061 		.ascii	"<span\015\012 style=\"font-family: Verdana;\">Numbe"
 739      6E0D0A20 
 739      7374796C 
 739      653D2266 
 739      6F6E742D 
 740 062a 72206F66 		.ascii	"r of page hits:\015\012\000"
 740      20706167 
 740      65206869 
 740      74733A0D 
 740      0A00
 741              		.text
 742              	.Letext0:
 743              		.file 2 "/usr/local/Cellar/arm-none-eabi-gcc/9-2019-q4-major/gcc/lib/gcc/arm-none-eabi/9.2.1/inclu
 744              		.file 3 "/usr/local/Cellar/arm-none-eabi-gcc/9-2019-q4-major/gcc/arm-none-eabi/include/machine/_de
 745              		.file 4 "/usr/local/Cellar/arm-none-eabi-gcc/9-2019-q4-major/gcc/arm-none-eabi/include/sys/lock.h"
 746              		.file 5 "/usr/local/Cellar/arm-none-eabi-gcc/9-2019-q4-major/gcc/arm-none-eabi/include/sys/_types.
 747              		.file 6 "/usr/local/Cellar/arm-none-eabi-gcc/9-2019-q4-major/gcc/arm-none-eabi/include/sys/reent.h
 748              		.file 7 "/usr/local/Cellar/arm-none-eabi-gcc/9-2019-q4-major/gcc/arm-none-eabi/include/stdlib.h"
 749              		.file 8 "/usr/local/Cellar/arm-none-eabi-gcc/9-2019-q4-major/gcc/arm-none-eabi/include/sys/_stdint
 750              		.file 9 "/usr/local/Cellar/arm-none-eabi-gcc/9-2019-q4-major/gcc/arm-none-eabi/include/time.h"
 751              		.file 10 "Middlewares/LwIP/src/include/lwip/arch.h"
 752              		.file 11 "/usr/local/Cellar/arm-none-eabi-gcc/9-2019-q4-major/gcc/arm-none-eabi/include/ctype.h"
 753              		.file 12 "Middlewares/LwIP/src/include/lwip/err.h"
 754              		.file 13 "Middlewares/LwIP/src/include/lwip/pbuf.h"
 755              		.file 14 "Middlewares/LwIP/src/include/lwip/ip4_addr.h"
 756              		.file 15 "Middlewares/LwIP/src/include/lwip/ip_addr.h"
 757              		.file 16 "Middlewares/LwIP/src/include/lwip/netbuf.h"
 758              		.file 17 "Inc/FreeRTOSConfig.h"
 759              		.file 18 "Middlewares/FreeRTOS/Source/include/queue.h"
 760              		.file 19 "Middlewares/FreeRTOS/Source/include/semphr.h"
 761              		.file 20 "Middlewares/FreeRTOS/Source/CMSIS_RTOS/cmsis_os.h"
 762              		.file 21 "Middlewares/LwIP/system/arch/sys_arch.h"
 763              		.file 22 "Middlewares/LwIP/src/include/lwip/api.h"
 764              		.file 23 "Middlewares/LwIP/src/include/lwip/apps/fs.h"
 765              		.file 24 "/usr/local/Cellar/arm-none-eabi-gcc/9-2019-q4-major/gcc/arm-none-eabi/include/stdio.h"
 766              		.file 25 "/usr/local/Cellar/arm-none-eabi-gcc/9-2019-q4-major/gcc/arm-none-eabi/include/string.h"
 767              		.file 26 "<built-in>"
ARM GAS  /var/folders/yz/w8msd8211qzc60m57tpkzbn80000gn/T//ccF428gJ.s 			page 25


 768              		.file 27 "Middlewares/LwIP/src/include/lwip/sys.h"
ARM GAS  /var/folders/yz/w8msd8211qzc60m57tpkzbn80000gn/T//ccF428gJ.s 			page 26

