ARM GAS  /var/folders/yz/w8msd8211qzc60m57tpkzbn80000gn/T//ccRVvTE8.s 			page 1


   1              		.cpu cortex-m7
   2              		.eabi_attribute 27, 1
   3              		.eabi_attribute 28, 1
   4              		.eabi_attribute 20, 1
   5              		.eabi_attribute 21, 1
   6              		.eabi_attribute 23, 3
   7              		.eabi_attribute 24, 1
   8              		.eabi_attribute 25, 1
   9              		.eabi_attribute 26, 1
  10              		.eabi_attribute 30, 1
  11              		.eabi_attribute 34, 1
  12              		.eabi_attribute 18, 4
  13              		.file	"stm32746g_discovery.c"
  14              		.text
  15              	.Ltext0:
  16              		.cfi_sections	.debug_frame
  17              		.section	.text.I2Cx_MspInit,"ax",%progbits
  18              		.align	1
  19              		.arch armv7e-m
  20              		.syntax unified
  21              		.thumb
  22              		.thumb_func
  23              		.fpu fpv5-sp-d16
  25              	I2Cx_MspInit:
  26              	.LVL0:
  27              	.LFB152:
  28              		.file 1 "Drivers/BSP/STM32746G-Discovery/stm32746g_discovery.c"
   1:Drivers/BSP/STM32746G-Discovery/stm32746g_discovery.c **** /**
   2:Drivers/BSP/STM32746G-Discovery/stm32746g_discovery.c ****   ******************************************************************************
   3:Drivers/BSP/STM32746G-Discovery/stm32746g_discovery.c ****   * @file    stm32746g_discovery.c
   4:Drivers/BSP/STM32746G-Discovery/stm32746g_discovery.c ****   * @author  MCD Application Team
   5:Drivers/BSP/STM32746G-Discovery/stm32746g_discovery.c ****   * @brief   This file provides a set of firmware functions to manage LEDs, 
   6:Drivers/BSP/STM32746G-Discovery/stm32746g_discovery.c ****   *          push-buttons and COM ports available on STM32746G-Discovery
   7:Drivers/BSP/STM32746G-Discovery/stm32746g_discovery.c ****   *          board(MB1191) from STMicroelectronics.
   8:Drivers/BSP/STM32746G-Discovery/stm32746g_discovery.c ****   ******************************************************************************
   9:Drivers/BSP/STM32746G-Discovery/stm32746g_discovery.c ****   * @attention
  10:Drivers/BSP/STM32746G-Discovery/stm32746g_discovery.c ****   *
  11:Drivers/BSP/STM32746G-Discovery/stm32746g_discovery.c ****   * <h2><center>&copy; COPYRIGHT(c) 2016 STMicroelectronics</center></h2>
  12:Drivers/BSP/STM32746G-Discovery/stm32746g_discovery.c ****   *
  13:Drivers/BSP/STM32746G-Discovery/stm32746g_discovery.c ****   * Redistribution and use in source and binary forms, with or without modification,
  14:Drivers/BSP/STM32746G-Discovery/stm32746g_discovery.c ****   * are permitted provided that the following conditions are met:
  15:Drivers/BSP/STM32746G-Discovery/stm32746g_discovery.c ****   *   1. Redistributions of source code must retain the above copyright notice,
  16:Drivers/BSP/STM32746G-Discovery/stm32746g_discovery.c ****   *      this list of conditions and the following disclaimer.
  17:Drivers/BSP/STM32746G-Discovery/stm32746g_discovery.c ****   *   2. Redistributions in binary form must reproduce the above copyright notice,
  18:Drivers/BSP/STM32746G-Discovery/stm32746g_discovery.c ****   *      this list of conditions and the following disclaimer in the documentation
  19:Drivers/BSP/STM32746G-Discovery/stm32746g_discovery.c ****   *      and/or other materials provided with the distribution.
  20:Drivers/BSP/STM32746G-Discovery/stm32746g_discovery.c ****   *   3. Neither the name of STMicroelectronics nor the names of its contributors
  21:Drivers/BSP/STM32746G-Discovery/stm32746g_discovery.c ****   *      may be used to endorse or promote products derived from this software
  22:Drivers/BSP/STM32746G-Discovery/stm32746g_discovery.c ****   *      without specific prior written permission.
  23:Drivers/BSP/STM32746G-Discovery/stm32746g_discovery.c ****   *
  24:Drivers/BSP/STM32746G-Discovery/stm32746g_discovery.c ****   * THIS SOFTWARE IS PROVIDED BY THE COPYRIGHT HOLDERS AND CONTRIBUTORS "AS IS"
  25:Drivers/BSP/STM32746G-Discovery/stm32746g_discovery.c ****   * AND ANY EXPRESS OR IMPLIED WARRANTIES, INCLUDING, BUT NOT LIMITED TO, THE
  26:Drivers/BSP/STM32746G-Discovery/stm32746g_discovery.c ****   * IMPLIED WARRANTIES OF MERCHANTABILITY AND FITNESS FOR A PARTICULAR PURPOSE ARE
  27:Drivers/BSP/STM32746G-Discovery/stm32746g_discovery.c ****   * DISCLAIMED. IN NO EVENT SHALL THE COPYRIGHT HOLDER OR CONTRIBUTORS BE LIABLE
  28:Drivers/BSP/STM32746G-Discovery/stm32746g_discovery.c ****   * FOR ANY DIRECT, INDIRECT, INCIDENTAL, SPECIAL, EXEMPLARY, OR CONSEQUENTIAL
  29:Drivers/BSP/STM32746G-Discovery/stm32746g_discovery.c ****   * DAMAGES (INCLUDING, BUT NOT LIMITED TO, PROCUREMENT OF SUBSTITUTE GOODS OR
  30:Drivers/BSP/STM32746G-Discovery/stm32746g_discovery.c ****   * SERVICES; LOSS OF USE, DATA, OR PROFITS; OR BUSINESS INTERRUPTION) HOWEVER
ARM GAS  /var/folders/yz/w8msd8211qzc60m57tpkzbn80000gn/T//ccRVvTE8.s 			page 2


  31:Drivers/BSP/STM32746G-Discovery/stm32746g_discovery.c ****   * CAUSED AND ON ANY THEORY OF LIABILITY, WHETHER IN CONTRACT, STRICT LIABILITY,
  32:Drivers/BSP/STM32746G-Discovery/stm32746g_discovery.c ****   * OR TORT (INCLUDING NEGLIGENCE OR OTHERWISE) ARISING IN ANY WAY OUT OF THE USE
  33:Drivers/BSP/STM32746G-Discovery/stm32746g_discovery.c ****   * OF THIS SOFTWARE, EVEN IF ADVISED OF THE POSSIBILITY OF SUCH DAMAGE.
  34:Drivers/BSP/STM32746G-Discovery/stm32746g_discovery.c ****   *
  35:Drivers/BSP/STM32746G-Discovery/stm32746g_discovery.c ****   ******************************************************************************
  36:Drivers/BSP/STM32746G-Discovery/stm32746g_discovery.c ****   */ 
  37:Drivers/BSP/STM32746G-Discovery/stm32746g_discovery.c **** 
  38:Drivers/BSP/STM32746G-Discovery/stm32746g_discovery.c **** /* Dependencies
  39:Drivers/BSP/STM32746G-Discovery/stm32746g_discovery.c **** - stm32f7xx_hal_cortex.c
  40:Drivers/BSP/STM32746G-Discovery/stm32746g_discovery.c **** - stm32f7xx_hal_gpio.c
  41:Drivers/BSP/STM32746G-Discovery/stm32746g_discovery.c **** - stm32f7xx_hal_uart.c
  42:Drivers/BSP/STM32746G-Discovery/stm32746g_discovery.c **** - stm32f7xx_hal_i2c.c
  43:Drivers/BSP/STM32746G-Discovery/stm32746g_discovery.c **** EndDependencies */
  44:Drivers/BSP/STM32746G-Discovery/stm32746g_discovery.c **** 
  45:Drivers/BSP/STM32746G-Discovery/stm32746g_discovery.c **** /* Includes ------------------------------------------------------------------*/
  46:Drivers/BSP/STM32746G-Discovery/stm32746g_discovery.c **** #include "stm32746g_discovery.h"
  47:Drivers/BSP/STM32746G-Discovery/stm32746g_discovery.c **** 
  48:Drivers/BSP/STM32746G-Discovery/stm32746g_discovery.c **** /** @addtogroup BSP
  49:Drivers/BSP/STM32746G-Discovery/stm32746g_discovery.c ****   * @{
  50:Drivers/BSP/STM32746G-Discovery/stm32746g_discovery.c ****   */ 
  51:Drivers/BSP/STM32746G-Discovery/stm32746g_discovery.c **** 
  52:Drivers/BSP/STM32746G-Discovery/stm32746g_discovery.c **** /** @addtogroup STM32746G_DISCOVERY
  53:Drivers/BSP/STM32746G-Discovery/stm32746g_discovery.c ****   * @{
  54:Drivers/BSP/STM32746G-Discovery/stm32746g_discovery.c ****   */
  55:Drivers/BSP/STM32746G-Discovery/stm32746g_discovery.c **** 
  56:Drivers/BSP/STM32746G-Discovery/stm32746g_discovery.c **** /** @defgroup STM32746G_DISCOVERY_LOW_LEVEL STM32746G_DISCOVERY_LOW_LEVEL
  57:Drivers/BSP/STM32746G-Discovery/stm32746g_discovery.c ****   * @{
  58:Drivers/BSP/STM32746G-Discovery/stm32746g_discovery.c ****   */
  59:Drivers/BSP/STM32746G-Discovery/stm32746g_discovery.c **** 
  60:Drivers/BSP/STM32746G-Discovery/stm32746g_discovery.c **** /** @defgroup STM32746G_DISCOVERY_LOW_LEVEL_Private_TypesDefinitions STM32746G_DISCOVERY_LOW_LEVEL 
  61:Drivers/BSP/STM32746G-Discovery/stm32746g_discovery.c ****   * @{
  62:Drivers/BSP/STM32746G-Discovery/stm32746g_discovery.c ****   */
  63:Drivers/BSP/STM32746G-Discovery/stm32746g_discovery.c **** /**
  64:Drivers/BSP/STM32746G-Discovery/stm32746g_discovery.c ****   * @}
  65:Drivers/BSP/STM32746G-Discovery/stm32746g_discovery.c ****   */
  66:Drivers/BSP/STM32746G-Discovery/stm32746g_discovery.c **** 
  67:Drivers/BSP/STM32746G-Discovery/stm32746g_discovery.c **** /** @defgroup STM32746G_DISCOVERY_LOW_LEVEL_Private_Defines STM32746G_DISCOVERY_LOW_LEVEL Private D
  68:Drivers/BSP/STM32746G-Discovery/stm32746g_discovery.c ****   * @{
  69:Drivers/BSP/STM32746G-Discovery/stm32746g_discovery.c ****   */
  70:Drivers/BSP/STM32746G-Discovery/stm32746g_discovery.c **** /**
  71:Drivers/BSP/STM32746G-Discovery/stm32746g_discovery.c ****  * @brief STM32746G DISCOVERY BSP Driver version number V2.0.2
  72:Drivers/BSP/STM32746G-Discovery/stm32746g_discovery.c ****    */
  73:Drivers/BSP/STM32746G-Discovery/stm32746g_discovery.c **** #define __STM32746G_DISCO_BSP_VERSION_MAIN   (0x02) /*!< [31:24] main version */
  74:Drivers/BSP/STM32746G-Discovery/stm32746g_discovery.c **** #define __STM32746G_DISCO_BSP_VERSION_SUB1   (0x00) /*!< [23:16] sub1 version */
  75:Drivers/BSP/STM32746G-Discovery/stm32746g_discovery.c **** #define __STM32746G_DISCO_BSP_VERSION_SUB2   (0x02) /*!< [15:8]  sub2 version */
  76:Drivers/BSP/STM32746G-Discovery/stm32746g_discovery.c **** #define __STM32746G_DISCO_BSP_VERSION_RC     (0x00) /*!< [7:0]  release candidate */
  77:Drivers/BSP/STM32746G-Discovery/stm32746g_discovery.c **** #define __STM32746G_DISCO_BSP_VERSION         ((__STM32746G_DISCO_BSP_VERSION_MAIN << 24)\
  78:Drivers/BSP/STM32746G-Discovery/stm32746g_discovery.c ****                                              |(__STM32746G_DISCO_BSP_VERSION_SUB1 << 16)\
  79:Drivers/BSP/STM32746G-Discovery/stm32746g_discovery.c ****                                              |(__STM32746G_DISCO_BSP_VERSION_SUB2 << 8 )\
  80:Drivers/BSP/STM32746G-Discovery/stm32746g_discovery.c ****                                              |(__STM32746G_DISCO_BSP_VERSION_RC))
  81:Drivers/BSP/STM32746G-Discovery/stm32746g_discovery.c **** /**
  82:Drivers/BSP/STM32746G-Discovery/stm32746g_discovery.c ****   * @}
  83:Drivers/BSP/STM32746G-Discovery/stm32746g_discovery.c ****   */
  84:Drivers/BSP/STM32746G-Discovery/stm32746g_discovery.c **** 
  85:Drivers/BSP/STM32746G-Discovery/stm32746g_discovery.c **** /** @defgroup STM32746G_DISCOVERY_LOW_LEVEL_Private_Macros STM32746G_DISCOVERY_LOW_LEVEL Private Ma
  86:Drivers/BSP/STM32746G-Discovery/stm32746g_discovery.c ****   * @{
  87:Drivers/BSP/STM32746G-Discovery/stm32746g_discovery.c ****   */
ARM GAS  /var/folders/yz/w8msd8211qzc60m57tpkzbn80000gn/T//ccRVvTE8.s 			page 3


  88:Drivers/BSP/STM32746G-Discovery/stm32746g_discovery.c **** /**
  89:Drivers/BSP/STM32746G-Discovery/stm32746g_discovery.c ****   * @}
  90:Drivers/BSP/STM32746G-Discovery/stm32746g_discovery.c ****   */
  91:Drivers/BSP/STM32746G-Discovery/stm32746g_discovery.c **** 
  92:Drivers/BSP/STM32746G-Discovery/stm32746g_discovery.c **** /** @defgroup STM32746G_DISCOVERY_LOW_LEVEL_Private_Variables STM32746G_DISCOVERY_LOW_LEVEL Private
  93:Drivers/BSP/STM32746G-Discovery/stm32746g_discovery.c ****   * @{
  94:Drivers/BSP/STM32746G-Discovery/stm32746g_discovery.c ****   */
  95:Drivers/BSP/STM32746G-Discovery/stm32746g_discovery.c **** 
  96:Drivers/BSP/STM32746G-Discovery/stm32746g_discovery.c **** const uint32_t GPIO_PIN[LEDn] = {LED1_PIN};
  97:Drivers/BSP/STM32746G-Discovery/stm32746g_discovery.c **** 
  98:Drivers/BSP/STM32746G-Discovery/stm32746g_discovery.c **** GPIO_TypeDef* BUTTON_PORT[BUTTONn] = {WAKEUP_BUTTON_GPIO_PORT,
  99:Drivers/BSP/STM32746G-Discovery/stm32746g_discovery.c ****                                       TAMPER_BUTTON_GPIO_PORT,
 100:Drivers/BSP/STM32746G-Discovery/stm32746g_discovery.c ****                                       KEY_BUTTON_GPIO_PORT};
 101:Drivers/BSP/STM32746G-Discovery/stm32746g_discovery.c **** 
 102:Drivers/BSP/STM32746G-Discovery/stm32746g_discovery.c **** const uint16_t BUTTON_PIN[BUTTONn] = {WAKEUP_BUTTON_PIN,
 103:Drivers/BSP/STM32746G-Discovery/stm32746g_discovery.c ****                                       TAMPER_BUTTON_PIN,
 104:Drivers/BSP/STM32746G-Discovery/stm32746g_discovery.c ****                                       KEY_BUTTON_PIN};
 105:Drivers/BSP/STM32746G-Discovery/stm32746g_discovery.c **** 
 106:Drivers/BSP/STM32746G-Discovery/stm32746g_discovery.c **** const uint16_t BUTTON_IRQn[BUTTONn] = {WAKEUP_BUTTON_EXTI_IRQn,
 107:Drivers/BSP/STM32746G-Discovery/stm32746g_discovery.c ****                                        TAMPER_BUTTON_EXTI_IRQn,
 108:Drivers/BSP/STM32746G-Discovery/stm32746g_discovery.c ****                                        KEY_BUTTON_EXTI_IRQn};
 109:Drivers/BSP/STM32746G-Discovery/stm32746g_discovery.c **** 
 110:Drivers/BSP/STM32746G-Discovery/stm32746g_discovery.c **** USART_TypeDef* COM_USART[COMn] = {DISCOVERY_COM1};
 111:Drivers/BSP/STM32746G-Discovery/stm32746g_discovery.c **** 
 112:Drivers/BSP/STM32746G-Discovery/stm32746g_discovery.c **** GPIO_TypeDef* COM_TX_PORT[COMn] = {DISCOVERY_COM1_TX_GPIO_PORT};
 113:Drivers/BSP/STM32746G-Discovery/stm32746g_discovery.c **** 
 114:Drivers/BSP/STM32746G-Discovery/stm32746g_discovery.c **** GPIO_TypeDef* COM_RX_PORT[COMn] = {DISCOVERY_COM1_RX_GPIO_PORT};
 115:Drivers/BSP/STM32746G-Discovery/stm32746g_discovery.c **** 
 116:Drivers/BSP/STM32746G-Discovery/stm32746g_discovery.c **** const uint16_t COM_TX_PIN[COMn] = {DISCOVERY_COM1_TX_PIN};
 117:Drivers/BSP/STM32746G-Discovery/stm32746g_discovery.c **** 
 118:Drivers/BSP/STM32746G-Discovery/stm32746g_discovery.c **** const uint16_t COM_RX_PIN[COMn] = {DISCOVERY_COM1_RX_PIN};
 119:Drivers/BSP/STM32746G-Discovery/stm32746g_discovery.c **** 
 120:Drivers/BSP/STM32746G-Discovery/stm32746g_discovery.c **** const uint16_t COM_TX_AF[COMn] = {DISCOVERY_COM1_TX_AF};
 121:Drivers/BSP/STM32746G-Discovery/stm32746g_discovery.c **** 
 122:Drivers/BSP/STM32746G-Discovery/stm32746g_discovery.c **** const uint16_t COM_RX_AF[COMn] = {DISCOVERY_COM1_RX_AF};
 123:Drivers/BSP/STM32746G-Discovery/stm32746g_discovery.c **** 
 124:Drivers/BSP/STM32746G-Discovery/stm32746g_discovery.c **** static I2C_HandleTypeDef hI2cAudioHandler = {0};
 125:Drivers/BSP/STM32746G-Discovery/stm32746g_discovery.c **** static I2C_HandleTypeDef hI2cExtHandler = {0};
 126:Drivers/BSP/STM32746G-Discovery/stm32746g_discovery.c **** 
 127:Drivers/BSP/STM32746G-Discovery/stm32746g_discovery.c **** /**
 128:Drivers/BSP/STM32746G-Discovery/stm32746g_discovery.c ****   * @}
 129:Drivers/BSP/STM32746G-Discovery/stm32746g_discovery.c ****   */
 130:Drivers/BSP/STM32746G-Discovery/stm32746g_discovery.c **** 
 131:Drivers/BSP/STM32746G-Discovery/stm32746g_discovery.c **** /** @defgroup STM32746G_DISCOVERY_LOW_LEVEL_Private_FunctionPrototypes STM32746G_DISCOVERY_LOW_LEVE
 132:Drivers/BSP/STM32746G-Discovery/stm32746g_discovery.c ****   * @{
 133:Drivers/BSP/STM32746G-Discovery/stm32746g_discovery.c ****   */
 134:Drivers/BSP/STM32746G-Discovery/stm32746g_discovery.c **** static void     I2Cx_MspInit(I2C_HandleTypeDef *i2c_handler);
 135:Drivers/BSP/STM32746G-Discovery/stm32746g_discovery.c **** static void     I2Cx_Init(I2C_HandleTypeDef *i2c_handler);
 136:Drivers/BSP/STM32746G-Discovery/stm32746g_discovery.c **** 
 137:Drivers/BSP/STM32746G-Discovery/stm32746g_discovery.c **** static HAL_StatusTypeDef I2Cx_ReadMultiple(I2C_HandleTypeDef *i2c_handler, uint8_t Addr, uint16_t R
 138:Drivers/BSP/STM32746G-Discovery/stm32746g_discovery.c **** static HAL_StatusTypeDef I2Cx_WriteMultiple(I2C_HandleTypeDef *i2c_handler, uint8_t Addr, uint16_t 
 139:Drivers/BSP/STM32746G-Discovery/stm32746g_discovery.c **** static HAL_StatusTypeDef I2Cx_IsDeviceReady(I2C_HandleTypeDef *i2c_handler, uint16_t DevAddress, ui
 140:Drivers/BSP/STM32746G-Discovery/stm32746g_discovery.c **** static void              I2Cx_Error(I2C_HandleTypeDef *i2c_handler, uint8_t Addr);
 141:Drivers/BSP/STM32746G-Discovery/stm32746g_discovery.c **** 
 142:Drivers/BSP/STM32746G-Discovery/stm32746g_discovery.c **** /* AUDIO IO functions */
 143:Drivers/BSP/STM32746G-Discovery/stm32746g_discovery.c **** void            AUDIO_IO_Init(void);
 144:Drivers/BSP/STM32746G-Discovery/stm32746g_discovery.c **** void            AUDIO_IO_DeInit(void);
ARM GAS  /var/folders/yz/w8msd8211qzc60m57tpkzbn80000gn/T//ccRVvTE8.s 			page 4


 145:Drivers/BSP/STM32746G-Discovery/stm32746g_discovery.c **** void            AUDIO_IO_Write(uint8_t Addr, uint16_t Reg, uint16_t Value);
 146:Drivers/BSP/STM32746G-Discovery/stm32746g_discovery.c **** uint16_t        AUDIO_IO_Read(uint8_t Addr, uint16_t Reg);
 147:Drivers/BSP/STM32746G-Discovery/stm32746g_discovery.c **** void            AUDIO_IO_Delay(uint32_t Delay);
 148:Drivers/BSP/STM32746G-Discovery/stm32746g_discovery.c **** 
 149:Drivers/BSP/STM32746G-Discovery/stm32746g_discovery.c **** /* TOUCHSCREEN IO functions */
 150:Drivers/BSP/STM32746G-Discovery/stm32746g_discovery.c **** void            TS_IO_Init(void);
 151:Drivers/BSP/STM32746G-Discovery/stm32746g_discovery.c **** void            TS_IO_Write(uint8_t Addr, uint8_t Reg, uint8_t Value);
 152:Drivers/BSP/STM32746G-Discovery/stm32746g_discovery.c **** uint8_t         TS_IO_Read(uint8_t Addr, uint8_t Reg);
 153:Drivers/BSP/STM32746G-Discovery/stm32746g_discovery.c **** void            TS_IO_Delay(uint32_t Delay);
 154:Drivers/BSP/STM32746G-Discovery/stm32746g_discovery.c **** 
 155:Drivers/BSP/STM32746G-Discovery/stm32746g_discovery.c **** /* CAMERA IO functions */
 156:Drivers/BSP/STM32746G-Discovery/stm32746g_discovery.c **** void            CAMERA_IO_Init(void);
 157:Drivers/BSP/STM32746G-Discovery/stm32746g_discovery.c **** void            CAMERA_Delay(uint32_t Delay);
 158:Drivers/BSP/STM32746G-Discovery/stm32746g_discovery.c **** void            CAMERA_IO_Write(uint8_t Addr, uint8_t Reg, uint8_t Value);
 159:Drivers/BSP/STM32746G-Discovery/stm32746g_discovery.c **** uint8_t         CAMERA_IO_Read(uint8_t Addr, uint8_t Reg);
 160:Drivers/BSP/STM32746G-Discovery/stm32746g_discovery.c **** 
 161:Drivers/BSP/STM32746G-Discovery/stm32746g_discovery.c **** /* I2C EEPROM IO function */
 162:Drivers/BSP/STM32746G-Discovery/stm32746g_discovery.c **** void                EEPROM_IO_Init(void);
 163:Drivers/BSP/STM32746G-Discovery/stm32746g_discovery.c **** HAL_StatusTypeDef   EEPROM_IO_WriteData(uint16_t DevAddress, uint16_t MemAddress, uint8_t* pBuffer,
 164:Drivers/BSP/STM32746G-Discovery/stm32746g_discovery.c **** HAL_StatusTypeDef   EEPROM_IO_ReadData(uint16_t DevAddress, uint16_t MemAddress, uint8_t* pBuffer, 
 165:Drivers/BSP/STM32746G-Discovery/stm32746g_discovery.c **** HAL_StatusTypeDef   EEPROM_IO_IsDeviceReady(uint16_t DevAddress, uint32_t Trials);
 166:Drivers/BSP/STM32746G-Discovery/stm32746g_discovery.c **** /**
 167:Drivers/BSP/STM32746G-Discovery/stm32746g_discovery.c ****   * @}
 168:Drivers/BSP/STM32746G-Discovery/stm32746g_discovery.c ****   */
 169:Drivers/BSP/STM32746G-Discovery/stm32746g_discovery.c **** 
 170:Drivers/BSP/STM32746G-Discovery/stm32746g_discovery.c **** /** @defgroup STM32746G_DISCOVERY_LOW_LEVEL_Exported_Functions STM32746G_DISCOVERY_LOW_LEVELSTM3274
 171:Drivers/BSP/STM32746G-Discovery/stm32746g_discovery.c ****   * @{
 172:Drivers/BSP/STM32746G-Discovery/stm32746g_discovery.c ****   */ 
 173:Drivers/BSP/STM32746G-Discovery/stm32746g_discovery.c **** 
 174:Drivers/BSP/STM32746G-Discovery/stm32746g_discovery.c ****   /**
 175:Drivers/BSP/STM32746G-Discovery/stm32746g_discovery.c ****   * @brief  This method returns the STM32746G DISCOVERY BSP Driver revision
 176:Drivers/BSP/STM32746G-Discovery/stm32746g_discovery.c ****   * @retval version: 0xXYZR (8bits for each decimal, R for RC)
 177:Drivers/BSP/STM32746G-Discovery/stm32746g_discovery.c ****   */
 178:Drivers/BSP/STM32746G-Discovery/stm32746g_discovery.c **** uint32_t BSP_GetVersion(void)
 179:Drivers/BSP/STM32746G-Discovery/stm32746g_discovery.c **** {
 180:Drivers/BSP/STM32746G-Discovery/stm32746g_discovery.c ****   return __STM32746G_DISCO_BSP_VERSION;
 181:Drivers/BSP/STM32746G-Discovery/stm32746g_discovery.c **** }
 182:Drivers/BSP/STM32746G-Discovery/stm32746g_discovery.c **** 
 183:Drivers/BSP/STM32746G-Discovery/stm32746g_discovery.c **** /**
 184:Drivers/BSP/STM32746G-Discovery/stm32746g_discovery.c ****   * @brief  Configures LED on GPIO.
 185:Drivers/BSP/STM32746G-Discovery/stm32746g_discovery.c ****   * @param  Led: LED to be configured. 
 186:Drivers/BSP/STM32746G-Discovery/stm32746g_discovery.c ****   *          This parameter can be one of the following values:
 187:Drivers/BSP/STM32746G-Discovery/stm32746g_discovery.c ****   *            @arg  LED1
 188:Drivers/BSP/STM32746G-Discovery/stm32746g_discovery.c ****   * @retval None
 189:Drivers/BSP/STM32746G-Discovery/stm32746g_discovery.c ****   */
 190:Drivers/BSP/STM32746G-Discovery/stm32746g_discovery.c **** void BSP_LED_Init(Led_TypeDef Led)
 191:Drivers/BSP/STM32746G-Discovery/stm32746g_discovery.c **** {
 192:Drivers/BSP/STM32746G-Discovery/stm32746g_discovery.c ****   GPIO_InitTypeDef  gpio_init_structure;
 193:Drivers/BSP/STM32746G-Discovery/stm32746g_discovery.c ****   GPIO_TypeDef*     gpio_led;
 194:Drivers/BSP/STM32746G-Discovery/stm32746g_discovery.c **** 
 195:Drivers/BSP/STM32746G-Discovery/stm32746g_discovery.c ****   if (Led == LED1)
 196:Drivers/BSP/STM32746G-Discovery/stm32746g_discovery.c ****   {
 197:Drivers/BSP/STM32746G-Discovery/stm32746g_discovery.c ****     gpio_led = LED1_GPIO_PORT;
 198:Drivers/BSP/STM32746G-Discovery/stm32746g_discovery.c ****     /* Enable the GPIO_LED clock */
 199:Drivers/BSP/STM32746G-Discovery/stm32746g_discovery.c ****     LED1_GPIO_CLK_ENABLE();
 200:Drivers/BSP/STM32746G-Discovery/stm32746g_discovery.c **** 
 201:Drivers/BSP/STM32746G-Discovery/stm32746g_discovery.c ****     /* Configure the GPIO_LED pin */
ARM GAS  /var/folders/yz/w8msd8211qzc60m57tpkzbn80000gn/T//ccRVvTE8.s 			page 5


 202:Drivers/BSP/STM32746G-Discovery/stm32746g_discovery.c ****     gpio_init_structure.Pin = GPIO_PIN[Led];
 203:Drivers/BSP/STM32746G-Discovery/stm32746g_discovery.c ****     gpio_init_structure.Mode = GPIO_MODE_OUTPUT_PP;
 204:Drivers/BSP/STM32746G-Discovery/stm32746g_discovery.c ****     gpio_init_structure.Pull = GPIO_PULLUP;
 205:Drivers/BSP/STM32746G-Discovery/stm32746g_discovery.c ****     gpio_init_structure.Speed = GPIO_SPEED_HIGH;
 206:Drivers/BSP/STM32746G-Discovery/stm32746g_discovery.c ****   
 207:Drivers/BSP/STM32746G-Discovery/stm32746g_discovery.c ****     HAL_GPIO_Init(gpio_led, &gpio_init_structure);
 208:Drivers/BSP/STM32746G-Discovery/stm32746g_discovery.c ****     
 209:Drivers/BSP/STM32746G-Discovery/stm32746g_discovery.c ****     /* By default, turn off LED */
 210:Drivers/BSP/STM32746G-Discovery/stm32746g_discovery.c ****     HAL_GPIO_WritePin(gpio_led, GPIO_PIN[Led], GPIO_PIN_RESET);
 211:Drivers/BSP/STM32746G-Discovery/stm32746g_discovery.c ****   }
 212:Drivers/BSP/STM32746G-Discovery/stm32746g_discovery.c **** }
 213:Drivers/BSP/STM32746G-Discovery/stm32746g_discovery.c **** 
 214:Drivers/BSP/STM32746G-Discovery/stm32746g_discovery.c **** /**
 215:Drivers/BSP/STM32746G-Discovery/stm32746g_discovery.c ****   * @brief  DeInit LEDs.
 216:Drivers/BSP/STM32746G-Discovery/stm32746g_discovery.c ****   * @param  Led: LED to be configured. 
 217:Drivers/BSP/STM32746G-Discovery/stm32746g_discovery.c ****   *          This parameter can be one of the following values:
 218:Drivers/BSP/STM32746G-Discovery/stm32746g_discovery.c ****   *            @arg  LED1
 219:Drivers/BSP/STM32746G-Discovery/stm32746g_discovery.c ****   * @note Led DeInit does not disable the GPIO clock
 220:Drivers/BSP/STM32746G-Discovery/stm32746g_discovery.c ****   * @retval None
 221:Drivers/BSP/STM32746G-Discovery/stm32746g_discovery.c ****   */
 222:Drivers/BSP/STM32746G-Discovery/stm32746g_discovery.c **** void BSP_LED_DeInit(Led_TypeDef Led)
 223:Drivers/BSP/STM32746G-Discovery/stm32746g_discovery.c **** {
 224:Drivers/BSP/STM32746G-Discovery/stm32746g_discovery.c ****   GPIO_InitTypeDef  gpio_init_structure;
 225:Drivers/BSP/STM32746G-Discovery/stm32746g_discovery.c ****   GPIO_TypeDef*     gpio_led;
 226:Drivers/BSP/STM32746G-Discovery/stm32746g_discovery.c **** 
 227:Drivers/BSP/STM32746G-Discovery/stm32746g_discovery.c ****   if (Led == LED1)
 228:Drivers/BSP/STM32746G-Discovery/stm32746g_discovery.c ****   {
 229:Drivers/BSP/STM32746G-Discovery/stm32746g_discovery.c ****     gpio_led = LED1_GPIO_PORT;
 230:Drivers/BSP/STM32746G-Discovery/stm32746g_discovery.c ****     /* Turn off LED */
 231:Drivers/BSP/STM32746G-Discovery/stm32746g_discovery.c ****     HAL_GPIO_WritePin(gpio_led, GPIO_PIN[Led], GPIO_PIN_RESET);
 232:Drivers/BSP/STM32746G-Discovery/stm32746g_discovery.c ****     /* Configure the GPIO_LED pin */
 233:Drivers/BSP/STM32746G-Discovery/stm32746g_discovery.c ****     gpio_init_structure.Pin = GPIO_PIN[Led];
 234:Drivers/BSP/STM32746G-Discovery/stm32746g_discovery.c ****     HAL_GPIO_DeInit(gpio_led, gpio_init_structure.Pin);
 235:Drivers/BSP/STM32746G-Discovery/stm32746g_discovery.c ****   }
 236:Drivers/BSP/STM32746G-Discovery/stm32746g_discovery.c **** }
 237:Drivers/BSP/STM32746G-Discovery/stm32746g_discovery.c **** 
 238:Drivers/BSP/STM32746G-Discovery/stm32746g_discovery.c **** /**
 239:Drivers/BSP/STM32746G-Discovery/stm32746g_discovery.c ****   * @brief  Turns selected LED On.
 240:Drivers/BSP/STM32746G-Discovery/stm32746g_discovery.c ****   * @param  Led: LED to be set on 
 241:Drivers/BSP/STM32746G-Discovery/stm32746g_discovery.c ****   *          This parameter can be one of the following values:
 242:Drivers/BSP/STM32746G-Discovery/stm32746g_discovery.c ****   *            @arg  LED1
 243:Drivers/BSP/STM32746G-Discovery/stm32746g_discovery.c ****   * @retval None
 244:Drivers/BSP/STM32746G-Discovery/stm32746g_discovery.c ****   */
 245:Drivers/BSP/STM32746G-Discovery/stm32746g_discovery.c **** void BSP_LED_On(Led_TypeDef Led)
 246:Drivers/BSP/STM32746G-Discovery/stm32746g_discovery.c **** {
 247:Drivers/BSP/STM32746G-Discovery/stm32746g_discovery.c ****   GPIO_TypeDef*     gpio_led;
 248:Drivers/BSP/STM32746G-Discovery/stm32746g_discovery.c **** 
 249:Drivers/BSP/STM32746G-Discovery/stm32746g_discovery.c ****   if (Led == LED1)	/* Switch On LED connected to GPIO */
 250:Drivers/BSP/STM32746G-Discovery/stm32746g_discovery.c ****   {
 251:Drivers/BSP/STM32746G-Discovery/stm32746g_discovery.c ****     gpio_led = LED1_GPIO_PORT;
 252:Drivers/BSP/STM32746G-Discovery/stm32746g_discovery.c ****     HAL_GPIO_WritePin(gpio_led, GPIO_PIN[Led], GPIO_PIN_SET);
 253:Drivers/BSP/STM32746G-Discovery/stm32746g_discovery.c ****   }
 254:Drivers/BSP/STM32746G-Discovery/stm32746g_discovery.c **** }
 255:Drivers/BSP/STM32746G-Discovery/stm32746g_discovery.c **** 
 256:Drivers/BSP/STM32746G-Discovery/stm32746g_discovery.c **** /**
 257:Drivers/BSP/STM32746G-Discovery/stm32746g_discovery.c ****   * @brief  Turns selected LED Off. 
 258:Drivers/BSP/STM32746G-Discovery/stm32746g_discovery.c ****   * @param  Led: LED to be set off
ARM GAS  /var/folders/yz/w8msd8211qzc60m57tpkzbn80000gn/T//ccRVvTE8.s 			page 6


 259:Drivers/BSP/STM32746G-Discovery/stm32746g_discovery.c ****   *          This parameter can be one of the following values:
 260:Drivers/BSP/STM32746G-Discovery/stm32746g_discovery.c ****   *            @arg  LED1
 261:Drivers/BSP/STM32746G-Discovery/stm32746g_discovery.c ****   * @retval None
 262:Drivers/BSP/STM32746G-Discovery/stm32746g_discovery.c ****   */
 263:Drivers/BSP/STM32746G-Discovery/stm32746g_discovery.c **** void BSP_LED_Off(Led_TypeDef Led)
 264:Drivers/BSP/STM32746G-Discovery/stm32746g_discovery.c **** {
 265:Drivers/BSP/STM32746G-Discovery/stm32746g_discovery.c ****   GPIO_TypeDef*     gpio_led;
 266:Drivers/BSP/STM32746G-Discovery/stm32746g_discovery.c **** 
 267:Drivers/BSP/STM32746G-Discovery/stm32746g_discovery.c ****   if (Led == LED1) /* Switch Off LED connected to GPIO */
 268:Drivers/BSP/STM32746G-Discovery/stm32746g_discovery.c ****   {
 269:Drivers/BSP/STM32746G-Discovery/stm32746g_discovery.c ****     gpio_led = LED1_GPIO_PORT;
 270:Drivers/BSP/STM32746G-Discovery/stm32746g_discovery.c ****     HAL_GPIO_WritePin(gpio_led, GPIO_PIN[Led], GPIO_PIN_RESET);
 271:Drivers/BSP/STM32746G-Discovery/stm32746g_discovery.c ****   }
 272:Drivers/BSP/STM32746G-Discovery/stm32746g_discovery.c **** }
 273:Drivers/BSP/STM32746G-Discovery/stm32746g_discovery.c **** 
 274:Drivers/BSP/STM32746G-Discovery/stm32746g_discovery.c **** /**
 275:Drivers/BSP/STM32746G-Discovery/stm32746g_discovery.c ****   * @brief  Toggles the selected LED.
 276:Drivers/BSP/STM32746G-Discovery/stm32746g_discovery.c ****   * @param  Led: LED to be toggled
 277:Drivers/BSP/STM32746G-Discovery/stm32746g_discovery.c ****   *          This parameter can be one of the following values:
 278:Drivers/BSP/STM32746G-Discovery/stm32746g_discovery.c ****   *            @arg  LED1
 279:Drivers/BSP/STM32746G-Discovery/stm32746g_discovery.c ****   * @retval None
 280:Drivers/BSP/STM32746G-Discovery/stm32746g_discovery.c ****   */
 281:Drivers/BSP/STM32746G-Discovery/stm32746g_discovery.c **** void BSP_LED_Toggle(Led_TypeDef Led)
 282:Drivers/BSP/STM32746G-Discovery/stm32746g_discovery.c **** {
 283:Drivers/BSP/STM32746G-Discovery/stm32746g_discovery.c ****   GPIO_TypeDef*     gpio_led;
 284:Drivers/BSP/STM32746G-Discovery/stm32746g_discovery.c **** 
 285:Drivers/BSP/STM32746G-Discovery/stm32746g_discovery.c ****   if (Led == LED1)	/* Toggle LED connected to GPIO */
 286:Drivers/BSP/STM32746G-Discovery/stm32746g_discovery.c ****   {
 287:Drivers/BSP/STM32746G-Discovery/stm32746g_discovery.c ****     gpio_led = LED1_GPIO_PORT;
 288:Drivers/BSP/STM32746G-Discovery/stm32746g_discovery.c ****     HAL_GPIO_TogglePin(gpio_led, GPIO_PIN[Led]);
 289:Drivers/BSP/STM32746G-Discovery/stm32746g_discovery.c ****   }
 290:Drivers/BSP/STM32746G-Discovery/stm32746g_discovery.c **** }
 291:Drivers/BSP/STM32746G-Discovery/stm32746g_discovery.c **** 
 292:Drivers/BSP/STM32746G-Discovery/stm32746g_discovery.c **** /**
 293:Drivers/BSP/STM32746G-Discovery/stm32746g_discovery.c ****   * @brief  Configures button GPIO and EXTI Line.
 294:Drivers/BSP/STM32746G-Discovery/stm32746g_discovery.c ****   * @param  Button: Button to be configured
 295:Drivers/BSP/STM32746G-Discovery/stm32746g_discovery.c ****   *          This parameter can be one of the following values:
 296:Drivers/BSP/STM32746G-Discovery/stm32746g_discovery.c ****   *            @arg  BUTTON_WAKEUP: Wakeup Push Button 
 297:Drivers/BSP/STM32746G-Discovery/stm32746g_discovery.c ****   *            @arg  BUTTON_TAMPER: Tamper Push Button  
 298:Drivers/BSP/STM32746G-Discovery/stm32746g_discovery.c ****   *            @arg  BUTTON_KEY: Key Push Button
 299:Drivers/BSP/STM32746G-Discovery/stm32746g_discovery.c ****   * @param  ButtonMode: Button mode
 300:Drivers/BSP/STM32746G-Discovery/stm32746g_discovery.c ****   *          This parameter can be one of the following values:
 301:Drivers/BSP/STM32746G-Discovery/stm32746g_discovery.c ****   *            @arg  BUTTON_MODE_GPIO: Button will be used as simple IO
 302:Drivers/BSP/STM32746G-Discovery/stm32746g_discovery.c ****   *            @arg  BUTTON_MODE_EXTI: Button will be connected to EXTI line 
 303:Drivers/BSP/STM32746G-Discovery/stm32746g_discovery.c ****   *                                    with interrupt generation capability
 304:Drivers/BSP/STM32746G-Discovery/stm32746g_discovery.c ****   * @note On STM32746G-Discovery board, the three buttons (Wakeup, Tamper and key buttons)
 305:Drivers/BSP/STM32746G-Discovery/stm32746g_discovery.c ****   *       are mapped on the same push button named "User"
 306:Drivers/BSP/STM32746G-Discovery/stm32746g_discovery.c ****   *       on the board serigraphy.
 307:Drivers/BSP/STM32746G-Discovery/stm32746g_discovery.c ****   * @retval None
 308:Drivers/BSP/STM32746G-Discovery/stm32746g_discovery.c ****   */
 309:Drivers/BSP/STM32746G-Discovery/stm32746g_discovery.c **** void BSP_PB_Init(Button_TypeDef Button, ButtonMode_TypeDef ButtonMode)
 310:Drivers/BSP/STM32746G-Discovery/stm32746g_discovery.c **** {
 311:Drivers/BSP/STM32746G-Discovery/stm32746g_discovery.c ****   GPIO_InitTypeDef gpio_init_structure;
 312:Drivers/BSP/STM32746G-Discovery/stm32746g_discovery.c ****   
 313:Drivers/BSP/STM32746G-Discovery/stm32746g_discovery.c ****   /* Enable the BUTTON clock */
 314:Drivers/BSP/STM32746G-Discovery/stm32746g_discovery.c ****   BUTTONx_GPIO_CLK_ENABLE(Button);
 315:Drivers/BSP/STM32746G-Discovery/stm32746g_discovery.c ****   
ARM GAS  /var/folders/yz/w8msd8211qzc60m57tpkzbn80000gn/T//ccRVvTE8.s 			page 7


 316:Drivers/BSP/STM32746G-Discovery/stm32746g_discovery.c ****   if(ButtonMode == BUTTON_MODE_GPIO)
 317:Drivers/BSP/STM32746G-Discovery/stm32746g_discovery.c ****   {
 318:Drivers/BSP/STM32746G-Discovery/stm32746g_discovery.c ****     /* Configure Button pin as input */
 319:Drivers/BSP/STM32746G-Discovery/stm32746g_discovery.c ****     gpio_init_structure.Pin = BUTTON_PIN[Button];
 320:Drivers/BSP/STM32746G-Discovery/stm32746g_discovery.c ****     gpio_init_structure.Mode = GPIO_MODE_INPUT;
 321:Drivers/BSP/STM32746G-Discovery/stm32746g_discovery.c ****     gpio_init_structure.Pull = GPIO_NOPULL;
 322:Drivers/BSP/STM32746G-Discovery/stm32746g_discovery.c ****     gpio_init_structure.Speed = GPIO_SPEED_FAST;
 323:Drivers/BSP/STM32746G-Discovery/stm32746g_discovery.c ****     HAL_GPIO_Init(BUTTON_PORT[Button], &gpio_init_structure);
 324:Drivers/BSP/STM32746G-Discovery/stm32746g_discovery.c ****   }
 325:Drivers/BSP/STM32746G-Discovery/stm32746g_discovery.c ****   
 326:Drivers/BSP/STM32746G-Discovery/stm32746g_discovery.c ****   if(ButtonMode == BUTTON_MODE_EXTI)
 327:Drivers/BSP/STM32746G-Discovery/stm32746g_discovery.c ****   {
 328:Drivers/BSP/STM32746G-Discovery/stm32746g_discovery.c ****     /* Configure Button pin as input with External interrupt */
 329:Drivers/BSP/STM32746G-Discovery/stm32746g_discovery.c ****     gpio_init_structure.Pin = BUTTON_PIN[Button];
 330:Drivers/BSP/STM32746G-Discovery/stm32746g_discovery.c ****     gpio_init_structure.Pull = GPIO_NOPULL;
 331:Drivers/BSP/STM32746G-Discovery/stm32746g_discovery.c ****     gpio_init_structure.Speed = GPIO_SPEED_FAST;
 332:Drivers/BSP/STM32746G-Discovery/stm32746g_discovery.c ****     
 333:Drivers/BSP/STM32746G-Discovery/stm32746g_discovery.c ****     if(Button != BUTTON_WAKEUP)
 334:Drivers/BSP/STM32746G-Discovery/stm32746g_discovery.c ****     {
 335:Drivers/BSP/STM32746G-Discovery/stm32746g_discovery.c ****       gpio_init_structure.Mode = GPIO_MODE_IT_FALLING; 
 336:Drivers/BSP/STM32746G-Discovery/stm32746g_discovery.c ****     }
 337:Drivers/BSP/STM32746G-Discovery/stm32746g_discovery.c ****     else
 338:Drivers/BSP/STM32746G-Discovery/stm32746g_discovery.c ****     {
 339:Drivers/BSP/STM32746G-Discovery/stm32746g_discovery.c ****       gpio_init_structure.Mode = GPIO_MODE_IT_RISING;
 340:Drivers/BSP/STM32746G-Discovery/stm32746g_discovery.c ****     }
 341:Drivers/BSP/STM32746G-Discovery/stm32746g_discovery.c ****     
 342:Drivers/BSP/STM32746G-Discovery/stm32746g_discovery.c ****     HAL_GPIO_Init(BUTTON_PORT[Button], &gpio_init_structure);
 343:Drivers/BSP/STM32746G-Discovery/stm32746g_discovery.c ****     
 344:Drivers/BSP/STM32746G-Discovery/stm32746g_discovery.c ****     /* Enable and set Button EXTI Interrupt to the lowest priority */
 345:Drivers/BSP/STM32746G-Discovery/stm32746g_discovery.c ****     HAL_NVIC_SetPriority((IRQn_Type)(BUTTON_IRQn[Button]), 0x0F, 0x00);
 346:Drivers/BSP/STM32746G-Discovery/stm32746g_discovery.c ****     HAL_NVIC_EnableIRQ((IRQn_Type)(BUTTON_IRQn[Button]));
 347:Drivers/BSP/STM32746G-Discovery/stm32746g_discovery.c ****   }
 348:Drivers/BSP/STM32746G-Discovery/stm32746g_discovery.c **** }
 349:Drivers/BSP/STM32746G-Discovery/stm32746g_discovery.c **** 
 350:Drivers/BSP/STM32746G-Discovery/stm32746g_discovery.c **** /**
 351:Drivers/BSP/STM32746G-Discovery/stm32746g_discovery.c ****   * @brief  Push Button DeInit.
 352:Drivers/BSP/STM32746G-Discovery/stm32746g_discovery.c ****   * @param  Button: Button to be configured
 353:Drivers/BSP/STM32746G-Discovery/stm32746g_discovery.c ****   *          This parameter can be one of the following values:
 354:Drivers/BSP/STM32746G-Discovery/stm32746g_discovery.c ****   *            @arg  BUTTON_WAKEUP: Wakeup Push Button 
 355:Drivers/BSP/STM32746G-Discovery/stm32746g_discovery.c ****   *            @arg  BUTTON_TAMPER: Tamper Push Button  
 356:Drivers/BSP/STM32746G-Discovery/stm32746g_discovery.c ****   *            @arg  BUTTON_KEY: Key Push Button
 357:Drivers/BSP/STM32746G-Discovery/stm32746g_discovery.c ****   * @note On STM32746G-Discovery board, the three buttons (Wakeup, Tamper and key buttons) 
 358:Drivers/BSP/STM32746G-Discovery/stm32746g_discovery.c ****   *       are mapped on the same push button named "User"
 359:Drivers/BSP/STM32746G-Discovery/stm32746g_discovery.c ****   *       on the board serigraphy.
 360:Drivers/BSP/STM32746G-Discovery/stm32746g_discovery.c ****   * @note PB DeInit does not disable the GPIO clock
 361:Drivers/BSP/STM32746G-Discovery/stm32746g_discovery.c ****   * @retval None
 362:Drivers/BSP/STM32746G-Discovery/stm32746g_discovery.c ****   */
 363:Drivers/BSP/STM32746G-Discovery/stm32746g_discovery.c **** void BSP_PB_DeInit(Button_TypeDef Button)
 364:Drivers/BSP/STM32746G-Discovery/stm32746g_discovery.c **** {
 365:Drivers/BSP/STM32746G-Discovery/stm32746g_discovery.c ****     GPIO_InitTypeDef gpio_init_structure;
 366:Drivers/BSP/STM32746G-Discovery/stm32746g_discovery.c **** 
 367:Drivers/BSP/STM32746G-Discovery/stm32746g_discovery.c ****     gpio_init_structure.Pin = BUTTON_PIN[Button];
 368:Drivers/BSP/STM32746G-Discovery/stm32746g_discovery.c ****     HAL_NVIC_DisableIRQ((IRQn_Type)(BUTTON_IRQn[Button]));
 369:Drivers/BSP/STM32746G-Discovery/stm32746g_discovery.c ****     HAL_GPIO_DeInit(BUTTON_PORT[Button], gpio_init_structure.Pin);
 370:Drivers/BSP/STM32746G-Discovery/stm32746g_discovery.c **** }
 371:Drivers/BSP/STM32746G-Discovery/stm32746g_discovery.c **** 
 372:Drivers/BSP/STM32746G-Discovery/stm32746g_discovery.c **** 
ARM GAS  /var/folders/yz/w8msd8211qzc60m57tpkzbn80000gn/T//ccRVvTE8.s 			page 8


 373:Drivers/BSP/STM32746G-Discovery/stm32746g_discovery.c **** /**
 374:Drivers/BSP/STM32746G-Discovery/stm32746g_discovery.c ****   * @brief  Returns the selected button state.
 375:Drivers/BSP/STM32746G-Discovery/stm32746g_discovery.c ****   * @param  Button: Button to be checked
 376:Drivers/BSP/STM32746G-Discovery/stm32746g_discovery.c ****   *          This parameter can be one of the following values:
 377:Drivers/BSP/STM32746G-Discovery/stm32746g_discovery.c ****   *            @arg  BUTTON_WAKEUP: Wakeup Push Button 
 378:Drivers/BSP/STM32746G-Discovery/stm32746g_discovery.c ****   *            @arg  BUTTON_TAMPER: Tamper Push Button 
 379:Drivers/BSP/STM32746G-Discovery/stm32746g_discovery.c ****   *            @arg  BUTTON_KEY: Key Push Button
 380:Drivers/BSP/STM32746G-Discovery/stm32746g_discovery.c ****   * @note On STM32746G-Discovery board, the three buttons (Wakeup, Tamper and key buttons) 
 381:Drivers/BSP/STM32746G-Discovery/stm32746g_discovery.c ****   *       are mapped on the same push button named "User"
 382:Drivers/BSP/STM32746G-Discovery/stm32746g_discovery.c ****   *       on the board serigraphy.
 383:Drivers/BSP/STM32746G-Discovery/stm32746g_discovery.c ****   * @retval The Button GPIO pin value
 384:Drivers/BSP/STM32746G-Discovery/stm32746g_discovery.c ****   */
 385:Drivers/BSP/STM32746G-Discovery/stm32746g_discovery.c **** uint32_t BSP_PB_GetState(Button_TypeDef Button)
 386:Drivers/BSP/STM32746G-Discovery/stm32746g_discovery.c **** {
 387:Drivers/BSP/STM32746G-Discovery/stm32746g_discovery.c ****   return HAL_GPIO_ReadPin(BUTTON_PORT[Button], BUTTON_PIN[Button]);
 388:Drivers/BSP/STM32746G-Discovery/stm32746g_discovery.c **** }
 389:Drivers/BSP/STM32746G-Discovery/stm32746g_discovery.c **** 
 390:Drivers/BSP/STM32746G-Discovery/stm32746g_discovery.c **** /**
 391:Drivers/BSP/STM32746G-Discovery/stm32746g_discovery.c ****   * @brief  Configures COM port.
 392:Drivers/BSP/STM32746G-Discovery/stm32746g_discovery.c ****   * @param  COM: COM port to be configured.
 393:Drivers/BSP/STM32746G-Discovery/stm32746g_discovery.c ****   *          This parameter can be one of the following values:
 394:Drivers/BSP/STM32746G-Discovery/stm32746g_discovery.c ****   *            @arg  COM1 
 395:Drivers/BSP/STM32746G-Discovery/stm32746g_discovery.c ****   *            @arg  COM2 
 396:Drivers/BSP/STM32746G-Discovery/stm32746g_discovery.c ****   * @param  huart: Pointer to a UART_HandleTypeDef structure that contains the
 397:Drivers/BSP/STM32746G-Discovery/stm32746g_discovery.c ****   *                configuration information for the specified USART peripheral.
 398:Drivers/BSP/STM32746G-Discovery/stm32746g_discovery.c ****   * @retval None
 399:Drivers/BSP/STM32746G-Discovery/stm32746g_discovery.c ****   */
 400:Drivers/BSP/STM32746G-Discovery/stm32746g_discovery.c **** void BSP_COM_Init(COM_TypeDef COM, UART_HandleTypeDef *huart)
 401:Drivers/BSP/STM32746G-Discovery/stm32746g_discovery.c **** {
 402:Drivers/BSP/STM32746G-Discovery/stm32746g_discovery.c ****   GPIO_InitTypeDef gpio_init_structure;
 403:Drivers/BSP/STM32746G-Discovery/stm32746g_discovery.c **** 
 404:Drivers/BSP/STM32746G-Discovery/stm32746g_discovery.c ****   /* Enable GPIO clock */
 405:Drivers/BSP/STM32746G-Discovery/stm32746g_discovery.c ****   DISCOVERY_COMx_TX_GPIO_CLK_ENABLE(COM);
 406:Drivers/BSP/STM32746G-Discovery/stm32746g_discovery.c ****   DISCOVERY_COMx_RX_GPIO_CLK_ENABLE(COM);
 407:Drivers/BSP/STM32746G-Discovery/stm32746g_discovery.c **** 
 408:Drivers/BSP/STM32746G-Discovery/stm32746g_discovery.c ****   /* Enable USART clock */
 409:Drivers/BSP/STM32746G-Discovery/stm32746g_discovery.c ****   DISCOVERY_COMx_CLK_ENABLE(COM);
 410:Drivers/BSP/STM32746G-Discovery/stm32746g_discovery.c **** 
 411:Drivers/BSP/STM32746G-Discovery/stm32746g_discovery.c ****   /* Configure USART Tx as alternate function */
 412:Drivers/BSP/STM32746G-Discovery/stm32746g_discovery.c ****   gpio_init_structure.Pin = COM_TX_PIN[COM];
 413:Drivers/BSP/STM32746G-Discovery/stm32746g_discovery.c ****   gpio_init_structure.Mode = GPIO_MODE_AF_PP;
 414:Drivers/BSP/STM32746G-Discovery/stm32746g_discovery.c ****   gpio_init_structure.Speed = GPIO_SPEED_FAST;
 415:Drivers/BSP/STM32746G-Discovery/stm32746g_discovery.c ****   gpio_init_structure.Pull = GPIO_PULLUP;
 416:Drivers/BSP/STM32746G-Discovery/stm32746g_discovery.c ****   gpio_init_structure.Alternate = COM_TX_AF[COM];
 417:Drivers/BSP/STM32746G-Discovery/stm32746g_discovery.c ****   HAL_GPIO_Init(COM_TX_PORT[COM], &gpio_init_structure);
 418:Drivers/BSP/STM32746G-Discovery/stm32746g_discovery.c **** 
 419:Drivers/BSP/STM32746G-Discovery/stm32746g_discovery.c ****   /* Configure USART Rx as alternate function */
 420:Drivers/BSP/STM32746G-Discovery/stm32746g_discovery.c ****   gpio_init_structure.Pin = COM_RX_PIN[COM];
 421:Drivers/BSP/STM32746G-Discovery/stm32746g_discovery.c ****   gpio_init_structure.Mode = GPIO_MODE_AF_PP;
 422:Drivers/BSP/STM32746G-Discovery/stm32746g_discovery.c ****   gpio_init_structure.Alternate = COM_RX_AF[COM];
 423:Drivers/BSP/STM32746G-Discovery/stm32746g_discovery.c ****   HAL_GPIO_Init(COM_RX_PORT[COM], &gpio_init_structure);
 424:Drivers/BSP/STM32746G-Discovery/stm32746g_discovery.c **** 
 425:Drivers/BSP/STM32746G-Discovery/stm32746g_discovery.c ****   /* USART configuration */
 426:Drivers/BSP/STM32746G-Discovery/stm32746g_discovery.c ****   huart->Instance = COM_USART[COM];
 427:Drivers/BSP/STM32746G-Discovery/stm32746g_discovery.c ****   HAL_UART_Init(huart);
 428:Drivers/BSP/STM32746G-Discovery/stm32746g_discovery.c **** }
 429:Drivers/BSP/STM32746G-Discovery/stm32746g_discovery.c **** 
ARM GAS  /var/folders/yz/w8msd8211qzc60m57tpkzbn80000gn/T//ccRVvTE8.s 			page 9


 430:Drivers/BSP/STM32746G-Discovery/stm32746g_discovery.c **** /**
 431:Drivers/BSP/STM32746G-Discovery/stm32746g_discovery.c ****   * @brief  DeInit COM port.
 432:Drivers/BSP/STM32746G-Discovery/stm32746g_discovery.c ****   * @param  COM: COM port to be configured.
 433:Drivers/BSP/STM32746G-Discovery/stm32746g_discovery.c ****   *          This parameter can be one of the following values:
 434:Drivers/BSP/STM32746G-Discovery/stm32746g_discovery.c ****   *            @arg  COM1 
 435:Drivers/BSP/STM32746G-Discovery/stm32746g_discovery.c ****   *            @arg  COM2 
 436:Drivers/BSP/STM32746G-Discovery/stm32746g_discovery.c ****   * @param  huart: Pointer to a UART_HandleTypeDef structure that contains the
 437:Drivers/BSP/STM32746G-Discovery/stm32746g_discovery.c ****   *                configuration information for the specified USART peripheral.
 438:Drivers/BSP/STM32746G-Discovery/stm32746g_discovery.c ****   * @retval None
 439:Drivers/BSP/STM32746G-Discovery/stm32746g_discovery.c ****   */
 440:Drivers/BSP/STM32746G-Discovery/stm32746g_discovery.c **** void BSP_COM_DeInit(COM_TypeDef COM, UART_HandleTypeDef *huart)
 441:Drivers/BSP/STM32746G-Discovery/stm32746g_discovery.c **** {
 442:Drivers/BSP/STM32746G-Discovery/stm32746g_discovery.c ****   /* USART configuration */
 443:Drivers/BSP/STM32746G-Discovery/stm32746g_discovery.c ****   huart->Instance = COM_USART[COM];
 444:Drivers/BSP/STM32746G-Discovery/stm32746g_discovery.c ****   HAL_UART_DeInit(huart);
 445:Drivers/BSP/STM32746G-Discovery/stm32746g_discovery.c **** 
 446:Drivers/BSP/STM32746G-Discovery/stm32746g_discovery.c ****   /* Enable USART clock */
 447:Drivers/BSP/STM32746G-Discovery/stm32746g_discovery.c ****   DISCOVERY_COMx_CLK_DISABLE(COM);
 448:Drivers/BSP/STM32746G-Discovery/stm32746g_discovery.c **** 
 449:Drivers/BSP/STM32746G-Discovery/stm32746g_discovery.c ****   /* DeInit GPIO pins can be done in the application 
 450:Drivers/BSP/STM32746G-Discovery/stm32746g_discovery.c ****      (by surcharging this __weak function) */
 451:Drivers/BSP/STM32746G-Discovery/stm32746g_discovery.c **** 
 452:Drivers/BSP/STM32746G-Discovery/stm32746g_discovery.c ****   /* GPIO pins clock, DMA clock can be shut down in the application 
 453:Drivers/BSP/STM32746G-Discovery/stm32746g_discovery.c ****      by surcharging this __weak function */
 454:Drivers/BSP/STM32746G-Discovery/stm32746g_discovery.c **** }
 455:Drivers/BSP/STM32746G-Discovery/stm32746g_discovery.c **** 
 456:Drivers/BSP/STM32746G-Discovery/stm32746g_discovery.c **** /*******************************************************************************
 457:Drivers/BSP/STM32746G-Discovery/stm32746g_discovery.c ****                             BUS OPERATIONS
 458:Drivers/BSP/STM32746G-Discovery/stm32746g_discovery.c **** *******************************************************************************/
 459:Drivers/BSP/STM32746G-Discovery/stm32746g_discovery.c **** 
 460:Drivers/BSP/STM32746G-Discovery/stm32746g_discovery.c **** /******************************* I2C Routines *********************************/
 461:Drivers/BSP/STM32746G-Discovery/stm32746g_discovery.c **** /**
 462:Drivers/BSP/STM32746G-Discovery/stm32746g_discovery.c ****   * @brief  Initializes I2C MSP.
 463:Drivers/BSP/STM32746G-Discovery/stm32746g_discovery.c ****   * @param  i2c_handler : I2C handler
 464:Drivers/BSP/STM32746G-Discovery/stm32746g_discovery.c ****   * @retval None
 465:Drivers/BSP/STM32746G-Discovery/stm32746g_discovery.c ****   */
 466:Drivers/BSP/STM32746G-Discovery/stm32746g_discovery.c **** static void I2Cx_MspInit(I2C_HandleTypeDef *i2c_handler)
 467:Drivers/BSP/STM32746G-Discovery/stm32746g_discovery.c **** {
  29              		.loc 1 467 1 view -0
  30              		.cfi_startproc
  31              		@ args = 0, pretend = 0, frame = 40
  32              		@ frame_needed = 0, uses_anonymous_args = 0
  33              		.loc 1 467 1 is_stmt 0 view .LVU1
  34 0000 70B5     		push	{r4, r5, r6, lr}
  35              	.LCFI0:
  36              		.cfi_def_cfa_offset 16
  37              		.cfi_offset 4, -16
  38              		.cfi_offset 5, -12
  39              		.cfi_offset 6, -8
  40              		.cfi_offset 14, -4
  41 0002 8AB0     		sub	sp, sp, #40
  42              	.LCFI1:
  43              		.cfi_def_cfa_offset 56
 468:Drivers/BSP/STM32746G-Discovery/stm32746g_discovery.c ****   GPIO_InitTypeDef  gpio_init_structure;
  44              		.loc 1 468 3 is_stmt 1 view .LVU2
 469:Drivers/BSP/STM32746G-Discovery/stm32746g_discovery.c ****   
 470:Drivers/BSP/STM32746G-Discovery/stm32746g_discovery.c ****   if (i2c_handler == (I2C_HandleTypeDef*)(&hI2cAudioHandler))
ARM GAS  /var/folders/yz/w8msd8211qzc60m57tpkzbn80000gn/T//ccRVvTE8.s 			page 10


  45              		.loc 1 470 3 view .LVU3
  46              		.loc 1 470 6 is_stmt 0 view .LVU4
  47 0004 444B     		ldr	r3, .L6
  48 0006 8342     		cmp	r3, r0
  49 0008 43D0     		beq	.L5
 471:Drivers/BSP/STM32746G-Discovery/stm32746g_discovery.c ****   {
 472:Drivers/BSP/STM32746G-Discovery/stm32746g_discovery.c ****     /* AUDIO and LCD I2C MSP init */
 473:Drivers/BSP/STM32746G-Discovery/stm32746g_discovery.c **** 
 474:Drivers/BSP/STM32746G-Discovery/stm32746g_discovery.c ****     /*** Configure the GPIOs ***/
 475:Drivers/BSP/STM32746G-Discovery/stm32746g_discovery.c ****     /* Enable GPIO clock */
 476:Drivers/BSP/STM32746G-Discovery/stm32746g_discovery.c ****     DISCOVERY_AUDIO_I2Cx_SCL_SDA_GPIO_CLK_ENABLE();
 477:Drivers/BSP/STM32746G-Discovery/stm32746g_discovery.c **** 
 478:Drivers/BSP/STM32746G-Discovery/stm32746g_discovery.c ****     /* Configure I2C Tx as alternate function */
 479:Drivers/BSP/STM32746G-Discovery/stm32746g_discovery.c ****     gpio_init_structure.Pin = DISCOVERY_AUDIO_I2Cx_SCL_PIN;
 480:Drivers/BSP/STM32746G-Discovery/stm32746g_discovery.c ****     gpio_init_structure.Mode = GPIO_MODE_AF_OD;
 481:Drivers/BSP/STM32746G-Discovery/stm32746g_discovery.c ****     gpio_init_structure.Pull = GPIO_NOPULL;
 482:Drivers/BSP/STM32746G-Discovery/stm32746g_discovery.c ****     gpio_init_structure.Speed = GPIO_SPEED_FAST;
 483:Drivers/BSP/STM32746G-Discovery/stm32746g_discovery.c ****     gpio_init_structure.Alternate = DISCOVERY_AUDIO_I2Cx_SCL_SDA_AF;
 484:Drivers/BSP/STM32746G-Discovery/stm32746g_discovery.c ****     HAL_GPIO_Init(DISCOVERY_AUDIO_I2Cx_SCL_SDA_GPIO_PORT, &gpio_init_structure);
 485:Drivers/BSP/STM32746G-Discovery/stm32746g_discovery.c **** 
 486:Drivers/BSP/STM32746G-Discovery/stm32746g_discovery.c ****     /* Configure I2C Rx as alternate function */
 487:Drivers/BSP/STM32746G-Discovery/stm32746g_discovery.c ****     gpio_init_structure.Pin = DISCOVERY_AUDIO_I2Cx_SDA_PIN;
 488:Drivers/BSP/STM32746G-Discovery/stm32746g_discovery.c ****     HAL_GPIO_Init(DISCOVERY_AUDIO_I2Cx_SCL_SDA_GPIO_PORT, &gpio_init_structure);
 489:Drivers/BSP/STM32746G-Discovery/stm32746g_discovery.c **** 
 490:Drivers/BSP/STM32746G-Discovery/stm32746g_discovery.c ****     /*** Configure the I2C peripheral ***/
 491:Drivers/BSP/STM32746G-Discovery/stm32746g_discovery.c ****     /* Enable I2C clock */
 492:Drivers/BSP/STM32746G-Discovery/stm32746g_discovery.c ****     DISCOVERY_AUDIO_I2Cx_CLK_ENABLE();
 493:Drivers/BSP/STM32746G-Discovery/stm32746g_discovery.c **** 
 494:Drivers/BSP/STM32746G-Discovery/stm32746g_discovery.c ****     /* Force the I2C peripheral clock reset */
 495:Drivers/BSP/STM32746G-Discovery/stm32746g_discovery.c ****     DISCOVERY_AUDIO_I2Cx_FORCE_RESET();
 496:Drivers/BSP/STM32746G-Discovery/stm32746g_discovery.c **** 
 497:Drivers/BSP/STM32746G-Discovery/stm32746g_discovery.c ****     /* Release the I2C peripheral clock reset */
 498:Drivers/BSP/STM32746G-Discovery/stm32746g_discovery.c ****     DISCOVERY_AUDIO_I2Cx_RELEASE_RESET();
 499:Drivers/BSP/STM32746G-Discovery/stm32746g_discovery.c **** 
 500:Drivers/BSP/STM32746G-Discovery/stm32746g_discovery.c ****     /* Enable and set I2Cx Interrupt to a lower priority */
 501:Drivers/BSP/STM32746G-Discovery/stm32746g_discovery.c ****     HAL_NVIC_SetPriority(DISCOVERY_AUDIO_I2Cx_EV_IRQn, 0x0F, 0);
 502:Drivers/BSP/STM32746G-Discovery/stm32746g_discovery.c ****     HAL_NVIC_EnableIRQ(DISCOVERY_AUDIO_I2Cx_EV_IRQn);
 503:Drivers/BSP/STM32746G-Discovery/stm32746g_discovery.c **** 
 504:Drivers/BSP/STM32746G-Discovery/stm32746g_discovery.c ****     /* Enable and set I2Cx Interrupt to a lower priority */
 505:Drivers/BSP/STM32746G-Discovery/stm32746g_discovery.c ****     HAL_NVIC_SetPriority(DISCOVERY_AUDIO_I2Cx_ER_IRQn, 0x0F, 0);
 506:Drivers/BSP/STM32746G-Discovery/stm32746g_discovery.c ****     HAL_NVIC_EnableIRQ(DISCOVERY_AUDIO_I2Cx_ER_IRQn);
 507:Drivers/BSP/STM32746G-Discovery/stm32746g_discovery.c ****   }
 508:Drivers/BSP/STM32746G-Discovery/stm32746g_discovery.c ****   else
 509:Drivers/BSP/STM32746G-Discovery/stm32746g_discovery.c ****   {
 510:Drivers/BSP/STM32746G-Discovery/stm32746g_discovery.c ****     /* External, camera and Arduino connector I2C MSP init */
 511:Drivers/BSP/STM32746G-Discovery/stm32746g_discovery.c **** 
 512:Drivers/BSP/STM32746G-Discovery/stm32746g_discovery.c ****     /*** Configure the GPIOs ***/
 513:Drivers/BSP/STM32746G-Discovery/stm32746g_discovery.c ****     /* Enable GPIO clock */
 514:Drivers/BSP/STM32746G-Discovery/stm32746g_discovery.c ****     DISCOVERY_EXT_I2Cx_SCL_SDA_GPIO_CLK_ENABLE();
  50              		.loc 1 514 5 is_stmt 1 view .LVU5
  51              	.LBB2:
  52              		.loc 1 514 5 view .LVU6
  53              		.loc 1 514 5 view .LVU7
  54 000a 444C     		ldr	r4, .L6+4
  55 000c 236B     		ldr	r3, [r4, #48]
  56 000e 43F00203 		orr	r3, r3, #2
  57 0012 2363     		str	r3, [r4, #48]
ARM GAS  /var/folders/yz/w8msd8211qzc60m57tpkzbn80000gn/T//ccRVvTE8.s 			page 11


  58              		.loc 1 514 5 view .LVU8
  59 0014 236B     		ldr	r3, [r4, #48]
  60 0016 03F00203 		and	r3, r3, #2
  61 001a 0393     		str	r3, [sp, #12]
  62              		.loc 1 514 5 view .LVU9
  63 001c 039B     		ldr	r3, [sp, #12]
  64              	.LBE2:
  65              		.loc 1 514 5 view .LVU10
 515:Drivers/BSP/STM32746G-Discovery/stm32746g_discovery.c **** 
 516:Drivers/BSP/STM32746G-Discovery/stm32746g_discovery.c ****     /* Configure I2C Tx as alternate function */
 517:Drivers/BSP/STM32746G-Discovery/stm32746g_discovery.c ****     gpio_init_structure.Pin = DISCOVERY_EXT_I2Cx_SCL_PIN;
  66              		.loc 1 517 5 view .LVU11
  67              		.loc 1 517 29 is_stmt 0 view .LVU12
  68 001e 4FF48073 		mov	r3, #256
  69 0022 0593     		str	r3, [sp, #20]
 518:Drivers/BSP/STM32746G-Discovery/stm32746g_discovery.c ****     gpio_init_structure.Mode = GPIO_MODE_AF_OD;
  70              		.loc 1 518 5 is_stmt 1 view .LVU13
  71              		.loc 1 518 30 is_stmt 0 view .LVU14
  72 0024 1223     		movs	r3, #18
  73 0026 0693     		str	r3, [sp, #24]
 519:Drivers/BSP/STM32746G-Discovery/stm32746g_discovery.c ****     gpio_init_structure.Pull = GPIO_NOPULL;
  74              		.loc 1 519 5 is_stmt 1 view .LVU15
  75              		.loc 1 519 30 is_stmt 0 view .LVU16
  76 0028 0025     		movs	r5, #0
  77 002a 0795     		str	r5, [sp, #28]
 520:Drivers/BSP/STM32746G-Discovery/stm32746g_discovery.c ****     gpio_init_structure.Speed = GPIO_SPEED_FAST;
  78              		.loc 1 520 5 is_stmt 1 view .LVU17
  79              		.loc 1 520 31 is_stmt 0 view .LVU18
  80 002c 0223     		movs	r3, #2
  81 002e 0893     		str	r3, [sp, #32]
 521:Drivers/BSP/STM32746G-Discovery/stm32746g_discovery.c ****     gpio_init_structure.Alternate = DISCOVERY_EXT_I2Cx_SCL_SDA_AF;
  82              		.loc 1 521 5 is_stmt 1 view .LVU19
  83              		.loc 1 521 35 is_stmt 0 view .LVU20
  84 0030 0423     		movs	r3, #4
  85 0032 0993     		str	r3, [sp, #36]
 522:Drivers/BSP/STM32746G-Discovery/stm32746g_discovery.c ****     HAL_GPIO_Init(DISCOVERY_EXT_I2Cx_SCL_SDA_GPIO_PORT, &gpio_init_structure);
  86              		.loc 1 522 5 is_stmt 1 view .LVU21
  87 0034 3A4E     		ldr	r6, .L6+8
  88 0036 05A9     		add	r1, sp, #20
  89 0038 3046     		mov	r0, r6
  90              	.LVL1:
  91              		.loc 1 522 5 is_stmt 0 view .LVU22
  92 003a FFF7FEFF 		bl	HAL_GPIO_Init
  93              	.LVL2:
 523:Drivers/BSP/STM32746G-Discovery/stm32746g_discovery.c **** 
 524:Drivers/BSP/STM32746G-Discovery/stm32746g_discovery.c ****     /* Configure I2C Rx as alternate function */
 525:Drivers/BSP/STM32746G-Discovery/stm32746g_discovery.c ****     gpio_init_structure.Pin = DISCOVERY_EXT_I2Cx_SDA_PIN;
  94              		.loc 1 525 5 is_stmt 1 view .LVU23
  95              		.loc 1 525 29 is_stmt 0 view .LVU24
  96 003e 4FF40073 		mov	r3, #512
  97 0042 0593     		str	r3, [sp, #20]
 526:Drivers/BSP/STM32746G-Discovery/stm32746g_discovery.c ****     HAL_GPIO_Init(DISCOVERY_EXT_I2Cx_SCL_SDA_GPIO_PORT, &gpio_init_structure);
  98              		.loc 1 526 5 is_stmt 1 view .LVU25
  99 0044 05A9     		add	r1, sp, #20
 100 0046 3046     		mov	r0, r6
 101 0048 FFF7FEFF 		bl	HAL_GPIO_Init
 102              	.LVL3:
ARM GAS  /var/folders/yz/w8msd8211qzc60m57tpkzbn80000gn/T//ccRVvTE8.s 			page 12


 527:Drivers/BSP/STM32746G-Discovery/stm32746g_discovery.c **** 
 528:Drivers/BSP/STM32746G-Discovery/stm32746g_discovery.c ****     /*** Configure the I2C peripheral ***/
 529:Drivers/BSP/STM32746G-Discovery/stm32746g_discovery.c ****     /* Enable I2C clock */
 530:Drivers/BSP/STM32746G-Discovery/stm32746g_discovery.c ****     DISCOVERY_EXT_I2Cx_CLK_ENABLE();
 103              		.loc 1 530 5 view .LVU26
 104              	.LBB3:
 105              		.loc 1 530 5 view .LVU27
 106              		.loc 1 530 5 view .LVU28
 107 004c 236C     		ldr	r3, [r4, #64]
 108 004e 43F40013 		orr	r3, r3, #2097152
 109 0052 2364     		str	r3, [r4, #64]
 110              		.loc 1 530 5 view .LVU29
 111 0054 236C     		ldr	r3, [r4, #64]
 112 0056 03F40013 		and	r3, r3, #2097152
 113 005a 0493     		str	r3, [sp, #16]
 114              		.loc 1 530 5 view .LVU30
 115 005c 049B     		ldr	r3, [sp, #16]
 116              	.LBE3:
 117              		.loc 1 530 5 view .LVU31
 531:Drivers/BSP/STM32746G-Discovery/stm32746g_discovery.c **** 
 532:Drivers/BSP/STM32746G-Discovery/stm32746g_discovery.c ****     /* Force the I2C peripheral clock reset */
 533:Drivers/BSP/STM32746G-Discovery/stm32746g_discovery.c ****     DISCOVERY_EXT_I2Cx_FORCE_RESET();
 118              		.loc 1 533 5 view .LVU32
 119 005e 236A     		ldr	r3, [r4, #32]
 120 0060 43F40013 		orr	r3, r3, #2097152
 121 0064 2362     		str	r3, [r4, #32]
 534:Drivers/BSP/STM32746G-Discovery/stm32746g_discovery.c **** 
 535:Drivers/BSP/STM32746G-Discovery/stm32746g_discovery.c ****     /* Release the I2C peripheral clock reset */
 536:Drivers/BSP/STM32746G-Discovery/stm32746g_discovery.c ****     DISCOVERY_EXT_I2Cx_RELEASE_RESET();
 122              		.loc 1 536 5 view .LVU33
 123 0066 236A     		ldr	r3, [r4, #32]
 124 0068 23F40013 		bic	r3, r3, #2097152
 125 006c 2362     		str	r3, [r4, #32]
 537:Drivers/BSP/STM32746G-Discovery/stm32746g_discovery.c **** 
 538:Drivers/BSP/STM32746G-Discovery/stm32746g_discovery.c ****     /* Enable and set I2Cx Interrupt to a lower priority */
 539:Drivers/BSP/STM32746G-Discovery/stm32746g_discovery.c ****     HAL_NVIC_SetPriority(DISCOVERY_EXT_I2Cx_EV_IRQn, 0x0F, 0);
 126              		.loc 1 539 5 view .LVU34
 127 006e 2A46     		mov	r2, r5
 128 0070 0F21     		movs	r1, #15
 129 0072 1F20     		movs	r0, #31
 130 0074 FFF7FEFF 		bl	HAL_NVIC_SetPriority
 131              	.LVL4:
 540:Drivers/BSP/STM32746G-Discovery/stm32746g_discovery.c ****     HAL_NVIC_EnableIRQ(DISCOVERY_EXT_I2Cx_EV_IRQn);
 132              		.loc 1 540 5 view .LVU35
 133 0078 1F20     		movs	r0, #31
 134 007a FFF7FEFF 		bl	HAL_NVIC_EnableIRQ
 135              	.LVL5:
 541:Drivers/BSP/STM32746G-Discovery/stm32746g_discovery.c **** 
 542:Drivers/BSP/STM32746G-Discovery/stm32746g_discovery.c ****     /* Enable and set I2Cx Interrupt to a lower priority */
 543:Drivers/BSP/STM32746G-Discovery/stm32746g_discovery.c ****     HAL_NVIC_SetPriority(DISCOVERY_EXT_I2Cx_ER_IRQn, 0x0F, 0);
 136              		.loc 1 543 5 view .LVU36
 137 007e 2A46     		mov	r2, r5
 138 0080 0F21     		movs	r1, #15
 139 0082 2020     		movs	r0, #32
 140 0084 FFF7FEFF 		bl	HAL_NVIC_SetPriority
 141              	.LVL6:
 544:Drivers/BSP/STM32746G-Discovery/stm32746g_discovery.c ****     HAL_NVIC_EnableIRQ(DISCOVERY_EXT_I2Cx_ER_IRQn);
ARM GAS  /var/folders/yz/w8msd8211qzc60m57tpkzbn80000gn/T//ccRVvTE8.s 			page 13


 142              		.loc 1 544 5 view .LVU37
 143 0088 2020     		movs	r0, #32
 144 008a FFF7FEFF 		bl	HAL_NVIC_EnableIRQ
 145              	.LVL7:
 146              	.L1:
 545:Drivers/BSP/STM32746G-Discovery/stm32746g_discovery.c ****   }
 546:Drivers/BSP/STM32746G-Discovery/stm32746g_discovery.c **** }
 147              		.loc 1 546 1 is_stmt 0 view .LVU38
 148 008e 0AB0     		add	sp, sp, #40
 149              	.LCFI2:
 150              		.cfi_remember_state
 151              		.cfi_def_cfa_offset 16
 152              		@ sp needed
 153 0090 70BD     		pop	{r4, r5, r6, pc}
 154              	.LVL8:
 155              	.L5:
 156              	.LCFI3:
 157              		.cfi_restore_state
 476:Drivers/BSP/STM32746G-Discovery/stm32746g_discovery.c **** 
 158              		.loc 1 476 5 is_stmt 1 view .LVU39
 159              	.LBB4:
 476:Drivers/BSP/STM32746G-Discovery/stm32746g_discovery.c **** 
 160              		.loc 1 476 5 view .LVU40
 476:Drivers/BSP/STM32746G-Discovery/stm32746g_discovery.c **** 
 161              		.loc 1 476 5 view .LVU41
 162 0092 224C     		ldr	r4, .L6+4
 163 0094 236B     		ldr	r3, [r4, #48]
 164 0096 43F08003 		orr	r3, r3, #128
 165 009a 2363     		str	r3, [r4, #48]
 476:Drivers/BSP/STM32746G-Discovery/stm32746g_discovery.c **** 
 166              		.loc 1 476 5 view .LVU42
 167 009c 236B     		ldr	r3, [r4, #48]
 168 009e 03F08003 		and	r3, r3, #128
 169 00a2 0193     		str	r3, [sp, #4]
 476:Drivers/BSP/STM32746G-Discovery/stm32746g_discovery.c **** 
 170              		.loc 1 476 5 view .LVU43
 171 00a4 019B     		ldr	r3, [sp, #4]
 172              	.LBE4:
 476:Drivers/BSP/STM32746G-Discovery/stm32746g_discovery.c **** 
 173              		.loc 1 476 5 view .LVU44
 479:Drivers/BSP/STM32746G-Discovery/stm32746g_discovery.c ****     gpio_init_structure.Mode = GPIO_MODE_AF_OD;
 174              		.loc 1 479 5 view .LVU45
 479:Drivers/BSP/STM32746G-Discovery/stm32746g_discovery.c ****     gpio_init_structure.Mode = GPIO_MODE_AF_OD;
 175              		.loc 1 479 29 is_stmt 0 view .LVU46
 176 00a6 8023     		movs	r3, #128
 177 00a8 0593     		str	r3, [sp, #20]
 480:Drivers/BSP/STM32746G-Discovery/stm32746g_discovery.c ****     gpio_init_structure.Pull = GPIO_NOPULL;
 178              		.loc 1 480 5 is_stmt 1 view .LVU47
 480:Drivers/BSP/STM32746G-Discovery/stm32746g_discovery.c ****     gpio_init_structure.Pull = GPIO_NOPULL;
 179              		.loc 1 480 30 is_stmt 0 view .LVU48
 180 00aa 1223     		movs	r3, #18
 181 00ac 0693     		str	r3, [sp, #24]
 481:Drivers/BSP/STM32746G-Discovery/stm32746g_discovery.c ****     gpio_init_structure.Speed = GPIO_SPEED_FAST;
 182              		.loc 1 481 5 is_stmt 1 view .LVU49
 481:Drivers/BSP/STM32746G-Discovery/stm32746g_discovery.c ****     gpio_init_structure.Speed = GPIO_SPEED_FAST;
 183              		.loc 1 481 30 is_stmt 0 view .LVU50
 184 00ae 0025     		movs	r5, #0
ARM GAS  /var/folders/yz/w8msd8211qzc60m57tpkzbn80000gn/T//ccRVvTE8.s 			page 14


 185 00b0 0795     		str	r5, [sp, #28]
 482:Drivers/BSP/STM32746G-Discovery/stm32746g_discovery.c ****     gpio_init_structure.Alternate = DISCOVERY_AUDIO_I2Cx_SCL_SDA_AF;
 186              		.loc 1 482 5 is_stmt 1 view .LVU51
 482:Drivers/BSP/STM32746G-Discovery/stm32746g_discovery.c ****     gpio_init_structure.Alternate = DISCOVERY_AUDIO_I2Cx_SCL_SDA_AF;
 187              		.loc 1 482 31 is_stmt 0 view .LVU52
 188 00b2 0223     		movs	r3, #2
 189 00b4 0893     		str	r3, [sp, #32]
 483:Drivers/BSP/STM32746G-Discovery/stm32746g_discovery.c ****     HAL_GPIO_Init(DISCOVERY_AUDIO_I2Cx_SCL_SDA_GPIO_PORT, &gpio_init_structure);
 190              		.loc 1 483 5 is_stmt 1 view .LVU53
 483:Drivers/BSP/STM32746G-Discovery/stm32746g_discovery.c ****     HAL_GPIO_Init(DISCOVERY_AUDIO_I2Cx_SCL_SDA_GPIO_PORT, &gpio_init_structure);
 191              		.loc 1 483 35 is_stmt 0 view .LVU54
 192 00b6 0423     		movs	r3, #4
 193 00b8 0993     		str	r3, [sp, #36]
 484:Drivers/BSP/STM32746G-Discovery/stm32746g_discovery.c **** 
 194              		.loc 1 484 5 is_stmt 1 view .LVU55
 195 00ba 1A4E     		ldr	r6, .L6+12
 196 00bc 05A9     		add	r1, sp, #20
 197 00be 3046     		mov	r0, r6
 198              	.LVL9:
 484:Drivers/BSP/STM32746G-Discovery/stm32746g_discovery.c **** 
 199              		.loc 1 484 5 is_stmt 0 view .LVU56
 200 00c0 FFF7FEFF 		bl	HAL_GPIO_Init
 201              	.LVL10:
 487:Drivers/BSP/STM32746G-Discovery/stm32746g_discovery.c ****     HAL_GPIO_Init(DISCOVERY_AUDIO_I2Cx_SCL_SDA_GPIO_PORT, &gpio_init_structure);
 202              		.loc 1 487 5 is_stmt 1 view .LVU57
 487:Drivers/BSP/STM32746G-Discovery/stm32746g_discovery.c ****     HAL_GPIO_Init(DISCOVERY_AUDIO_I2Cx_SCL_SDA_GPIO_PORT, &gpio_init_structure);
 203              		.loc 1 487 29 is_stmt 0 view .LVU58
 204 00c4 4FF48073 		mov	r3, #256
 205 00c8 0593     		str	r3, [sp, #20]
 488:Drivers/BSP/STM32746G-Discovery/stm32746g_discovery.c **** 
 206              		.loc 1 488 5 is_stmt 1 view .LVU59
 207 00ca 05A9     		add	r1, sp, #20
 208 00cc 3046     		mov	r0, r6
 209 00ce FFF7FEFF 		bl	HAL_GPIO_Init
 210              	.LVL11:
 492:Drivers/BSP/STM32746G-Discovery/stm32746g_discovery.c **** 
 211              		.loc 1 492 5 view .LVU60
 212              	.LBB5:
 492:Drivers/BSP/STM32746G-Discovery/stm32746g_discovery.c **** 
 213              		.loc 1 492 5 view .LVU61
 492:Drivers/BSP/STM32746G-Discovery/stm32746g_discovery.c **** 
 214              		.loc 1 492 5 view .LVU62
 215 00d2 236C     		ldr	r3, [r4, #64]
 216 00d4 43F40003 		orr	r3, r3, #8388608
 217 00d8 2364     		str	r3, [r4, #64]
 492:Drivers/BSP/STM32746G-Discovery/stm32746g_discovery.c **** 
 218              		.loc 1 492 5 view .LVU63
 219 00da 236C     		ldr	r3, [r4, #64]
 220 00dc 03F40003 		and	r3, r3, #8388608
 221 00e0 0293     		str	r3, [sp, #8]
 492:Drivers/BSP/STM32746G-Discovery/stm32746g_discovery.c **** 
 222              		.loc 1 492 5 view .LVU64
 223 00e2 029B     		ldr	r3, [sp, #8]
 224              	.LBE5:
 492:Drivers/BSP/STM32746G-Discovery/stm32746g_discovery.c **** 
 225              		.loc 1 492 5 view .LVU65
 495:Drivers/BSP/STM32746G-Discovery/stm32746g_discovery.c **** 
ARM GAS  /var/folders/yz/w8msd8211qzc60m57tpkzbn80000gn/T//ccRVvTE8.s 			page 15


 226              		.loc 1 495 5 view .LVU66
 227 00e4 236A     		ldr	r3, [r4, #32]
 228 00e6 43F40003 		orr	r3, r3, #8388608
 229 00ea 2362     		str	r3, [r4, #32]
 498:Drivers/BSP/STM32746G-Discovery/stm32746g_discovery.c **** 
 230              		.loc 1 498 5 view .LVU67
 231 00ec 236A     		ldr	r3, [r4, #32]
 232 00ee 23F40003 		bic	r3, r3, #8388608
 233 00f2 2362     		str	r3, [r4, #32]
 501:Drivers/BSP/STM32746G-Discovery/stm32746g_discovery.c ****     HAL_NVIC_EnableIRQ(DISCOVERY_AUDIO_I2Cx_EV_IRQn);
 234              		.loc 1 501 5 view .LVU68
 235 00f4 2A46     		mov	r2, r5
 236 00f6 0F21     		movs	r1, #15
 237 00f8 4820     		movs	r0, #72
 238 00fa FFF7FEFF 		bl	HAL_NVIC_SetPriority
 239              	.LVL12:
 502:Drivers/BSP/STM32746G-Discovery/stm32746g_discovery.c **** 
 240              		.loc 1 502 5 view .LVU69
 241 00fe 4820     		movs	r0, #72
 242 0100 FFF7FEFF 		bl	HAL_NVIC_EnableIRQ
 243              	.LVL13:
 505:Drivers/BSP/STM32746G-Discovery/stm32746g_discovery.c ****     HAL_NVIC_EnableIRQ(DISCOVERY_AUDIO_I2Cx_ER_IRQn);
 244              		.loc 1 505 5 view .LVU70
 245 0104 2A46     		mov	r2, r5
 246 0106 0F21     		movs	r1, #15
 247 0108 4920     		movs	r0, #73
 248 010a FFF7FEFF 		bl	HAL_NVIC_SetPriority
 249              	.LVL14:
 506:Drivers/BSP/STM32746G-Discovery/stm32746g_discovery.c ****   }
 250              		.loc 1 506 5 view .LVU71
 251 010e 4920     		movs	r0, #73
 252 0110 FFF7FEFF 		bl	HAL_NVIC_EnableIRQ
 253              	.LVL15:
 254 0114 BBE7     		b	.L1
 255              	.L7:
 256 0116 00BF     		.align	2
 257              	.L6:
 258 0118 00000000 		.word	.LANCHOR0
 259 011c 00380240 		.word	1073887232
 260 0120 00040240 		.word	1073873920
 261 0124 001C0240 		.word	1073880064
 262              		.cfi_endproc
 263              	.LFE152:
 265              		.section	.text.I2Cx_Init,"ax",%progbits
 266              		.align	1
 267              		.syntax unified
 268              		.thumb
 269              		.thumb_func
 270              		.fpu fpv5-sp-d16
 272              	I2Cx_Init:
 273              	.LVL16:
 274              	.LFB153:
 547:Drivers/BSP/STM32746G-Discovery/stm32746g_discovery.c **** 
 548:Drivers/BSP/STM32746G-Discovery/stm32746g_discovery.c **** /**
 549:Drivers/BSP/STM32746G-Discovery/stm32746g_discovery.c ****   * @brief  Initializes I2C HAL.
 550:Drivers/BSP/STM32746G-Discovery/stm32746g_discovery.c ****   * @param  i2c_handler : I2C handler
 551:Drivers/BSP/STM32746G-Discovery/stm32746g_discovery.c ****   * @retval None
ARM GAS  /var/folders/yz/w8msd8211qzc60m57tpkzbn80000gn/T//ccRVvTE8.s 			page 16


 552:Drivers/BSP/STM32746G-Discovery/stm32746g_discovery.c ****   */
 553:Drivers/BSP/STM32746G-Discovery/stm32746g_discovery.c **** static void I2Cx_Init(I2C_HandleTypeDef *i2c_handler)
 554:Drivers/BSP/STM32746G-Discovery/stm32746g_discovery.c **** {
 275              		.loc 1 554 1 view -0
 276              		.cfi_startproc
 277              		@ args = 0, pretend = 0, frame = 0
 278              		@ frame_needed = 0, uses_anonymous_args = 0
 279              		.loc 1 554 1 is_stmt 0 view .LVU73
 280 0000 10B5     		push	{r4, lr}
 281              	.LCFI4:
 282              		.cfi_def_cfa_offset 8
 283              		.cfi_offset 4, -8
 284              		.cfi_offset 14, -4
 285 0002 0446     		mov	r4, r0
 555:Drivers/BSP/STM32746G-Discovery/stm32746g_discovery.c ****   if(HAL_I2C_GetState(i2c_handler) == HAL_I2C_STATE_RESET)
 286              		.loc 1 555 3 is_stmt 1 view .LVU74
 287              		.loc 1 555 6 is_stmt 0 view .LVU75
 288 0004 FFF7FEFF 		bl	HAL_I2C_GetState
 289              	.LVL17:
 290              		.loc 1 555 5 view .LVU76
 291 0008 A0B9     		cbnz	r0, .L8
 556:Drivers/BSP/STM32746G-Discovery/stm32746g_discovery.c ****   {
 557:Drivers/BSP/STM32746G-Discovery/stm32746g_discovery.c ****     if (i2c_handler == (I2C_HandleTypeDef*)(&hI2cAudioHandler))
 292              		.loc 1 557 5 is_stmt 1 view .LVU77
 293              		.loc 1 557 8 is_stmt 0 view .LVU78
 294 000a 0C4B     		ldr	r3, .L14
 295 000c 9C42     		cmp	r4, r3
 296 000e 12D0     		beq	.L13
 558:Drivers/BSP/STM32746G-Discovery/stm32746g_discovery.c ****     {
 559:Drivers/BSP/STM32746G-Discovery/stm32746g_discovery.c ****       /* Audio and LCD I2C configuration */
 560:Drivers/BSP/STM32746G-Discovery/stm32746g_discovery.c ****       i2c_handler->Instance = DISCOVERY_AUDIO_I2Cx;
 561:Drivers/BSP/STM32746G-Discovery/stm32746g_discovery.c ****     }
 562:Drivers/BSP/STM32746G-Discovery/stm32746g_discovery.c ****     else
 563:Drivers/BSP/STM32746G-Discovery/stm32746g_discovery.c ****     {
 564:Drivers/BSP/STM32746G-Discovery/stm32746g_discovery.c ****       /* External, camera and Arduino connector  I2C configuration */
 565:Drivers/BSP/STM32746G-Discovery/stm32746g_discovery.c ****       i2c_handler->Instance = DISCOVERY_EXT_I2Cx;
 297              		.loc 1 565 7 is_stmt 1 view .LVU79
 298              		.loc 1 565 29 is_stmt 0 view .LVU80
 299 0010 0B4B     		ldr	r3, .L14+4
 300 0012 2360     		str	r3, [r4]
 301              	.L11:
 566:Drivers/BSP/STM32746G-Discovery/stm32746g_discovery.c ****     }
 567:Drivers/BSP/STM32746G-Discovery/stm32746g_discovery.c ****     i2c_handler->Init.Timing           = DISCOVERY_I2Cx_TIMING;
 302              		.loc 1 567 5 is_stmt 1 view .LVU81
 303              		.loc 1 567 40 is_stmt 0 view .LVU82
 304 0014 0B4B     		ldr	r3, .L14+8
 305 0016 6360     		str	r3, [r4, #4]
 568:Drivers/BSP/STM32746G-Discovery/stm32746g_discovery.c ****     i2c_handler->Init.OwnAddress1      = 0;
 306              		.loc 1 568 5 is_stmt 1 view .LVU83
 307              		.loc 1 568 40 is_stmt 0 view .LVU84
 308 0018 0023     		movs	r3, #0
 309 001a A360     		str	r3, [r4, #8]
 569:Drivers/BSP/STM32746G-Discovery/stm32746g_discovery.c ****     i2c_handler->Init.AddressingMode   = I2C_ADDRESSINGMODE_7BIT;
 310              		.loc 1 569 5 is_stmt 1 view .LVU85
 311              		.loc 1 569 40 is_stmt 0 view .LVU86
 312 001c 0122     		movs	r2, #1
 313 001e E260     		str	r2, [r4, #12]
ARM GAS  /var/folders/yz/w8msd8211qzc60m57tpkzbn80000gn/T//ccRVvTE8.s 			page 17


 570:Drivers/BSP/STM32746G-Discovery/stm32746g_discovery.c ****     i2c_handler->Init.DualAddressMode  = I2C_DUALADDRESS_DISABLE;
 314              		.loc 1 570 5 is_stmt 1 view .LVU87
 315              		.loc 1 570 40 is_stmt 0 view .LVU88
 316 0020 2361     		str	r3, [r4, #16]
 571:Drivers/BSP/STM32746G-Discovery/stm32746g_discovery.c ****     i2c_handler->Init.OwnAddress2      = 0;
 317              		.loc 1 571 5 is_stmt 1 view .LVU89
 318              		.loc 1 571 40 is_stmt 0 view .LVU90
 319 0022 6361     		str	r3, [r4, #20]
 572:Drivers/BSP/STM32746G-Discovery/stm32746g_discovery.c ****     i2c_handler->Init.GeneralCallMode  = I2C_GENERALCALL_DISABLE;
 320              		.loc 1 572 5 is_stmt 1 view .LVU91
 321              		.loc 1 572 40 is_stmt 0 view .LVU92
 322 0024 E361     		str	r3, [r4, #28]
 573:Drivers/BSP/STM32746G-Discovery/stm32746g_discovery.c ****     i2c_handler->Init.NoStretchMode    = I2C_NOSTRETCH_DISABLE;
 323              		.loc 1 573 5 is_stmt 1 view .LVU93
 324              		.loc 1 573 40 is_stmt 0 view .LVU94
 325 0026 2362     		str	r3, [r4, #32]
 574:Drivers/BSP/STM32746G-Discovery/stm32746g_discovery.c **** 
 575:Drivers/BSP/STM32746G-Discovery/stm32746g_discovery.c ****     /* Init the I2C */
 576:Drivers/BSP/STM32746G-Discovery/stm32746g_discovery.c ****     I2Cx_MspInit(i2c_handler);
 326              		.loc 1 576 5 is_stmt 1 view .LVU95
 327 0028 2046     		mov	r0, r4
 328 002a FFF7FEFF 		bl	I2Cx_MspInit
 329              	.LVL18:
 577:Drivers/BSP/STM32746G-Discovery/stm32746g_discovery.c ****     HAL_I2C_Init(i2c_handler);
 330              		.loc 1 577 5 view .LVU96
 331 002e 2046     		mov	r0, r4
 332 0030 FFF7FEFF 		bl	HAL_I2C_Init
 333              	.LVL19:
 334              	.L8:
 578:Drivers/BSP/STM32746G-Discovery/stm32746g_discovery.c ****   }
 579:Drivers/BSP/STM32746G-Discovery/stm32746g_discovery.c **** }
 335              		.loc 1 579 1 is_stmt 0 view .LVU97
 336 0034 10BD     		pop	{r4, pc}
 337              	.LVL20:
 338              	.L13:
 560:Drivers/BSP/STM32746G-Discovery/stm32746g_discovery.c ****     }
 339              		.loc 1 560 7 is_stmt 1 view .LVU98
 560:Drivers/BSP/STM32746G-Discovery/stm32746g_discovery.c ****     }
 340              		.loc 1 560 29 is_stmt 0 view .LVU99
 341 0036 044B     		ldr	r3, .L14+12
 342 0038 2360     		str	r3, [r4]
 343 003a EBE7     		b	.L11
 344              	.L15:
 345              		.align	2
 346              	.L14:
 347 003c 00000000 		.word	.LANCHOR0
 348 0040 00540040 		.word	1073763328
 349 0044 32279140 		.word	1083254578
 350 0048 005C0040 		.word	1073765376
 351              		.cfi_endproc
 352              	.LFE153:
 354              		.section	.text.I2Cx_Error,"ax",%progbits
 355              		.align	1
 356              		.syntax unified
 357              		.thumb
 358              		.thumb_func
 359              		.fpu fpv5-sp-d16
ARM GAS  /var/folders/yz/w8msd8211qzc60m57tpkzbn80000gn/T//ccRVvTE8.s 			page 18


 361              	I2Cx_Error:
 362              	.LVL21:
 363              	.LFB157:
 580:Drivers/BSP/STM32746G-Discovery/stm32746g_discovery.c **** 
 581:Drivers/BSP/STM32746G-Discovery/stm32746g_discovery.c **** /**
 582:Drivers/BSP/STM32746G-Discovery/stm32746g_discovery.c ****   * @brief  Reads multiple data.
 583:Drivers/BSP/STM32746G-Discovery/stm32746g_discovery.c ****   * @param  i2c_handler : I2C handler
 584:Drivers/BSP/STM32746G-Discovery/stm32746g_discovery.c ****   * @param  Addr: I2C address
 585:Drivers/BSP/STM32746G-Discovery/stm32746g_discovery.c ****   * @param  Reg: Reg address 
 586:Drivers/BSP/STM32746G-Discovery/stm32746g_discovery.c ****   * @param  MemAddress: Memory address 
 587:Drivers/BSP/STM32746G-Discovery/stm32746g_discovery.c ****   * @param  Buffer: Pointer to data buffer
 588:Drivers/BSP/STM32746G-Discovery/stm32746g_discovery.c ****   * @param  Length: Length of the data
 589:Drivers/BSP/STM32746G-Discovery/stm32746g_discovery.c ****   * @retval Number of read data
 590:Drivers/BSP/STM32746G-Discovery/stm32746g_discovery.c ****   */
 591:Drivers/BSP/STM32746G-Discovery/stm32746g_discovery.c **** static HAL_StatusTypeDef I2Cx_ReadMultiple(I2C_HandleTypeDef *i2c_handler,
 592:Drivers/BSP/STM32746G-Discovery/stm32746g_discovery.c ****                                            uint8_t Addr,
 593:Drivers/BSP/STM32746G-Discovery/stm32746g_discovery.c ****                                            uint16_t Reg,
 594:Drivers/BSP/STM32746G-Discovery/stm32746g_discovery.c ****                                            uint16_t MemAddress,
 595:Drivers/BSP/STM32746G-Discovery/stm32746g_discovery.c ****                                            uint8_t *Buffer,
 596:Drivers/BSP/STM32746G-Discovery/stm32746g_discovery.c ****                                            uint16_t Length)
 597:Drivers/BSP/STM32746G-Discovery/stm32746g_discovery.c **** {
 598:Drivers/BSP/STM32746G-Discovery/stm32746g_discovery.c ****   HAL_StatusTypeDef status = HAL_OK;
 599:Drivers/BSP/STM32746G-Discovery/stm32746g_discovery.c **** 
 600:Drivers/BSP/STM32746G-Discovery/stm32746g_discovery.c ****   status = HAL_I2C_Mem_Read(i2c_handler, Addr, (uint16_t)Reg, MemAddress, Buffer, Length, 1000);
 601:Drivers/BSP/STM32746G-Discovery/stm32746g_discovery.c **** 
 602:Drivers/BSP/STM32746G-Discovery/stm32746g_discovery.c ****   /* Check the communication status */
 603:Drivers/BSP/STM32746G-Discovery/stm32746g_discovery.c ****   if(status != HAL_OK)
 604:Drivers/BSP/STM32746G-Discovery/stm32746g_discovery.c ****   {
 605:Drivers/BSP/STM32746G-Discovery/stm32746g_discovery.c ****     /* I2C error occurred */
 606:Drivers/BSP/STM32746G-Discovery/stm32746g_discovery.c ****     I2Cx_Error(i2c_handler, Addr);
 607:Drivers/BSP/STM32746G-Discovery/stm32746g_discovery.c ****   }
 608:Drivers/BSP/STM32746G-Discovery/stm32746g_discovery.c ****   return status;    
 609:Drivers/BSP/STM32746G-Discovery/stm32746g_discovery.c **** }
 610:Drivers/BSP/STM32746G-Discovery/stm32746g_discovery.c **** 
 611:Drivers/BSP/STM32746G-Discovery/stm32746g_discovery.c **** /**
 612:Drivers/BSP/STM32746G-Discovery/stm32746g_discovery.c ****   * @brief  Writes a value in a register of the device through BUS in using DMA mode.
 613:Drivers/BSP/STM32746G-Discovery/stm32746g_discovery.c ****   * @param  i2c_handler : I2C handler
 614:Drivers/BSP/STM32746G-Discovery/stm32746g_discovery.c ****   * @param  Addr: Device address on BUS Bus.  
 615:Drivers/BSP/STM32746G-Discovery/stm32746g_discovery.c ****   * @param  Reg: The target register address to write
 616:Drivers/BSP/STM32746G-Discovery/stm32746g_discovery.c ****   * @param  MemAddress: Memory address 
 617:Drivers/BSP/STM32746G-Discovery/stm32746g_discovery.c ****   * @param  Buffer: The target register value to be written 
 618:Drivers/BSP/STM32746G-Discovery/stm32746g_discovery.c ****   * @param  Length: buffer size to be written
 619:Drivers/BSP/STM32746G-Discovery/stm32746g_discovery.c ****   * @retval HAL status
 620:Drivers/BSP/STM32746G-Discovery/stm32746g_discovery.c ****   */
 621:Drivers/BSP/STM32746G-Discovery/stm32746g_discovery.c **** static HAL_StatusTypeDef I2Cx_WriteMultiple(I2C_HandleTypeDef *i2c_handler,
 622:Drivers/BSP/STM32746G-Discovery/stm32746g_discovery.c ****                                             uint8_t Addr,
 623:Drivers/BSP/STM32746G-Discovery/stm32746g_discovery.c ****                                             uint16_t Reg,
 624:Drivers/BSP/STM32746G-Discovery/stm32746g_discovery.c ****                                             uint16_t MemAddress,
 625:Drivers/BSP/STM32746G-Discovery/stm32746g_discovery.c ****                                             uint8_t *Buffer,
 626:Drivers/BSP/STM32746G-Discovery/stm32746g_discovery.c ****                                             uint16_t Length)
 627:Drivers/BSP/STM32746G-Discovery/stm32746g_discovery.c **** {
 628:Drivers/BSP/STM32746G-Discovery/stm32746g_discovery.c ****   HAL_StatusTypeDef status = HAL_OK;
 629:Drivers/BSP/STM32746G-Discovery/stm32746g_discovery.c ****   
 630:Drivers/BSP/STM32746G-Discovery/stm32746g_discovery.c ****   status = HAL_I2C_Mem_Write(i2c_handler, Addr, (uint16_t)Reg, MemAddress, Buffer, Length, 1000);
 631:Drivers/BSP/STM32746G-Discovery/stm32746g_discovery.c ****   
 632:Drivers/BSP/STM32746G-Discovery/stm32746g_discovery.c ****   /* Check the communication status */
 633:Drivers/BSP/STM32746G-Discovery/stm32746g_discovery.c ****   if(status != HAL_OK)
ARM GAS  /var/folders/yz/w8msd8211qzc60m57tpkzbn80000gn/T//ccRVvTE8.s 			page 19


 634:Drivers/BSP/STM32746G-Discovery/stm32746g_discovery.c ****   {
 635:Drivers/BSP/STM32746G-Discovery/stm32746g_discovery.c ****     /* Re-Initiaize the I2C Bus */
 636:Drivers/BSP/STM32746G-Discovery/stm32746g_discovery.c ****     I2Cx_Error(i2c_handler, Addr);
 637:Drivers/BSP/STM32746G-Discovery/stm32746g_discovery.c ****   }
 638:Drivers/BSP/STM32746G-Discovery/stm32746g_discovery.c ****   return status;
 639:Drivers/BSP/STM32746G-Discovery/stm32746g_discovery.c **** }
 640:Drivers/BSP/STM32746G-Discovery/stm32746g_discovery.c **** 
 641:Drivers/BSP/STM32746G-Discovery/stm32746g_discovery.c **** /**
 642:Drivers/BSP/STM32746G-Discovery/stm32746g_discovery.c ****   * @brief  Checks if target device is ready for communication. 
 643:Drivers/BSP/STM32746G-Discovery/stm32746g_discovery.c ****   * @note   This function is used with Memory devices
 644:Drivers/BSP/STM32746G-Discovery/stm32746g_discovery.c ****   * @param  i2c_handler : I2C handler
 645:Drivers/BSP/STM32746G-Discovery/stm32746g_discovery.c ****   * @param  DevAddress: Target device address
 646:Drivers/BSP/STM32746G-Discovery/stm32746g_discovery.c ****   * @param  Trials: Number of trials
 647:Drivers/BSP/STM32746G-Discovery/stm32746g_discovery.c ****   * @retval HAL status
 648:Drivers/BSP/STM32746G-Discovery/stm32746g_discovery.c ****   */
 649:Drivers/BSP/STM32746G-Discovery/stm32746g_discovery.c **** static HAL_StatusTypeDef I2Cx_IsDeviceReady(I2C_HandleTypeDef *i2c_handler, uint16_t DevAddress, ui
 650:Drivers/BSP/STM32746G-Discovery/stm32746g_discovery.c **** { 
 651:Drivers/BSP/STM32746G-Discovery/stm32746g_discovery.c ****   return (HAL_I2C_IsDeviceReady(i2c_handler, DevAddress, Trials, 1000));
 652:Drivers/BSP/STM32746G-Discovery/stm32746g_discovery.c **** }
 653:Drivers/BSP/STM32746G-Discovery/stm32746g_discovery.c **** 
 654:Drivers/BSP/STM32746G-Discovery/stm32746g_discovery.c **** /**
 655:Drivers/BSP/STM32746G-Discovery/stm32746g_discovery.c ****   * @brief  Manages error callback by re-initializing I2C.
 656:Drivers/BSP/STM32746G-Discovery/stm32746g_discovery.c ****   * @param  i2c_handler : I2C handler
 657:Drivers/BSP/STM32746G-Discovery/stm32746g_discovery.c ****   * @param  Addr: I2C Address
 658:Drivers/BSP/STM32746G-Discovery/stm32746g_discovery.c ****   * @retval None
 659:Drivers/BSP/STM32746G-Discovery/stm32746g_discovery.c ****   */
 660:Drivers/BSP/STM32746G-Discovery/stm32746g_discovery.c **** static void I2Cx_Error(I2C_HandleTypeDef *i2c_handler, uint8_t Addr)
 661:Drivers/BSP/STM32746G-Discovery/stm32746g_discovery.c **** {
 364              		.loc 1 661 1 is_stmt 1 view -0
 365              		.cfi_startproc
 366              		@ args = 0, pretend = 0, frame = 0
 367              		@ frame_needed = 0, uses_anonymous_args = 0
 368              		.loc 1 661 1 is_stmt 0 view .LVU101
 369 0000 10B5     		push	{r4, lr}
 370              	.LCFI5:
 371              		.cfi_def_cfa_offset 8
 372              		.cfi_offset 4, -8
 373              		.cfi_offset 14, -4
 374 0002 0446     		mov	r4, r0
 662:Drivers/BSP/STM32746G-Discovery/stm32746g_discovery.c ****   /* De-initialize the I2C communication bus */
 663:Drivers/BSP/STM32746G-Discovery/stm32746g_discovery.c ****   HAL_I2C_DeInit(i2c_handler);
 375              		.loc 1 663 3 is_stmt 1 view .LVU102
 376 0004 FFF7FEFF 		bl	HAL_I2C_DeInit
 377              	.LVL22:
 664:Drivers/BSP/STM32746G-Discovery/stm32746g_discovery.c ****   
 665:Drivers/BSP/STM32746G-Discovery/stm32746g_discovery.c ****   /* Re-Initialize the I2C communication bus */
 666:Drivers/BSP/STM32746G-Discovery/stm32746g_discovery.c ****   I2Cx_Init(i2c_handler);
 378              		.loc 1 666 3 view .LVU103
 379 0008 2046     		mov	r0, r4
 380 000a FFF7FEFF 		bl	I2Cx_Init
 381              	.LVL23:
 667:Drivers/BSP/STM32746G-Discovery/stm32746g_discovery.c **** }
 382              		.loc 1 667 1 is_stmt 0 view .LVU104
 383 000e 10BD     		pop	{r4, pc}
 384              		.loc 1 667 1 view .LVU105
 385              		.cfi_endproc
 386              	.LFE157:
ARM GAS  /var/folders/yz/w8msd8211qzc60m57tpkzbn80000gn/T//ccRVvTE8.s 			page 20


 388              		.section	.text.I2Cx_WriteMultiple,"ax",%progbits
 389              		.align	1
 390              		.syntax unified
 391              		.thumb
 392              		.thumb_func
 393              		.fpu fpv5-sp-d16
 395              	I2Cx_WriteMultiple:
 396              	.LVL24:
 397              	.LFB155:
 627:Drivers/BSP/STM32746G-Discovery/stm32746g_discovery.c ****   HAL_StatusTypeDef status = HAL_OK;
 398              		.loc 1 627 1 is_stmt 1 view -0
 399              		.cfi_startproc
 400              		@ args = 8, pretend = 0, frame = 0
 401              		@ frame_needed = 0, uses_anonymous_args = 0
 627:Drivers/BSP/STM32746G-Discovery/stm32746g_discovery.c ****   HAL_StatusTypeDef status = HAL_OK;
 402              		.loc 1 627 1 is_stmt 0 view .LVU107
 403 0000 70B5     		push	{r4, r5, r6, lr}
 404              	.LCFI6:
 405              		.cfi_def_cfa_offset 16
 406              		.cfi_offset 4, -16
 407              		.cfi_offset 5, -12
 408              		.cfi_offset 6, -8
 409              		.cfi_offset 14, -4
 410 0002 84B0     		sub	sp, sp, #16
 411              	.LCFI7:
 412              		.cfi_def_cfa_offset 32
 413 0004 0546     		mov	r5, r0
 414 0006 0C46     		mov	r4, r1
 628:Drivers/BSP/STM32746G-Discovery/stm32746g_discovery.c ****   
 415              		.loc 1 628 3 is_stmt 1 view .LVU108
 416              	.LVL25:
 630:Drivers/BSP/STM32746G-Discovery/stm32746g_discovery.c ****   
 417              		.loc 1 630 3 view .LVU109
 630:Drivers/BSP/STM32746G-Discovery/stm32746g_discovery.c ****   
 418              		.loc 1 630 12 is_stmt 0 view .LVU110
 419 0008 4FF47A71 		mov	r1, #1000
 420              	.LVL26:
 630:Drivers/BSP/STM32746G-Discovery/stm32746g_discovery.c ****   
 421              		.loc 1 630 12 view .LVU111
 422 000c 0291     		str	r1, [sp, #8]
 423 000e BDF82410 		ldrh	r1, [sp, #36]
 424 0012 0191     		str	r1, [sp, #4]
 425 0014 0899     		ldr	r1, [sp, #32]
 426 0016 0091     		str	r1, [sp]
 427 0018 2146     		mov	r1, r4
 428 001a FFF7FEFF 		bl	HAL_I2C_Mem_Write
 429              	.LVL27:
 633:Drivers/BSP/STM32746G-Discovery/stm32746g_discovery.c ****   {
 430              		.loc 1 633 3 is_stmt 1 view .LVU112
 633:Drivers/BSP/STM32746G-Discovery/stm32746g_discovery.c ****   {
 431              		.loc 1 633 5 is_stmt 0 view .LVU113
 432 001e 0646     		mov	r6, r0
 433 0020 10B9     		cbnz	r0, .L21
 434              	.LVL28:
 435              	.L19:
 638:Drivers/BSP/STM32746G-Discovery/stm32746g_discovery.c **** }
 436              		.loc 1 638 3 is_stmt 1 view .LVU114
ARM GAS  /var/folders/yz/w8msd8211qzc60m57tpkzbn80000gn/T//ccRVvTE8.s 			page 21


 639:Drivers/BSP/STM32746G-Discovery/stm32746g_discovery.c **** 
 437              		.loc 1 639 1 is_stmt 0 view .LVU115
 438 0022 3046     		mov	r0, r6
 439 0024 04B0     		add	sp, sp, #16
 440              	.LCFI8:
 441              		.cfi_remember_state
 442              		.cfi_def_cfa_offset 16
 443              		@ sp needed
 444 0026 70BD     		pop	{r4, r5, r6, pc}
 445              	.LVL29:
 446              	.L21:
 447              	.LCFI9:
 448              		.cfi_restore_state
 636:Drivers/BSP/STM32746G-Discovery/stm32746g_discovery.c ****   }
 449              		.loc 1 636 5 is_stmt 1 view .LVU116
 450 0028 2146     		mov	r1, r4
 451 002a 2846     		mov	r0, r5
 452              	.LVL30:
 636:Drivers/BSP/STM32746G-Discovery/stm32746g_discovery.c ****   }
 453              		.loc 1 636 5 is_stmt 0 view .LVU117
 454 002c FFF7FEFF 		bl	I2Cx_Error
 455              	.LVL31:
 456 0030 F7E7     		b	.L19
 457              		.cfi_endproc
 458              	.LFE155:
 460              		.section	.text.I2Cx_ReadMultiple,"ax",%progbits
 461              		.align	1
 462              		.syntax unified
 463              		.thumb
 464              		.thumb_func
 465              		.fpu fpv5-sp-d16
 467              	I2Cx_ReadMultiple:
 468              	.LVL32:
 469              	.LFB154:
 597:Drivers/BSP/STM32746G-Discovery/stm32746g_discovery.c ****   HAL_StatusTypeDef status = HAL_OK;
 470              		.loc 1 597 1 is_stmt 1 view -0
 471              		.cfi_startproc
 472              		@ args = 8, pretend = 0, frame = 0
 473              		@ frame_needed = 0, uses_anonymous_args = 0
 597:Drivers/BSP/STM32746G-Discovery/stm32746g_discovery.c ****   HAL_StatusTypeDef status = HAL_OK;
 474              		.loc 1 597 1 is_stmt 0 view .LVU119
 475 0000 70B5     		push	{r4, r5, r6, lr}
 476              	.LCFI10:
 477              		.cfi_def_cfa_offset 16
 478              		.cfi_offset 4, -16
 479              		.cfi_offset 5, -12
 480              		.cfi_offset 6, -8
 481              		.cfi_offset 14, -4
 482 0002 84B0     		sub	sp, sp, #16
 483              	.LCFI11:
 484              		.cfi_def_cfa_offset 32
 485 0004 0546     		mov	r5, r0
 486 0006 0C46     		mov	r4, r1
 598:Drivers/BSP/STM32746G-Discovery/stm32746g_discovery.c **** 
 487              		.loc 1 598 3 is_stmt 1 view .LVU120
 488              	.LVL33:
 600:Drivers/BSP/STM32746G-Discovery/stm32746g_discovery.c **** 
ARM GAS  /var/folders/yz/w8msd8211qzc60m57tpkzbn80000gn/T//ccRVvTE8.s 			page 22


 489              		.loc 1 600 3 view .LVU121
 600:Drivers/BSP/STM32746G-Discovery/stm32746g_discovery.c **** 
 490              		.loc 1 600 12 is_stmt 0 view .LVU122
 491 0008 4FF47A71 		mov	r1, #1000
 492              	.LVL34:
 600:Drivers/BSP/STM32746G-Discovery/stm32746g_discovery.c **** 
 493              		.loc 1 600 12 view .LVU123
 494 000c 0291     		str	r1, [sp, #8]
 495 000e BDF82410 		ldrh	r1, [sp, #36]
 496 0012 0191     		str	r1, [sp, #4]
 497 0014 0899     		ldr	r1, [sp, #32]
 498 0016 0091     		str	r1, [sp]
 499 0018 2146     		mov	r1, r4
 500 001a FFF7FEFF 		bl	HAL_I2C_Mem_Read
 501              	.LVL35:
 603:Drivers/BSP/STM32746G-Discovery/stm32746g_discovery.c ****   {
 502              		.loc 1 603 3 is_stmt 1 view .LVU124
 603:Drivers/BSP/STM32746G-Discovery/stm32746g_discovery.c ****   {
 503              		.loc 1 603 5 is_stmt 0 view .LVU125
 504 001e 0646     		mov	r6, r0
 505 0020 10B9     		cbnz	r0, .L25
 506              	.LVL36:
 507              	.L23:
 608:Drivers/BSP/STM32746G-Discovery/stm32746g_discovery.c **** }
 508              		.loc 1 608 3 is_stmt 1 view .LVU126
 609:Drivers/BSP/STM32746G-Discovery/stm32746g_discovery.c **** 
 509              		.loc 1 609 1 is_stmt 0 view .LVU127
 510 0022 3046     		mov	r0, r6
 511 0024 04B0     		add	sp, sp, #16
 512              	.LCFI12:
 513              		.cfi_remember_state
 514              		.cfi_def_cfa_offset 16
 515              		@ sp needed
 516 0026 70BD     		pop	{r4, r5, r6, pc}
 517              	.LVL37:
 518              	.L25:
 519              	.LCFI13:
 520              		.cfi_restore_state
 606:Drivers/BSP/STM32746G-Discovery/stm32746g_discovery.c ****   }
 521              		.loc 1 606 5 is_stmt 1 view .LVU128
 522 0028 2146     		mov	r1, r4
 523 002a 2846     		mov	r0, r5
 524              	.LVL38:
 606:Drivers/BSP/STM32746G-Discovery/stm32746g_discovery.c ****   }
 525              		.loc 1 606 5 is_stmt 0 view .LVU129
 526 002c FFF7FEFF 		bl	I2Cx_Error
 527              	.LVL39:
 528 0030 F7E7     		b	.L23
 529              		.cfi_endproc
 530              	.LFE154:
 532              		.section	.text.I2Cx_IsDeviceReady,"ax",%progbits
 533              		.align	1
 534              		.syntax unified
 535              		.thumb
 536              		.thumb_func
 537              		.fpu fpv5-sp-d16
 539              	I2Cx_IsDeviceReady:
ARM GAS  /var/folders/yz/w8msd8211qzc60m57tpkzbn80000gn/T//ccRVvTE8.s 			page 23


 540              	.LVL40:
 541              	.LFB156:
 650:Drivers/BSP/STM32746G-Discovery/stm32746g_discovery.c ****   return (HAL_I2C_IsDeviceReady(i2c_handler, DevAddress, Trials, 1000));
 542              		.loc 1 650 1 is_stmt 1 view -0
 543              		.cfi_startproc
 544              		@ args = 0, pretend = 0, frame = 0
 545              		@ frame_needed = 0, uses_anonymous_args = 0
 650:Drivers/BSP/STM32746G-Discovery/stm32746g_discovery.c ****   return (HAL_I2C_IsDeviceReady(i2c_handler, DevAddress, Trials, 1000));
 546              		.loc 1 650 1 is_stmt 0 view .LVU131
 547 0000 08B5     		push	{r3, lr}
 548              	.LCFI14:
 549              		.cfi_def_cfa_offset 8
 550              		.cfi_offset 3, -8
 551              		.cfi_offset 14, -4
 651:Drivers/BSP/STM32746G-Discovery/stm32746g_discovery.c **** }
 552              		.loc 1 651 3 is_stmt 1 view .LVU132
 651:Drivers/BSP/STM32746G-Discovery/stm32746g_discovery.c **** }
 553              		.loc 1 651 11 is_stmt 0 view .LVU133
 554 0002 4FF47A73 		mov	r3, #1000
 555 0006 FFF7FEFF 		bl	HAL_I2C_IsDeviceReady
 556              	.LVL41:
 652:Drivers/BSP/STM32746G-Discovery/stm32746g_discovery.c **** 
 557              		.loc 1 652 1 view .LVU134
 558 000a 08BD     		pop	{r3, pc}
 559              		.cfi_endproc
 560              	.LFE156:
 562              		.section	.text.BSP_GetVersion,"ax",%progbits
 563              		.align	1
 564              		.global	BSP_GetVersion
 565              		.syntax unified
 566              		.thumb
 567              		.thumb_func
 568              		.fpu fpv5-sp-d16
 570              	BSP_GetVersion:
 571              	.LFB141:
 179:Drivers/BSP/STM32746G-Discovery/stm32746g_discovery.c ****   return __STM32746G_DISCO_BSP_VERSION;
 572              		.loc 1 179 1 is_stmt 1 view -0
 573              		.cfi_startproc
 574              		@ args = 0, pretend = 0, frame = 0
 575              		@ frame_needed = 0, uses_anonymous_args = 0
 576              		@ link register save eliminated.
 180:Drivers/BSP/STM32746G-Discovery/stm32746g_discovery.c **** }
 577              		.loc 1 180 3 view .LVU136
 181:Drivers/BSP/STM32746G-Discovery/stm32746g_discovery.c **** 
 578              		.loc 1 181 1 is_stmt 0 view .LVU137
 579 0000 4FF00220 		mov	r0, #33554944
 580 0004 7047     		bx	lr
 581              		.cfi_endproc
 582              	.LFE141:
 584              		.section	.text.BSP_LED_Init,"ax",%progbits
 585              		.align	1
 586              		.global	BSP_LED_Init
 587              		.syntax unified
 588              		.thumb
 589              		.thumb_func
 590              		.fpu fpv5-sp-d16
 592              	BSP_LED_Init:
ARM GAS  /var/folders/yz/w8msd8211qzc60m57tpkzbn80000gn/T//ccRVvTE8.s 			page 24


 593              	.LVL42:
 594              	.LFB142:
 191:Drivers/BSP/STM32746G-Discovery/stm32746g_discovery.c ****   GPIO_InitTypeDef  gpio_init_structure;
 595              		.loc 1 191 1 is_stmt 1 view -0
 596              		.cfi_startproc
 597              		@ args = 0, pretend = 0, frame = 24
 598              		@ frame_needed = 0, uses_anonymous_args = 0
 192:Drivers/BSP/STM32746G-Discovery/stm32746g_discovery.c ****   GPIO_TypeDef*     gpio_led;
 599              		.loc 1 192 3 view .LVU139
 193:Drivers/BSP/STM32746G-Discovery/stm32746g_discovery.c **** 
 600              		.loc 1 193 3 view .LVU140
 195:Drivers/BSP/STM32746G-Discovery/stm32746g_discovery.c ****   {
 601              		.loc 1 195 3 view .LVU141
 195:Drivers/BSP/STM32746G-Discovery/stm32746g_discovery.c ****   {
 602              		.loc 1 195 6 is_stmt 0 view .LVU142
 603 0000 00B1     		cbz	r0, .L35
 604 0002 7047     		bx	lr
 605              	.L35:
 191:Drivers/BSP/STM32746G-Discovery/stm32746g_discovery.c ****   GPIO_InitTypeDef  gpio_init_structure;
 606              		.loc 1 191 1 view .LVU143
 607 0004 30B5     		push	{r4, r5, lr}
 608              	.LCFI15:
 609              		.cfi_def_cfa_offset 12
 610              		.cfi_offset 4, -12
 611              		.cfi_offset 5, -8
 612              		.cfi_offset 14, -4
 613 0006 87B0     		sub	sp, sp, #28
 614              	.LCFI16:
 615              		.cfi_def_cfa_offset 40
 197:Drivers/BSP/STM32746G-Discovery/stm32746g_discovery.c ****     /* Enable the GPIO_LED clock */
 616              		.loc 1 197 5 is_stmt 1 view .LVU144
 617              	.LVL43:
 199:Drivers/BSP/STM32746G-Discovery/stm32746g_discovery.c **** 
 618              		.loc 1 199 5 view .LVU145
 619              	.LBB6:
 199:Drivers/BSP/STM32746G-Discovery/stm32746g_discovery.c **** 
 620              		.loc 1 199 5 view .LVU146
 199:Drivers/BSP/STM32746G-Discovery/stm32746g_discovery.c **** 
 621              		.loc 1 199 5 view .LVU147
 622 0008 0E4B     		ldr	r3, .L36
 623 000a 1A6B     		ldr	r2, [r3, #48]
 624 000c 42F48072 		orr	r2, r2, #256
 625 0010 1A63     		str	r2, [r3, #48]
 199:Drivers/BSP/STM32746G-Discovery/stm32746g_discovery.c **** 
 626              		.loc 1 199 5 view .LVU148
 627 0012 1B6B     		ldr	r3, [r3, #48]
 628 0014 03F48073 		and	r3, r3, #256
 629 0018 0093     		str	r3, [sp]
 199:Drivers/BSP/STM32746G-Discovery/stm32746g_discovery.c **** 
 630              		.loc 1 199 5 view .LVU149
 631 001a 009B     		ldr	r3, [sp]
 632              	.LBE6:
 199:Drivers/BSP/STM32746G-Discovery/stm32746g_discovery.c **** 
 633              		.loc 1 199 5 view .LVU150
 202:Drivers/BSP/STM32746G-Discovery/stm32746g_discovery.c ****     gpio_init_structure.Mode = GPIO_MODE_OUTPUT_PP;
 634              		.loc 1 202 5 view .LVU151
 202:Drivers/BSP/STM32746G-Discovery/stm32746g_discovery.c ****     gpio_init_structure.Mode = GPIO_MODE_OUTPUT_PP;
ARM GAS  /var/folders/yz/w8msd8211qzc60m57tpkzbn80000gn/T//ccRVvTE8.s 			page 25


 635              		.loc 1 202 29 is_stmt 0 view .LVU152
 636 001c 0225     		movs	r5, #2
 637 001e 0195     		str	r5, [sp, #4]
 203:Drivers/BSP/STM32746G-Discovery/stm32746g_discovery.c ****     gpio_init_structure.Pull = GPIO_PULLUP;
 638              		.loc 1 203 5 is_stmt 1 view .LVU153
 203:Drivers/BSP/STM32746G-Discovery/stm32746g_discovery.c ****     gpio_init_structure.Pull = GPIO_PULLUP;
 639              		.loc 1 203 30 is_stmt 0 view .LVU154
 640 0020 0123     		movs	r3, #1
 641 0022 0293     		str	r3, [sp, #8]
 204:Drivers/BSP/STM32746G-Discovery/stm32746g_discovery.c ****     gpio_init_structure.Speed = GPIO_SPEED_HIGH;
 642              		.loc 1 204 5 is_stmt 1 view .LVU155
 204:Drivers/BSP/STM32746G-Discovery/stm32746g_discovery.c ****     gpio_init_structure.Speed = GPIO_SPEED_HIGH;
 643              		.loc 1 204 30 is_stmt 0 view .LVU156
 644 0024 0393     		str	r3, [sp, #12]
 205:Drivers/BSP/STM32746G-Discovery/stm32746g_discovery.c ****   
 645              		.loc 1 205 5 is_stmt 1 view .LVU157
 205:Drivers/BSP/STM32746G-Discovery/stm32746g_discovery.c ****   
 646              		.loc 1 205 31 is_stmt 0 view .LVU158
 647 0026 0323     		movs	r3, #3
 648 0028 0493     		str	r3, [sp, #16]
 207:Drivers/BSP/STM32746G-Discovery/stm32746g_discovery.c ****     
 649              		.loc 1 207 5 is_stmt 1 view .LVU159
 650 002a 074C     		ldr	r4, .L36+4
 651 002c 01A9     		add	r1, sp, #4
 652 002e 2046     		mov	r0, r4
 653              	.LVL44:
 207:Drivers/BSP/STM32746G-Discovery/stm32746g_discovery.c ****     
 654              		.loc 1 207 5 is_stmt 0 view .LVU160
 655 0030 FFF7FEFF 		bl	HAL_GPIO_Init
 656              	.LVL45:
 210:Drivers/BSP/STM32746G-Discovery/stm32746g_discovery.c ****   }
 657              		.loc 1 210 5 is_stmt 1 view .LVU161
 658 0034 0022     		movs	r2, #0
 659 0036 2946     		mov	r1, r5
 660 0038 2046     		mov	r0, r4
 661 003a FFF7FEFF 		bl	HAL_GPIO_WritePin
 662              	.LVL46:
 212:Drivers/BSP/STM32746G-Discovery/stm32746g_discovery.c **** 
 663              		.loc 1 212 1 is_stmt 0 view .LVU162
 664 003e 07B0     		add	sp, sp, #28
 665              	.LCFI17:
 666              		.cfi_def_cfa_offset 12
 667              		@ sp needed
 668 0040 30BD     		pop	{r4, r5, pc}
 669              	.L37:
 670 0042 00BF     		.align	2
 671              	.L36:
 672 0044 00380240 		.word	1073887232
 673 0048 00200240 		.word	1073881088
 674              		.cfi_endproc
 675              	.LFE142:
 677              		.section	.text.BSP_LED_DeInit,"ax",%progbits
 678              		.align	1
 679              		.global	BSP_LED_DeInit
 680              		.syntax unified
 681              		.thumb
 682              		.thumb_func
ARM GAS  /var/folders/yz/w8msd8211qzc60m57tpkzbn80000gn/T//ccRVvTE8.s 			page 26


 683              		.fpu fpv5-sp-d16
 685              	BSP_LED_DeInit:
 686              	.LVL47:
 687              	.LFB143:
 223:Drivers/BSP/STM32746G-Discovery/stm32746g_discovery.c ****   GPIO_InitTypeDef  gpio_init_structure;
 688              		.loc 1 223 1 is_stmt 1 view -0
 689              		.cfi_startproc
 690              		@ args = 0, pretend = 0, frame = 0
 691              		@ frame_needed = 0, uses_anonymous_args = 0
 224:Drivers/BSP/STM32746G-Discovery/stm32746g_discovery.c ****   GPIO_TypeDef*     gpio_led;
 692              		.loc 1 224 3 view .LVU164
 225:Drivers/BSP/STM32746G-Discovery/stm32746g_discovery.c **** 
 693              		.loc 1 225 3 view .LVU165
 227:Drivers/BSP/STM32746G-Discovery/stm32746g_discovery.c ****   {
 694              		.loc 1 227 3 view .LVU166
 227:Drivers/BSP/STM32746G-Discovery/stm32746g_discovery.c ****   {
 695              		.loc 1 227 6 is_stmt 0 view .LVU167
 696 0000 00B1     		cbz	r0, .L44
 697 0002 7047     		bx	lr
 698              	.L44:
 223:Drivers/BSP/STM32746G-Discovery/stm32746g_discovery.c ****   GPIO_InitTypeDef  gpio_init_structure;
 699              		.loc 1 223 1 view .LVU168
 700 0004 10B5     		push	{r4, lr}
 701              	.LCFI18:
 702              		.cfi_def_cfa_offset 8
 703              		.cfi_offset 4, -8
 704              		.cfi_offset 14, -4
 229:Drivers/BSP/STM32746G-Discovery/stm32746g_discovery.c ****     /* Turn off LED */
 705              		.loc 1 229 5 is_stmt 1 view .LVU169
 706              	.LVL48:
 231:Drivers/BSP/STM32746G-Discovery/stm32746g_discovery.c ****     /* Configure the GPIO_LED pin */
 707              		.loc 1 231 5 view .LVU170
 708 0006 054C     		ldr	r4, .L45
 709 0008 0022     		movs	r2, #0
 710 000a 0221     		movs	r1, #2
 711 000c 2046     		mov	r0, r4
 712              	.LVL49:
 231:Drivers/BSP/STM32746G-Discovery/stm32746g_discovery.c ****     /* Configure the GPIO_LED pin */
 713              		.loc 1 231 5 is_stmt 0 view .LVU171
 714 000e FFF7FEFF 		bl	HAL_GPIO_WritePin
 715              	.LVL50:
 233:Drivers/BSP/STM32746G-Discovery/stm32746g_discovery.c ****     HAL_GPIO_DeInit(gpio_led, gpio_init_structure.Pin);
 716              		.loc 1 233 5 is_stmt 1 view .LVU172
 234:Drivers/BSP/STM32746G-Discovery/stm32746g_discovery.c ****   }
 717              		.loc 1 234 5 view .LVU173
 718 0012 0221     		movs	r1, #2
 719 0014 2046     		mov	r0, r4
 720 0016 FFF7FEFF 		bl	HAL_GPIO_DeInit
 721              	.LVL51:
 236:Drivers/BSP/STM32746G-Discovery/stm32746g_discovery.c **** 
 722              		.loc 1 236 1 is_stmt 0 view .LVU174
 723 001a 10BD     		pop	{r4, pc}
 724              	.L46:
 725              		.align	2
 726              	.L45:
 727 001c 00200240 		.word	1073881088
 728              		.cfi_endproc
ARM GAS  /var/folders/yz/w8msd8211qzc60m57tpkzbn80000gn/T//ccRVvTE8.s 			page 27


 729              	.LFE143:
 731              		.section	.text.BSP_LED_On,"ax",%progbits
 732              		.align	1
 733              		.global	BSP_LED_On
 734              		.syntax unified
 735              		.thumb
 736              		.thumb_func
 737              		.fpu fpv5-sp-d16
 739              	BSP_LED_On:
 740              	.LVL52:
 741              	.LFB144:
 246:Drivers/BSP/STM32746G-Discovery/stm32746g_discovery.c ****   GPIO_TypeDef*     gpio_led;
 742              		.loc 1 246 1 is_stmt 1 view -0
 743              		.cfi_startproc
 744              		@ args = 0, pretend = 0, frame = 0
 745              		@ frame_needed = 0, uses_anonymous_args = 0
 247:Drivers/BSP/STM32746G-Discovery/stm32746g_discovery.c **** 
 746              		.loc 1 247 3 view .LVU176
 249:Drivers/BSP/STM32746G-Discovery/stm32746g_discovery.c ****   {
 747              		.loc 1 249 3 view .LVU177
 249:Drivers/BSP/STM32746G-Discovery/stm32746g_discovery.c ****   {
 748              		.loc 1 249 6 is_stmt 0 view .LVU178
 749 0000 00B1     		cbz	r0, .L53
 750 0002 7047     		bx	lr
 751              	.L53:
 246:Drivers/BSP/STM32746G-Discovery/stm32746g_discovery.c ****   GPIO_TypeDef*     gpio_led;
 752              		.loc 1 246 1 view .LVU179
 753 0004 08B5     		push	{r3, lr}
 754              	.LCFI19:
 755              		.cfi_def_cfa_offset 8
 756              		.cfi_offset 3, -8
 757              		.cfi_offset 14, -4
 251:Drivers/BSP/STM32746G-Discovery/stm32746g_discovery.c ****     HAL_GPIO_WritePin(gpio_led, GPIO_PIN[Led], GPIO_PIN_SET);
 758              		.loc 1 251 5 is_stmt 1 view .LVU180
 759              	.LVL53:
 252:Drivers/BSP/STM32746G-Discovery/stm32746g_discovery.c ****   }
 760              		.loc 1 252 5 view .LVU181
 761 0006 0122     		movs	r2, #1
 762 0008 0221     		movs	r1, #2
 763 000a 0248     		ldr	r0, .L54
 764              	.LVL54:
 252:Drivers/BSP/STM32746G-Discovery/stm32746g_discovery.c ****   }
 765              		.loc 1 252 5 is_stmt 0 view .LVU182
 766 000c FFF7FEFF 		bl	HAL_GPIO_WritePin
 767              	.LVL55:
 254:Drivers/BSP/STM32746G-Discovery/stm32746g_discovery.c **** 
 768              		.loc 1 254 1 view .LVU183
 769 0010 08BD     		pop	{r3, pc}
 770              	.L55:
 771 0012 00BF     		.align	2
 772              	.L54:
 773 0014 00200240 		.word	1073881088
 774              		.cfi_endproc
 775              	.LFE144:
 777              		.section	.text.BSP_LED_Off,"ax",%progbits
 778              		.align	1
 779              		.global	BSP_LED_Off
ARM GAS  /var/folders/yz/w8msd8211qzc60m57tpkzbn80000gn/T//ccRVvTE8.s 			page 28


 780              		.syntax unified
 781              		.thumb
 782              		.thumb_func
 783              		.fpu fpv5-sp-d16
 785              	BSP_LED_Off:
 786              	.LVL56:
 787              	.LFB145:
 264:Drivers/BSP/STM32746G-Discovery/stm32746g_discovery.c ****   GPIO_TypeDef*     gpio_led;
 788              		.loc 1 264 1 is_stmt 1 view -0
 789              		.cfi_startproc
 790              		@ args = 0, pretend = 0, frame = 0
 791              		@ frame_needed = 0, uses_anonymous_args = 0
 265:Drivers/BSP/STM32746G-Discovery/stm32746g_discovery.c **** 
 792              		.loc 1 265 3 view .LVU185
 267:Drivers/BSP/STM32746G-Discovery/stm32746g_discovery.c ****   {
 793              		.loc 1 267 3 view .LVU186
 267:Drivers/BSP/STM32746G-Discovery/stm32746g_discovery.c ****   {
 794              		.loc 1 267 6 is_stmt 0 view .LVU187
 795 0000 00B1     		cbz	r0, .L62
 796 0002 7047     		bx	lr
 797              	.L62:
 264:Drivers/BSP/STM32746G-Discovery/stm32746g_discovery.c ****   GPIO_TypeDef*     gpio_led;
 798              		.loc 1 264 1 view .LVU188
 799 0004 08B5     		push	{r3, lr}
 800              	.LCFI20:
 801              		.cfi_def_cfa_offset 8
 802              		.cfi_offset 3, -8
 803              		.cfi_offset 14, -4
 269:Drivers/BSP/STM32746G-Discovery/stm32746g_discovery.c ****     HAL_GPIO_WritePin(gpio_led, GPIO_PIN[Led], GPIO_PIN_RESET);
 804              		.loc 1 269 5 is_stmt 1 view .LVU189
 805              	.LVL57:
 270:Drivers/BSP/STM32746G-Discovery/stm32746g_discovery.c ****   }
 806              		.loc 1 270 5 view .LVU190
 807 0006 0022     		movs	r2, #0
 808 0008 0221     		movs	r1, #2
 809 000a 0248     		ldr	r0, .L63
 810              	.LVL58:
 270:Drivers/BSP/STM32746G-Discovery/stm32746g_discovery.c ****   }
 811              		.loc 1 270 5 is_stmt 0 view .LVU191
 812 000c FFF7FEFF 		bl	HAL_GPIO_WritePin
 813              	.LVL59:
 272:Drivers/BSP/STM32746G-Discovery/stm32746g_discovery.c **** 
 814              		.loc 1 272 1 view .LVU192
 815 0010 08BD     		pop	{r3, pc}
 816              	.L64:
 817 0012 00BF     		.align	2
 818              	.L63:
 819 0014 00200240 		.word	1073881088
 820              		.cfi_endproc
 821              	.LFE145:
 823              		.section	.text.BSP_LED_Toggle,"ax",%progbits
 824              		.align	1
 825              		.global	BSP_LED_Toggle
 826              		.syntax unified
 827              		.thumb
 828              		.thumb_func
 829              		.fpu fpv5-sp-d16
ARM GAS  /var/folders/yz/w8msd8211qzc60m57tpkzbn80000gn/T//ccRVvTE8.s 			page 29


 831              	BSP_LED_Toggle:
 832              	.LVL60:
 833              	.LFB146:
 282:Drivers/BSP/STM32746G-Discovery/stm32746g_discovery.c ****   GPIO_TypeDef*     gpio_led;
 834              		.loc 1 282 1 is_stmt 1 view -0
 835              		.cfi_startproc
 836              		@ args = 0, pretend = 0, frame = 0
 837              		@ frame_needed = 0, uses_anonymous_args = 0
 283:Drivers/BSP/STM32746G-Discovery/stm32746g_discovery.c **** 
 838              		.loc 1 283 3 view .LVU194
 285:Drivers/BSP/STM32746G-Discovery/stm32746g_discovery.c ****   {
 839              		.loc 1 285 3 view .LVU195
 285:Drivers/BSP/STM32746G-Discovery/stm32746g_discovery.c ****   {
 840              		.loc 1 285 6 is_stmt 0 view .LVU196
 841 0000 00B1     		cbz	r0, .L71
 842 0002 7047     		bx	lr
 843              	.L71:
 282:Drivers/BSP/STM32746G-Discovery/stm32746g_discovery.c ****   GPIO_TypeDef*     gpio_led;
 844              		.loc 1 282 1 view .LVU197
 845 0004 08B5     		push	{r3, lr}
 846              	.LCFI21:
 847              		.cfi_def_cfa_offset 8
 848              		.cfi_offset 3, -8
 849              		.cfi_offset 14, -4
 287:Drivers/BSP/STM32746G-Discovery/stm32746g_discovery.c ****     HAL_GPIO_TogglePin(gpio_led, GPIO_PIN[Led]);
 850              		.loc 1 287 5 is_stmt 1 view .LVU198
 851              	.LVL61:
 288:Drivers/BSP/STM32746G-Discovery/stm32746g_discovery.c ****   }
 852              		.loc 1 288 5 view .LVU199
 853 0006 0221     		movs	r1, #2
 854 0008 0148     		ldr	r0, .L72
 855              	.LVL62:
 288:Drivers/BSP/STM32746G-Discovery/stm32746g_discovery.c ****   }
 856              		.loc 1 288 5 is_stmt 0 view .LVU200
 857 000a FFF7FEFF 		bl	HAL_GPIO_TogglePin
 858              	.LVL63:
 290:Drivers/BSP/STM32746G-Discovery/stm32746g_discovery.c **** 
 859              		.loc 1 290 1 view .LVU201
 860 000e 08BD     		pop	{r3, pc}
 861              	.L73:
 862              		.align	2
 863              	.L72:
 864 0010 00200240 		.word	1073881088
 865              		.cfi_endproc
 866              	.LFE146:
 868              		.section	.text.BSP_PB_Init,"ax",%progbits
 869              		.align	1
 870              		.global	BSP_PB_Init
 871              		.syntax unified
 872              		.thumb
 873              		.thumb_func
 874              		.fpu fpv5-sp-d16
 876              	BSP_PB_Init:
 877              	.LVL64:
 878              	.LFB147:
 310:Drivers/BSP/STM32746G-Discovery/stm32746g_discovery.c ****   GPIO_InitTypeDef gpio_init_structure;
 879              		.loc 1 310 1 is_stmt 1 view -0
ARM GAS  /var/folders/yz/w8msd8211qzc60m57tpkzbn80000gn/T//ccRVvTE8.s 			page 30


 880              		.cfi_startproc
 881              		@ args = 0, pretend = 0, frame = 32
 882              		@ frame_needed = 0, uses_anonymous_args = 0
 310:Drivers/BSP/STM32746G-Discovery/stm32746g_discovery.c ****   GPIO_InitTypeDef gpio_init_structure;
 883              		.loc 1 310 1 is_stmt 0 view .LVU203
 884 0000 30B5     		push	{r4, r5, lr}
 885              	.LCFI22:
 886              		.cfi_def_cfa_offset 12
 887              		.cfi_offset 4, -12
 888              		.cfi_offset 5, -8
 889              		.cfi_offset 14, -4
 890 0002 89B0     		sub	sp, sp, #36
 891              	.LCFI23:
 892              		.cfi_def_cfa_offset 48
 893 0004 0C46     		mov	r4, r1
 311:Drivers/BSP/STM32746G-Discovery/stm32746g_discovery.c ****   
 894              		.loc 1 311 3 is_stmt 1 view .LVU204
 314:Drivers/BSP/STM32746G-Discovery/stm32746g_discovery.c ****   
 895              		.loc 1 314 3 view .LVU205
 314:Drivers/BSP/STM32746G-Discovery/stm32746g_discovery.c ****   
 896              		.loc 1 314 3 view .LVU206
 897 0006 0546     		mov	r5, r0
 898 0008 70B9     		cbnz	r0, .L75
 314:Drivers/BSP/STM32746G-Discovery/stm32746g_discovery.c ****   
 899              		.loc 1 314 3 discriminator 1 view .LVU207
 900              	.LBB7:
 314:Drivers/BSP/STM32746G-Discovery/stm32746g_discovery.c ****   
 901              		.loc 1 314 3 discriminator 1 view .LVU208
 314:Drivers/BSP/STM32746G-Discovery/stm32746g_discovery.c ****   
 902              		.loc 1 314 3 discriminator 1 view .LVU209
 903 000a 2B4B     		ldr	r3, .L86
 904 000c 1A6B     		ldr	r2, [r3, #48]
 905 000e 42F48072 		orr	r2, r2, #256
 906 0012 1A63     		str	r2, [r3, #48]
 314:Drivers/BSP/STM32746G-Discovery/stm32746g_discovery.c ****   
 907              		.loc 1 314 3 discriminator 1 view .LVU210
 908 0014 1B6B     		ldr	r3, [r3, #48]
 909 0016 03F48073 		and	r3, r3, #256
 910 001a 0093     		str	r3, [sp]
 314:Drivers/BSP/STM32746G-Discovery/stm32746g_discovery.c ****   
 911              		.loc 1 314 3 discriminator 1 view .LVU211
 912 001c 009B     		ldr	r3, [sp]
 913              	.LBE7:
 314:Drivers/BSP/STM32746G-Discovery/stm32746g_discovery.c ****   
 914              		.loc 1 314 3 discriminator 1 view .LVU212
 915              	.L76:
 314:Drivers/BSP/STM32746G-Discovery/stm32746g_discovery.c ****   
 916              		.loc 1 314 3 discriminator 7 view .LVU213
 314:Drivers/BSP/STM32746G-Discovery/stm32746g_discovery.c ****   
 917              		.loc 1 314 3 discriminator 7 view .LVU214
 316:Drivers/BSP/STM32746G-Discovery/stm32746g_discovery.c ****   {
 918              		.loc 1 316 3 discriminator 7 view .LVU215
 316:Drivers/BSP/STM32746G-Discovery/stm32746g_discovery.c ****   {
 919              		.loc 1 316 5 is_stmt 0 discriminator 7 view .LVU216
 920 001e DCB1     		cbz	r4, .L83
 921              	.LVL65:
 922              	.L78:
ARM GAS  /var/folders/yz/w8msd8211qzc60m57tpkzbn80000gn/T//ccRVvTE8.s 			page 31


 326:Drivers/BSP/STM32746G-Discovery/stm32746g_discovery.c ****   {
 923              		.loc 1 326 3 is_stmt 1 view .LVU217
 326:Drivers/BSP/STM32746G-Discovery/stm32746g_discovery.c ****   {
 924              		.loc 1 326 5 is_stmt 0 view .LVU218
 925 0020 012C     		cmp	r4, #1
 926 0022 29D0     		beq	.L84
 927              	.L74:
 348:Drivers/BSP/STM32746G-Discovery/stm32746g_discovery.c **** 
 928              		.loc 1 348 1 view .LVU219
 929 0024 09B0     		add	sp, sp, #36
 930              	.LCFI24:
 931              		.cfi_remember_state
 932              		.cfi_def_cfa_offset 12
 933              		@ sp needed
 934 0026 30BD     		pop	{r4, r5, pc}
 935              	.LVL66:
 936              	.L75:
 937              	.LCFI25:
 938              		.cfi_restore_state
 314:Drivers/BSP/STM32746G-Discovery/stm32746g_discovery.c ****   
 939              		.loc 1 314 3 is_stmt 1 discriminator 2 view .LVU220
 940 0028 0128     		cmp	r0, #1
 941 002a 0AD0     		beq	.L85
 314:Drivers/BSP/STM32746G-Discovery/stm32746g_discovery.c ****   
 942              		.loc 1 314 3 discriminator 5 view .LVU221
 943              	.LBB8:
 314:Drivers/BSP/STM32746G-Discovery/stm32746g_discovery.c ****   
 944              		.loc 1 314 3 discriminator 5 view .LVU222
 314:Drivers/BSP/STM32746G-Discovery/stm32746g_discovery.c ****   
 945              		.loc 1 314 3 discriminator 5 view .LVU223
 946 002c 224B     		ldr	r3, .L86
 947 002e 1A6B     		ldr	r2, [r3, #48]
 948 0030 42F48072 		orr	r2, r2, #256
 949 0034 1A63     		str	r2, [r3, #48]
 314:Drivers/BSP/STM32746G-Discovery/stm32746g_discovery.c ****   
 950              		.loc 1 314 3 discriminator 5 view .LVU224
 951 0036 1B6B     		ldr	r3, [r3, #48]
 952 0038 03F48073 		and	r3, r3, #256
 953 003c 0293     		str	r3, [sp, #8]
 314:Drivers/BSP/STM32746G-Discovery/stm32746g_discovery.c ****   
 954              		.loc 1 314 3 discriminator 5 view .LVU225
 955 003e 029B     		ldr	r3, [sp, #8]
 956 0040 EDE7     		b	.L76
 957              	.L85:
 958              	.LBE8:
 314:Drivers/BSP/STM32746G-Discovery/stm32746g_discovery.c ****   
 959              		.loc 1 314 3 discriminator 4 view .LVU226
 960              	.LBB9:
 314:Drivers/BSP/STM32746G-Discovery/stm32746g_discovery.c ****   
 961              		.loc 1 314 3 discriminator 4 view .LVU227
 314:Drivers/BSP/STM32746G-Discovery/stm32746g_discovery.c ****   
 962              		.loc 1 314 3 discriminator 4 view .LVU228
 963 0042 1D4B     		ldr	r3, .L86
 964 0044 1A6B     		ldr	r2, [r3, #48]
 965 0046 42F48072 		orr	r2, r2, #256
 966 004a 1A63     		str	r2, [r3, #48]
 314:Drivers/BSP/STM32746G-Discovery/stm32746g_discovery.c ****   
ARM GAS  /var/folders/yz/w8msd8211qzc60m57tpkzbn80000gn/T//ccRVvTE8.s 			page 32


 967              		.loc 1 314 3 discriminator 4 view .LVU229
 968 004c 1B6B     		ldr	r3, [r3, #48]
 969 004e 03F48073 		and	r3, r3, #256
 970 0052 0193     		str	r3, [sp, #4]
 314:Drivers/BSP/STM32746G-Discovery/stm32746g_discovery.c ****   
 971              		.loc 1 314 3 discriminator 4 view .LVU230
 972 0054 019B     		ldr	r3, [sp, #4]
 973              	.LBE9:
 314:Drivers/BSP/STM32746G-Discovery/stm32746g_discovery.c ****   
 974              		.loc 1 314 3 discriminator 4 view .LVU231
 975 0056 E2E7     		b	.L76
 976              	.L83:
 319:Drivers/BSP/STM32746G-Discovery/stm32746g_discovery.c ****     gpio_init_structure.Mode = GPIO_MODE_INPUT;
 977              		.loc 1 319 5 view .LVU232
 319:Drivers/BSP/STM32746G-Discovery/stm32746g_discovery.c ****     gpio_init_structure.Mode = GPIO_MODE_INPUT;
 978              		.loc 1 319 41 is_stmt 0 view .LVU233
 979 0058 184B     		ldr	r3, .L86+4
 980 005a 33F81530 		ldrh	r3, [r3, r5, lsl #1]
 319:Drivers/BSP/STM32746G-Discovery/stm32746g_discovery.c ****     gpio_init_structure.Mode = GPIO_MODE_INPUT;
 981              		.loc 1 319 29 view .LVU234
 982 005e 0393     		str	r3, [sp, #12]
 320:Drivers/BSP/STM32746G-Discovery/stm32746g_discovery.c ****     gpio_init_structure.Pull = GPIO_NOPULL;
 983              		.loc 1 320 5 is_stmt 1 view .LVU235
 320:Drivers/BSP/STM32746G-Discovery/stm32746g_discovery.c ****     gpio_init_structure.Pull = GPIO_NOPULL;
 984              		.loc 1 320 30 is_stmt 0 view .LVU236
 985 0060 0023     		movs	r3, #0
 986 0062 0493     		str	r3, [sp, #16]
 321:Drivers/BSP/STM32746G-Discovery/stm32746g_discovery.c ****     gpio_init_structure.Speed = GPIO_SPEED_FAST;
 987              		.loc 1 321 5 is_stmt 1 view .LVU237
 321:Drivers/BSP/STM32746G-Discovery/stm32746g_discovery.c ****     gpio_init_structure.Speed = GPIO_SPEED_FAST;
 988              		.loc 1 321 30 is_stmt 0 view .LVU238
 989 0064 0593     		str	r3, [sp, #20]
 322:Drivers/BSP/STM32746G-Discovery/stm32746g_discovery.c ****     HAL_GPIO_Init(BUTTON_PORT[Button], &gpio_init_structure);
 990              		.loc 1 322 5 is_stmt 1 view .LVU239
 322:Drivers/BSP/STM32746G-Discovery/stm32746g_discovery.c ****     HAL_GPIO_Init(BUTTON_PORT[Button], &gpio_init_structure);
 991              		.loc 1 322 31 is_stmt 0 view .LVU240
 992 0066 0223     		movs	r3, #2
 993 0068 0693     		str	r3, [sp, #24]
 323:Drivers/BSP/STM32746G-Discovery/stm32746g_discovery.c ****   }
 994              		.loc 1 323 5 is_stmt 1 view .LVU241
 995 006a 03A9     		add	r1, sp, #12
 996              	.LVL67:
 323:Drivers/BSP/STM32746G-Discovery/stm32746g_discovery.c ****   }
 997              		.loc 1 323 5 is_stmt 0 view .LVU242
 998 006c 144B     		ldr	r3, .L86+8
 999 006e 53F82500 		ldr	r0, [r3, r5, lsl #2]
 1000              	.LVL68:
 323:Drivers/BSP/STM32746G-Discovery/stm32746g_discovery.c ****   }
 1001              		.loc 1 323 5 view .LVU243
 1002 0072 FFF7FEFF 		bl	HAL_GPIO_Init
 1003              	.LVL69:
 1004 0076 D3E7     		b	.L78
 1005              	.L84:
 329:Drivers/BSP/STM32746G-Discovery/stm32746g_discovery.c ****     gpio_init_structure.Pull = GPIO_NOPULL;
 1006              		.loc 1 329 5 is_stmt 1 view .LVU244
 329:Drivers/BSP/STM32746G-Discovery/stm32746g_discovery.c ****     gpio_init_structure.Pull = GPIO_NOPULL;
 1007              		.loc 1 329 41 is_stmt 0 view .LVU245
ARM GAS  /var/folders/yz/w8msd8211qzc60m57tpkzbn80000gn/T//ccRVvTE8.s 			page 33


 1008 0078 104B     		ldr	r3, .L86+4
 1009 007a 33F81530 		ldrh	r3, [r3, r5, lsl #1]
 329:Drivers/BSP/STM32746G-Discovery/stm32746g_discovery.c ****     gpio_init_structure.Pull = GPIO_NOPULL;
 1010              		.loc 1 329 29 view .LVU246
 1011 007e 0393     		str	r3, [sp, #12]
 330:Drivers/BSP/STM32746G-Discovery/stm32746g_discovery.c ****     gpio_init_structure.Speed = GPIO_SPEED_FAST;
 1012              		.loc 1 330 5 is_stmt 1 view .LVU247
 330:Drivers/BSP/STM32746G-Discovery/stm32746g_discovery.c ****     gpio_init_structure.Speed = GPIO_SPEED_FAST;
 1013              		.loc 1 330 30 is_stmt 0 view .LVU248
 1014 0080 0023     		movs	r3, #0
 1015 0082 0593     		str	r3, [sp, #20]
 331:Drivers/BSP/STM32746G-Discovery/stm32746g_discovery.c ****     
 1016              		.loc 1 331 5 is_stmt 1 view .LVU249
 331:Drivers/BSP/STM32746G-Discovery/stm32746g_discovery.c ****     
 1017              		.loc 1 331 31 is_stmt 0 view .LVU250
 1018 0084 0223     		movs	r3, #2
 1019 0086 0693     		str	r3, [sp, #24]
 333:Drivers/BSP/STM32746G-Discovery/stm32746g_discovery.c ****     {
 1020              		.loc 1 333 5 is_stmt 1 view .LVU251
 333:Drivers/BSP/STM32746G-Discovery/stm32746g_discovery.c ****     {
 1021              		.loc 1 333 7 is_stmt 0 view .LVU252
 1022 0088 9DB1     		cbz	r5, .L80
 335:Drivers/BSP/STM32746G-Discovery/stm32746g_discovery.c ****     }
 1023              		.loc 1 335 7 is_stmt 1 view .LVU253
 335:Drivers/BSP/STM32746G-Discovery/stm32746g_discovery.c ****     }
 1024              		.loc 1 335 32 is_stmt 0 view .LVU254
 1025 008a 0E4B     		ldr	r3, .L86+12
 1026 008c 0493     		str	r3, [sp, #16]
 1027              	.L81:
 342:Drivers/BSP/STM32746G-Discovery/stm32746g_discovery.c ****     
 1028              		.loc 1 342 5 is_stmt 1 view .LVU255
 1029 008e 03A9     		add	r1, sp, #12
 1030 0090 0B4B     		ldr	r3, .L86+8
 1031 0092 53F82500 		ldr	r0, [r3, r5, lsl #2]
 1032 0096 FFF7FEFF 		bl	HAL_GPIO_Init
 1033              	.LVL70:
 345:Drivers/BSP/STM32746G-Discovery/stm32746g_discovery.c ****     HAL_NVIC_EnableIRQ((IRQn_Type)(BUTTON_IRQn[Button]));
 1034              		.loc 1 345 5 view .LVU256
 1035 009a 0B4B     		ldr	r3, .L86+16
 1036 009c 13F91540 		ldrsb	r4, [r3, r5, lsl #1]
 1037 00a0 0022     		movs	r2, #0
 1038 00a2 0F21     		movs	r1, #15
 1039 00a4 2046     		mov	r0, r4
 1040 00a6 FFF7FEFF 		bl	HAL_NVIC_SetPriority
 1041              	.LVL71:
 346:Drivers/BSP/STM32746G-Discovery/stm32746g_discovery.c ****   }
 1042              		.loc 1 346 5 view .LVU257
 1043 00aa 2046     		mov	r0, r4
 1044 00ac FFF7FEFF 		bl	HAL_NVIC_EnableIRQ
 1045              	.LVL72:
 348:Drivers/BSP/STM32746G-Discovery/stm32746g_discovery.c **** 
 1046              		.loc 1 348 1 is_stmt 0 view .LVU258
 1047 00b0 B8E7     		b	.L74
 1048              	.L80:
 339:Drivers/BSP/STM32746G-Discovery/stm32746g_discovery.c ****     }
 1049              		.loc 1 339 7 is_stmt 1 view .LVU259
 339:Drivers/BSP/STM32746G-Discovery/stm32746g_discovery.c ****     }
ARM GAS  /var/folders/yz/w8msd8211qzc60m57tpkzbn80000gn/T//ccRVvTE8.s 			page 34


 1050              		.loc 1 339 32 is_stmt 0 view .LVU260
 1051 00b2 064B     		ldr	r3, .L86+20
 1052 00b4 0493     		str	r3, [sp, #16]
 1053 00b6 EAE7     		b	.L81
 1054              	.L87:
 1055              		.align	2
 1056              	.L86:
 1057 00b8 00380240 		.word	1073887232
 1058 00bc 00000000 		.word	.LANCHOR1
 1059 00c0 00000000 		.word	.LANCHOR2
 1060 00c4 00002110 		.word	270598144
 1061 00c8 00000000 		.word	.LANCHOR3
 1062 00cc 00001110 		.word	269549568
 1063              		.cfi_endproc
 1064              	.LFE147:
 1066              		.section	.text.BSP_PB_DeInit,"ax",%progbits
 1067              		.align	1
 1068              		.global	BSP_PB_DeInit
 1069              		.syntax unified
 1070              		.thumb
 1071              		.thumb_func
 1072              		.fpu fpv5-sp-d16
 1074              	BSP_PB_DeInit:
 1075              	.LVL73:
 1076              	.LFB148:
 364:Drivers/BSP/STM32746G-Discovery/stm32746g_discovery.c ****     GPIO_InitTypeDef gpio_init_structure;
 1077              		.loc 1 364 1 is_stmt 1 view -0
 1078              		.cfi_startproc
 1079              		@ args = 0, pretend = 0, frame = 0
 1080              		@ frame_needed = 0, uses_anonymous_args = 0
 364:Drivers/BSP/STM32746G-Discovery/stm32746g_discovery.c ****     GPIO_InitTypeDef gpio_init_structure;
 1081              		.loc 1 364 1 is_stmt 0 view .LVU262
 1082 0000 38B5     		push	{r3, r4, r5, lr}
 1083              	.LCFI26:
 1084              		.cfi_def_cfa_offset 16
 1085              		.cfi_offset 3, -16
 1086              		.cfi_offset 4, -12
 1087              		.cfi_offset 5, -8
 1088              		.cfi_offset 14, -4
 1089 0002 0446     		mov	r4, r0
 365:Drivers/BSP/STM32746G-Discovery/stm32746g_discovery.c **** 
 1090              		.loc 1 365 5 is_stmt 1 view .LVU263
 367:Drivers/BSP/STM32746G-Discovery/stm32746g_discovery.c ****     HAL_NVIC_DisableIRQ((IRQn_Type)(BUTTON_IRQn[Button]));
 1091              		.loc 1 367 5 view .LVU264
 367:Drivers/BSP/STM32746G-Discovery/stm32746g_discovery.c ****     HAL_NVIC_DisableIRQ((IRQn_Type)(BUTTON_IRQn[Button]));
 1092              		.loc 1 367 41 is_stmt 0 view .LVU265
 1093 0004 074B     		ldr	r3, .L90
 1094 0006 33F81050 		ldrh	r5, [r3, r0, lsl #1]
 368:Drivers/BSP/STM32746G-Discovery/stm32746g_discovery.c ****     HAL_GPIO_DeInit(BUTTON_PORT[Button], gpio_init_structure.Pin);
 1095              		.loc 1 368 5 is_stmt 1 view .LVU266
 1096 000a 074B     		ldr	r3, .L90+4
 1097 000c 13F91000 		ldrsb	r0, [r3, r0, lsl #1]
 1098              	.LVL74:
 368:Drivers/BSP/STM32746G-Discovery/stm32746g_discovery.c ****     HAL_GPIO_DeInit(BUTTON_PORT[Button], gpio_init_structure.Pin);
 1099              		.loc 1 368 5 is_stmt 0 view .LVU267
 1100 0010 FFF7FEFF 		bl	HAL_NVIC_DisableIRQ
 1101              	.LVL75:
ARM GAS  /var/folders/yz/w8msd8211qzc60m57tpkzbn80000gn/T//ccRVvTE8.s 			page 35


 369:Drivers/BSP/STM32746G-Discovery/stm32746g_discovery.c **** }
 1102              		.loc 1 369 5 is_stmt 1 view .LVU268
 1103 0014 2946     		mov	r1, r5
 1104 0016 054B     		ldr	r3, .L90+8
 1105 0018 53F82400 		ldr	r0, [r3, r4, lsl #2]
 1106 001c FFF7FEFF 		bl	HAL_GPIO_DeInit
 1107              	.LVL76:
 370:Drivers/BSP/STM32746G-Discovery/stm32746g_discovery.c **** 
 1108              		.loc 1 370 1 is_stmt 0 view .LVU269
 1109 0020 38BD     		pop	{r3, r4, r5, pc}
 1110              	.L91:
 1111 0022 00BF     		.align	2
 1112              	.L90:
 1113 0024 00000000 		.word	.LANCHOR1
 1114 0028 00000000 		.word	.LANCHOR3
 1115 002c 00000000 		.word	.LANCHOR2
 1116              		.cfi_endproc
 1117              	.LFE148:
 1119              		.section	.text.BSP_PB_GetState,"ax",%progbits
 1120              		.align	1
 1121              		.global	BSP_PB_GetState
 1122              		.syntax unified
 1123              		.thumb
 1124              		.thumb_func
 1125              		.fpu fpv5-sp-d16
 1127              	BSP_PB_GetState:
 1128              	.LVL77:
 1129              	.LFB149:
 386:Drivers/BSP/STM32746G-Discovery/stm32746g_discovery.c ****   return HAL_GPIO_ReadPin(BUTTON_PORT[Button], BUTTON_PIN[Button]);
 1130              		.loc 1 386 1 is_stmt 1 view -0
 1131              		.cfi_startproc
 1132              		@ args = 0, pretend = 0, frame = 0
 1133              		@ frame_needed = 0, uses_anonymous_args = 0
 386:Drivers/BSP/STM32746G-Discovery/stm32746g_discovery.c ****   return HAL_GPIO_ReadPin(BUTTON_PORT[Button], BUTTON_PIN[Button]);
 1134              		.loc 1 386 1 is_stmt 0 view .LVU271
 1135 0000 08B5     		push	{r3, lr}
 1136              	.LCFI27:
 1137              		.cfi_def_cfa_offset 8
 1138              		.cfi_offset 3, -8
 1139              		.cfi_offset 14, -4
 387:Drivers/BSP/STM32746G-Discovery/stm32746g_discovery.c **** }
 1140              		.loc 1 387 3 is_stmt 1 view .LVU272
 387:Drivers/BSP/STM32746G-Discovery/stm32746g_discovery.c **** }
 1141              		.loc 1 387 10 is_stmt 0 view .LVU273
 1142 0002 044B     		ldr	r3, .L94
 1143 0004 33F81010 		ldrh	r1, [r3, r0, lsl #1]
 1144 0008 034B     		ldr	r3, .L94+4
 1145 000a 53F82000 		ldr	r0, [r3, r0, lsl #2]
 1146              	.LVL78:
 387:Drivers/BSP/STM32746G-Discovery/stm32746g_discovery.c **** }
 1147              		.loc 1 387 10 view .LVU274
 1148 000e FFF7FEFF 		bl	HAL_GPIO_ReadPin
 1149              	.LVL79:
 388:Drivers/BSP/STM32746G-Discovery/stm32746g_discovery.c **** 
 1150              		.loc 1 388 1 view .LVU275
 1151 0012 08BD     		pop	{r3, pc}
 1152              	.L95:
ARM GAS  /var/folders/yz/w8msd8211qzc60m57tpkzbn80000gn/T//ccRVvTE8.s 			page 36


 1153              		.align	2
 1154              	.L94:
 1155 0014 00000000 		.word	.LANCHOR1
 1156 0018 00000000 		.word	.LANCHOR2
 1157              		.cfi_endproc
 1158              	.LFE149:
 1160              		.section	.text.BSP_COM_Init,"ax",%progbits
 1161              		.align	1
 1162              		.global	BSP_COM_Init
 1163              		.syntax unified
 1164              		.thumb
 1165              		.thumb_func
 1166              		.fpu fpv5-sp-d16
 1168              	BSP_COM_Init:
 1169              	.LVL80:
 1170              	.LFB150:
 401:Drivers/BSP/STM32746G-Discovery/stm32746g_discovery.c ****   GPIO_InitTypeDef gpio_init_structure;
 1171              		.loc 1 401 1 is_stmt 1 view -0
 1172              		.cfi_startproc
 1173              		@ args = 0, pretend = 0, frame = 32
 1174              		@ frame_needed = 0, uses_anonymous_args = 0
 401:Drivers/BSP/STM32746G-Discovery/stm32746g_discovery.c ****   GPIO_InitTypeDef gpio_init_structure;
 1175              		.loc 1 401 1 is_stmt 0 view .LVU277
 1176 0000 F0B5     		push	{r4, r5, r6, r7, lr}
 1177              	.LCFI28:
 1178              		.cfi_def_cfa_offset 20
 1179              		.cfi_offset 4, -20
 1180              		.cfi_offset 5, -16
 1181              		.cfi_offset 6, -12
 1182              		.cfi_offset 7, -8
 1183              		.cfi_offset 14, -4
 1184 0002 89B0     		sub	sp, sp, #36
 1185              	.LCFI29:
 1186              		.cfi_def_cfa_offset 56
 1187 0004 0D46     		mov	r5, r1
 402:Drivers/BSP/STM32746G-Discovery/stm32746g_discovery.c **** 
 1188              		.loc 1 402 3 is_stmt 1 view .LVU278
 405:Drivers/BSP/STM32746G-Discovery/stm32746g_discovery.c ****   DISCOVERY_COMx_RX_GPIO_CLK_ENABLE(COM);
 1189              		.loc 1 405 3 view .LVU279
 405:Drivers/BSP/STM32746G-Discovery/stm32746g_discovery.c ****   DISCOVERY_COMx_RX_GPIO_CLK_ENABLE(COM);
 1190              		.loc 1 405 3 view .LVU280
 1191 0006 0446     		mov	r4, r0
 1192 0008 48B9     		cbnz	r0, .L97
 405:Drivers/BSP/STM32746G-Discovery/stm32746g_discovery.c ****   DISCOVERY_COMx_RX_GPIO_CLK_ENABLE(COM);
 1193              		.loc 1 405 3 discriminator 1 view .LVU281
 1194              	.LBB10:
 405:Drivers/BSP/STM32746G-Discovery/stm32746g_discovery.c ****   DISCOVERY_COMx_RX_GPIO_CLK_ENABLE(COM);
 1195              		.loc 1 405 3 discriminator 1 view .LVU282
 405:Drivers/BSP/STM32746G-Discovery/stm32746g_discovery.c ****   DISCOVERY_COMx_RX_GPIO_CLK_ENABLE(COM);
 1196              		.loc 1 405 3 discriminator 1 view .LVU283
 1197 000a 214B     		ldr	r3, .L101
 1198 000c 1A6B     		ldr	r2, [r3, #48]
 1199 000e 42F00102 		orr	r2, r2, #1
 1200 0012 1A63     		str	r2, [r3, #48]
 405:Drivers/BSP/STM32746G-Discovery/stm32746g_discovery.c ****   DISCOVERY_COMx_RX_GPIO_CLK_ENABLE(COM);
 1201              		.loc 1 405 3 discriminator 1 view .LVU284
 1202 0014 1B6B     		ldr	r3, [r3, #48]
ARM GAS  /var/folders/yz/w8msd8211qzc60m57tpkzbn80000gn/T//ccRVvTE8.s 			page 37


 1203 0016 03F00103 		and	r3, r3, #1
 1204 001a 0093     		str	r3, [sp]
 405:Drivers/BSP/STM32746G-Discovery/stm32746g_discovery.c ****   DISCOVERY_COMx_RX_GPIO_CLK_ENABLE(COM);
 1205              		.loc 1 405 3 discriminator 1 view .LVU285
 1206 001c 009B     		ldr	r3, [sp]
 1207              	.L97:
 1208              	.LBE10:
 405:Drivers/BSP/STM32746G-Discovery/stm32746g_discovery.c ****   DISCOVERY_COMx_RX_GPIO_CLK_ENABLE(COM);
 1209              		.loc 1 405 3 discriminator 3 view .LVU286
 405:Drivers/BSP/STM32746G-Discovery/stm32746g_discovery.c ****   DISCOVERY_COMx_RX_GPIO_CLK_ENABLE(COM);
 1210              		.loc 1 405 3 discriminator 3 view .LVU287
 406:Drivers/BSP/STM32746G-Discovery/stm32746g_discovery.c **** 
 1211              		.loc 1 406 3 discriminator 3 view .LVU288
 406:Drivers/BSP/STM32746G-Discovery/stm32746g_discovery.c **** 
 1212              		.loc 1 406 3 discriminator 3 view .LVU289
 1213 001e 4CB9     		cbnz	r4, .L98
 406:Drivers/BSP/STM32746G-Discovery/stm32746g_discovery.c **** 
 1214              		.loc 1 406 3 discriminator 1 view .LVU290
 1215              	.LBB11:
 406:Drivers/BSP/STM32746G-Discovery/stm32746g_discovery.c **** 
 1216              		.loc 1 406 3 discriminator 1 view .LVU291
 406:Drivers/BSP/STM32746G-Discovery/stm32746g_discovery.c **** 
 1217              		.loc 1 406 3 discriminator 1 view .LVU292
 1218 0020 1B4B     		ldr	r3, .L101
 1219 0022 1A6B     		ldr	r2, [r3, #48]
 1220 0024 42F00202 		orr	r2, r2, #2
 1221 0028 1A63     		str	r2, [r3, #48]
 406:Drivers/BSP/STM32746G-Discovery/stm32746g_discovery.c **** 
 1222              		.loc 1 406 3 discriminator 1 view .LVU293
 1223 002a 1B6B     		ldr	r3, [r3, #48]
 1224 002c 03F00203 		and	r3, r3, #2
 1225 0030 0193     		str	r3, [sp, #4]
 406:Drivers/BSP/STM32746G-Discovery/stm32746g_discovery.c **** 
 1226              		.loc 1 406 3 discriminator 1 view .LVU294
 1227 0032 019B     		ldr	r3, [sp, #4]
 1228              	.L98:
 1229              	.LBE11:
 406:Drivers/BSP/STM32746G-Discovery/stm32746g_discovery.c **** 
 1230              		.loc 1 406 3 discriminator 3 view .LVU295
 406:Drivers/BSP/STM32746G-Discovery/stm32746g_discovery.c **** 
 1231              		.loc 1 406 3 discriminator 3 view .LVU296
 409:Drivers/BSP/STM32746G-Discovery/stm32746g_discovery.c **** 
 1232              		.loc 1 409 3 discriminator 3 view .LVU297
 409:Drivers/BSP/STM32746G-Discovery/stm32746g_discovery.c **** 
 1233              		.loc 1 409 3 discriminator 3 view .LVU298
 1234 0034 4CB9     		cbnz	r4, .L99
 409:Drivers/BSP/STM32746G-Discovery/stm32746g_discovery.c **** 
 1235              		.loc 1 409 3 discriminator 1 view .LVU299
 1236              	.LBB12:
 409:Drivers/BSP/STM32746G-Discovery/stm32746g_discovery.c **** 
 1237              		.loc 1 409 3 discriminator 1 view .LVU300
 409:Drivers/BSP/STM32746G-Discovery/stm32746g_discovery.c **** 
 1238              		.loc 1 409 3 discriminator 1 view .LVU301
 1239 0036 164B     		ldr	r3, .L101
 1240 0038 5A6C     		ldr	r2, [r3, #68]
 1241 003a 42F01002 		orr	r2, r2, #16
 1242 003e 5A64     		str	r2, [r3, #68]
ARM GAS  /var/folders/yz/w8msd8211qzc60m57tpkzbn80000gn/T//ccRVvTE8.s 			page 38


 409:Drivers/BSP/STM32746G-Discovery/stm32746g_discovery.c **** 
 1243              		.loc 1 409 3 discriminator 1 view .LVU302
 1244 0040 5B6C     		ldr	r3, [r3, #68]
 1245 0042 03F01003 		and	r3, r3, #16
 1246 0046 0293     		str	r3, [sp, #8]
 409:Drivers/BSP/STM32746G-Discovery/stm32746g_discovery.c **** 
 1247              		.loc 1 409 3 discriminator 1 view .LVU303
 1248 0048 029B     		ldr	r3, [sp, #8]
 1249              	.L99:
 1250              	.LBE12:
 409:Drivers/BSP/STM32746G-Discovery/stm32746g_discovery.c **** 
 1251              		.loc 1 409 3 discriminator 3 view .LVU304
 409:Drivers/BSP/STM32746G-Discovery/stm32746g_discovery.c **** 
 1252              		.loc 1 409 3 discriminator 3 view .LVU305
 412:Drivers/BSP/STM32746G-Discovery/stm32746g_discovery.c ****   gpio_init_structure.Mode = GPIO_MODE_AF_PP;
 1253              		.loc 1 412 3 discriminator 3 view .LVU306
 412:Drivers/BSP/STM32746G-Discovery/stm32746g_discovery.c ****   gpio_init_structure.Mode = GPIO_MODE_AF_PP;
 1254              		.loc 1 412 27 is_stmt 0 discriminator 3 view .LVU307
 1255 004a 4FF40073 		mov	r3, #512
 1256 004e 0393     		str	r3, [sp, #12]
 413:Drivers/BSP/STM32746G-Discovery/stm32746g_discovery.c ****   gpio_init_structure.Speed = GPIO_SPEED_FAST;
 1257              		.loc 1 413 3 is_stmt 1 discriminator 3 view .LVU308
 413:Drivers/BSP/STM32746G-Discovery/stm32746g_discovery.c ****   gpio_init_structure.Speed = GPIO_SPEED_FAST;
 1258              		.loc 1 413 28 is_stmt 0 discriminator 3 view .LVU309
 1259 0050 0226     		movs	r6, #2
 1260 0052 0496     		str	r6, [sp, #16]
 414:Drivers/BSP/STM32746G-Discovery/stm32746g_discovery.c ****   gpio_init_structure.Pull = GPIO_PULLUP;
 1261              		.loc 1 414 3 is_stmt 1 discriminator 3 view .LVU310
 414:Drivers/BSP/STM32746G-Discovery/stm32746g_discovery.c ****   gpio_init_structure.Pull = GPIO_PULLUP;
 1262              		.loc 1 414 29 is_stmt 0 discriminator 3 view .LVU311
 1263 0054 0696     		str	r6, [sp, #24]
 415:Drivers/BSP/STM32746G-Discovery/stm32746g_discovery.c ****   gpio_init_structure.Alternate = COM_TX_AF[COM];
 1264              		.loc 1 415 3 is_stmt 1 discriminator 3 view .LVU312
 415:Drivers/BSP/STM32746G-Discovery/stm32746g_discovery.c ****   gpio_init_structure.Alternate = COM_TX_AF[COM];
 1265              		.loc 1 415 28 is_stmt 0 discriminator 3 view .LVU313
 1266 0056 0123     		movs	r3, #1
 1267 0058 0593     		str	r3, [sp, #20]
 416:Drivers/BSP/STM32746G-Discovery/stm32746g_discovery.c ****   HAL_GPIO_Init(COM_TX_PORT[COM], &gpio_init_structure);
 1268              		.loc 1 416 3 is_stmt 1 discriminator 3 view .LVU314
 416:Drivers/BSP/STM32746G-Discovery/stm32746g_discovery.c ****   HAL_GPIO_Init(COM_TX_PORT[COM], &gpio_init_structure);
 1269              		.loc 1 416 33 is_stmt 0 discriminator 3 view .LVU315
 1270 005a 0727     		movs	r7, #7
 1271 005c 0797     		str	r7, [sp, #28]
 417:Drivers/BSP/STM32746G-Discovery/stm32746g_discovery.c **** 
 1272              		.loc 1 417 3 is_stmt 1 discriminator 3 view .LVU316
 1273 005e 03A9     		add	r1, sp, #12
 1274              	.LVL81:
 417:Drivers/BSP/STM32746G-Discovery/stm32746g_discovery.c **** 
 1275              		.loc 1 417 3 is_stmt 0 discriminator 3 view .LVU317
 1276 0060 0C4B     		ldr	r3, .L101+4
 1277 0062 53F82400 		ldr	r0, [r3, r4, lsl #2]
 1278              	.LVL82:
 417:Drivers/BSP/STM32746G-Discovery/stm32746g_discovery.c **** 
 1279              		.loc 1 417 3 discriminator 3 view .LVU318
 1280 0066 FFF7FEFF 		bl	HAL_GPIO_Init
 1281              	.LVL83:
 420:Drivers/BSP/STM32746G-Discovery/stm32746g_discovery.c ****   gpio_init_structure.Mode = GPIO_MODE_AF_PP;
ARM GAS  /var/folders/yz/w8msd8211qzc60m57tpkzbn80000gn/T//ccRVvTE8.s 			page 39


 1282              		.loc 1 420 3 is_stmt 1 discriminator 3 view .LVU319
 420:Drivers/BSP/STM32746G-Discovery/stm32746g_discovery.c ****   gpio_init_structure.Mode = GPIO_MODE_AF_PP;
 1283              		.loc 1 420 27 is_stmt 0 discriminator 3 view .LVU320
 1284 006a 8023     		movs	r3, #128
 1285 006c 0393     		str	r3, [sp, #12]
 421:Drivers/BSP/STM32746G-Discovery/stm32746g_discovery.c ****   gpio_init_structure.Alternate = COM_RX_AF[COM];
 1286              		.loc 1 421 3 is_stmt 1 discriminator 3 view .LVU321
 421:Drivers/BSP/STM32746G-Discovery/stm32746g_discovery.c ****   gpio_init_structure.Alternate = COM_RX_AF[COM];
 1287              		.loc 1 421 28 is_stmt 0 discriminator 3 view .LVU322
 1288 006e 0496     		str	r6, [sp, #16]
 422:Drivers/BSP/STM32746G-Discovery/stm32746g_discovery.c ****   HAL_GPIO_Init(COM_RX_PORT[COM], &gpio_init_structure);
 1289              		.loc 1 422 3 is_stmt 1 discriminator 3 view .LVU323
 422:Drivers/BSP/STM32746G-Discovery/stm32746g_discovery.c ****   HAL_GPIO_Init(COM_RX_PORT[COM], &gpio_init_structure);
 1290              		.loc 1 422 33 is_stmt 0 discriminator 3 view .LVU324
 1291 0070 0797     		str	r7, [sp, #28]
 423:Drivers/BSP/STM32746G-Discovery/stm32746g_discovery.c **** 
 1292              		.loc 1 423 3 is_stmt 1 discriminator 3 view .LVU325
 1293 0072 03A9     		add	r1, sp, #12
 1294 0074 084B     		ldr	r3, .L101+8
 1295 0076 53F82400 		ldr	r0, [r3, r4, lsl #2]
 1296 007a FFF7FEFF 		bl	HAL_GPIO_Init
 1297              	.LVL84:
 426:Drivers/BSP/STM32746G-Discovery/stm32746g_discovery.c ****   HAL_UART_Init(huart);
 1298              		.loc 1 426 3 discriminator 3 view .LVU326
 426:Drivers/BSP/STM32746G-Discovery/stm32746g_discovery.c ****   HAL_UART_Init(huart);
 1299              		.loc 1 426 30 is_stmt 0 discriminator 3 view .LVU327
 1300 007e 074B     		ldr	r3, .L101+12
 1301 0080 53F82430 		ldr	r3, [r3, r4, lsl #2]
 426:Drivers/BSP/STM32746G-Discovery/stm32746g_discovery.c ****   HAL_UART_Init(huart);
 1302              		.loc 1 426 19 discriminator 3 view .LVU328
 1303 0084 2B60     		str	r3, [r5]
 427:Drivers/BSP/STM32746G-Discovery/stm32746g_discovery.c **** }
 1304              		.loc 1 427 3 is_stmt 1 discriminator 3 view .LVU329
 1305 0086 2846     		mov	r0, r5
 1306 0088 FFF7FEFF 		bl	HAL_UART_Init
 1307              	.LVL85:
 428:Drivers/BSP/STM32746G-Discovery/stm32746g_discovery.c **** 
 1308              		.loc 1 428 1 is_stmt 0 discriminator 3 view .LVU330
 1309 008c 09B0     		add	sp, sp, #36
 1310              	.LCFI30:
 1311              		.cfi_def_cfa_offset 20
 1312              		@ sp needed
 1313 008e F0BD     		pop	{r4, r5, r6, r7, pc}
 1314              	.LVL86:
 1315              	.L102:
 428:Drivers/BSP/STM32746G-Discovery/stm32746g_discovery.c **** 
 1316              		.loc 1 428 1 discriminator 3 view .LVU331
 1317              		.align	2
 1318              	.L101:
 1319 0090 00380240 		.word	1073887232
 1320 0094 00000000 		.word	.LANCHOR4
 1321 0098 00000000 		.word	.LANCHOR5
 1322 009c 00000000 		.word	.LANCHOR6
 1323              		.cfi_endproc
 1324              	.LFE150:
 1326              		.section	.text.BSP_COM_DeInit,"ax",%progbits
 1327              		.align	1
ARM GAS  /var/folders/yz/w8msd8211qzc60m57tpkzbn80000gn/T//ccRVvTE8.s 			page 40


 1328              		.global	BSP_COM_DeInit
 1329              		.syntax unified
 1330              		.thumb
 1331              		.thumb_func
 1332              		.fpu fpv5-sp-d16
 1334              	BSP_COM_DeInit:
 1335              	.LVL87:
 1336              	.LFB151:
 441:Drivers/BSP/STM32746G-Discovery/stm32746g_discovery.c ****   /* USART configuration */
 1337              		.loc 1 441 1 is_stmt 1 view -0
 1338              		.cfi_startproc
 1339              		@ args = 0, pretend = 0, frame = 0
 1340              		@ frame_needed = 0, uses_anonymous_args = 0
 441:Drivers/BSP/STM32746G-Discovery/stm32746g_discovery.c ****   /* USART configuration */
 1341              		.loc 1 441 1 is_stmt 0 view .LVU333
 1342 0000 10B5     		push	{r4, lr}
 1343              	.LCFI31:
 1344              		.cfi_def_cfa_offset 8
 1345              		.cfi_offset 4, -8
 1346              		.cfi_offset 14, -4
 1347 0002 0446     		mov	r4, r0
 1348 0004 0846     		mov	r0, r1
 1349              	.LVL88:
 443:Drivers/BSP/STM32746G-Discovery/stm32746g_discovery.c ****   HAL_UART_DeInit(huart);
 1350              		.loc 1 443 3 is_stmt 1 view .LVU334
 443:Drivers/BSP/STM32746G-Discovery/stm32746g_discovery.c ****   HAL_UART_DeInit(huart);
 1351              		.loc 1 443 30 is_stmt 0 view .LVU335
 1352 0006 064B     		ldr	r3, .L106
 1353 0008 53F82430 		ldr	r3, [r3, r4, lsl #2]
 443:Drivers/BSP/STM32746G-Discovery/stm32746g_discovery.c ****   HAL_UART_DeInit(huart);
 1354              		.loc 1 443 19 view .LVU336
 1355 000c 0B60     		str	r3, [r1]
 444:Drivers/BSP/STM32746G-Discovery/stm32746g_discovery.c **** 
 1356              		.loc 1 444 3 is_stmt 1 view .LVU337
 1357 000e FFF7FEFF 		bl	HAL_UART_DeInit
 1358              	.LVL89:
 447:Drivers/BSP/STM32746G-Discovery/stm32746g_discovery.c **** 
 1359              		.loc 1 447 3 view .LVU338
 1360 0012 24B9     		cbnz	r4, .L103
 447:Drivers/BSP/STM32746G-Discovery/stm32746g_discovery.c **** 
 1361              		.loc 1 447 3 is_stmt 0 discriminator 1 view .LVU339
 1362 0014 034A     		ldr	r2, .L106+4
 1363 0016 536C     		ldr	r3, [r2, #68]
 1364 0018 23F01003 		bic	r3, r3, #16
 1365 001c 5364     		str	r3, [r2, #68]
 1366              	.L103:
 454:Drivers/BSP/STM32746G-Discovery/stm32746g_discovery.c **** 
 1367              		.loc 1 454 1 view .LVU340
 1368 001e 10BD     		pop	{r4, pc}
 1369              	.L107:
 1370              		.align	2
 1371              	.L106:
 1372 0020 00000000 		.word	.LANCHOR6
 1373 0024 00380240 		.word	1073887232
 1374              		.cfi_endproc
 1375              	.LFE151:
 1377              		.section	.text.AUDIO_IO_Init,"ax",%progbits
ARM GAS  /var/folders/yz/w8msd8211qzc60m57tpkzbn80000gn/T//ccRVvTE8.s 			page 41


 1378              		.align	1
 1379              		.global	AUDIO_IO_Init
 1380              		.syntax unified
 1381              		.thumb
 1382              		.thumb_func
 1383              		.fpu fpv5-sp-d16
 1385              	AUDIO_IO_Init:
 1386              	.LFB158:
 668:Drivers/BSP/STM32746G-Discovery/stm32746g_discovery.c **** 
 669:Drivers/BSP/STM32746G-Discovery/stm32746g_discovery.c **** /*******************************************************************************
 670:Drivers/BSP/STM32746G-Discovery/stm32746g_discovery.c ****                             LINK OPERATIONS
 671:Drivers/BSP/STM32746G-Discovery/stm32746g_discovery.c **** *******************************************************************************/
 672:Drivers/BSP/STM32746G-Discovery/stm32746g_discovery.c **** 
 673:Drivers/BSP/STM32746G-Discovery/stm32746g_discovery.c **** /********************************* LINK AUDIO *********************************/
 674:Drivers/BSP/STM32746G-Discovery/stm32746g_discovery.c **** 
 675:Drivers/BSP/STM32746G-Discovery/stm32746g_discovery.c **** /**
 676:Drivers/BSP/STM32746G-Discovery/stm32746g_discovery.c ****   * @brief  Initializes Audio low level.
 677:Drivers/BSP/STM32746G-Discovery/stm32746g_discovery.c ****   * @retval None
 678:Drivers/BSP/STM32746G-Discovery/stm32746g_discovery.c ****   */
 679:Drivers/BSP/STM32746G-Discovery/stm32746g_discovery.c **** void AUDIO_IO_Init(void) 
 680:Drivers/BSP/STM32746G-Discovery/stm32746g_discovery.c **** {
 1387              		.loc 1 680 1 is_stmt 1 view -0
 1388              		.cfi_startproc
 1389              		@ args = 0, pretend = 0, frame = 0
 1390              		@ frame_needed = 0, uses_anonymous_args = 0
 1391 0000 08B5     		push	{r3, lr}
 1392              	.LCFI32:
 1393              		.cfi_def_cfa_offset 8
 1394              		.cfi_offset 3, -8
 1395              		.cfi_offset 14, -4
 681:Drivers/BSP/STM32746G-Discovery/stm32746g_discovery.c ****   I2Cx_Init(&hI2cAudioHandler);
 1396              		.loc 1 681 3 view .LVU342
 1397 0002 0248     		ldr	r0, .L110
 1398 0004 FFF7FEFF 		bl	I2Cx_Init
 1399              	.LVL90:
 682:Drivers/BSP/STM32746G-Discovery/stm32746g_discovery.c **** }
 1400              		.loc 1 682 1 is_stmt 0 view .LVU343
 1401 0008 08BD     		pop	{r3, pc}
 1402              	.L111:
 1403 000a 00BF     		.align	2
 1404              	.L110:
 1405 000c 00000000 		.word	.LANCHOR0
 1406              		.cfi_endproc
 1407              	.LFE158:
 1409              		.section	.text.AUDIO_IO_DeInit,"ax",%progbits
 1410              		.align	1
 1411              		.global	AUDIO_IO_DeInit
 1412              		.syntax unified
 1413              		.thumb
 1414              		.thumb_func
 1415              		.fpu fpv5-sp-d16
 1417              	AUDIO_IO_DeInit:
 1418              	.LFB159:
 683:Drivers/BSP/STM32746G-Discovery/stm32746g_discovery.c **** 
 684:Drivers/BSP/STM32746G-Discovery/stm32746g_discovery.c **** /**
 685:Drivers/BSP/STM32746G-Discovery/stm32746g_discovery.c ****   * @brief  Deinitializes Audio low level.
 686:Drivers/BSP/STM32746G-Discovery/stm32746g_discovery.c ****   * @retval None
ARM GAS  /var/folders/yz/w8msd8211qzc60m57tpkzbn80000gn/T//ccRVvTE8.s 			page 42


 687:Drivers/BSP/STM32746G-Discovery/stm32746g_discovery.c ****   */
 688:Drivers/BSP/STM32746G-Discovery/stm32746g_discovery.c **** void AUDIO_IO_DeInit(void)
 689:Drivers/BSP/STM32746G-Discovery/stm32746g_discovery.c **** {
 1419              		.loc 1 689 1 is_stmt 1 view -0
 1420              		.cfi_startproc
 1421              		@ args = 0, pretend = 0, frame = 0
 1422              		@ frame_needed = 0, uses_anonymous_args = 0
 1423              		@ link register save eliminated.
 690:Drivers/BSP/STM32746G-Discovery/stm32746g_discovery.c **** }
 1424              		.loc 1 690 1 view .LVU345
 1425 0000 7047     		bx	lr
 1426              		.cfi_endproc
 1427              	.LFE159:
 1429              		.section	.text.AUDIO_IO_Write,"ax",%progbits
 1430              		.align	1
 1431              		.global	AUDIO_IO_Write
 1432              		.syntax unified
 1433              		.thumb
 1434              		.thumb_func
 1435              		.fpu fpv5-sp-d16
 1437              	AUDIO_IO_Write:
 1438              	.LVL91:
 1439              	.LFB160:
 691:Drivers/BSP/STM32746G-Discovery/stm32746g_discovery.c **** 
 692:Drivers/BSP/STM32746G-Discovery/stm32746g_discovery.c **** /**
 693:Drivers/BSP/STM32746G-Discovery/stm32746g_discovery.c ****   * @brief  Writes a single data.
 694:Drivers/BSP/STM32746G-Discovery/stm32746g_discovery.c ****   * @param  Addr: I2C address
 695:Drivers/BSP/STM32746G-Discovery/stm32746g_discovery.c ****   * @param  Reg: Reg address 
 696:Drivers/BSP/STM32746G-Discovery/stm32746g_discovery.c ****   * @param  Value: Data to be written
 697:Drivers/BSP/STM32746G-Discovery/stm32746g_discovery.c ****   * @retval None
 698:Drivers/BSP/STM32746G-Discovery/stm32746g_discovery.c ****   */
 699:Drivers/BSP/STM32746G-Discovery/stm32746g_discovery.c **** void AUDIO_IO_Write(uint8_t Addr, uint16_t Reg, uint16_t Value)
 700:Drivers/BSP/STM32746G-Discovery/stm32746g_discovery.c **** {
 1440              		.loc 1 700 1 view -0
 1441              		.cfi_startproc
 1442              		@ args = 0, pretend = 0, frame = 8
 1443              		@ frame_needed = 0, uses_anonymous_args = 0
 1444              		.loc 1 700 1 is_stmt 0 view .LVU347
 1445 0000 00B5     		push	{lr}
 1446              	.LCFI33:
 1447              		.cfi_def_cfa_offset 4
 1448              		.cfi_offset 14, -4
 1449 0002 85B0     		sub	sp, sp, #20
 1450              	.LCFI34:
 1451              		.cfi_def_cfa_offset 24
 701:Drivers/BSP/STM32746G-Discovery/stm32746g_discovery.c ****   uint16_t tmp = Value;
 1452              		.loc 1 701 3 is_stmt 1 view .LVU348
 1453              	.LVL92:
 702:Drivers/BSP/STM32746G-Discovery/stm32746g_discovery.c ****   
 703:Drivers/BSP/STM32746G-Discovery/stm32746g_discovery.c ****   Value = ((uint16_t)(tmp >> 8) & 0x00FF);
 1454              		.loc 1 703 3 view .LVU349
 704:Drivers/BSP/STM32746G-Discovery/stm32746g_discovery.c ****   
 705:Drivers/BSP/STM32746G-Discovery/stm32746g_discovery.c ****   Value |= ((uint16_t)(tmp << 8)& 0xFF00);
 1455              		.loc 1 705 3 view .LVU350
 1456              		.loc 1 705 13 is_stmt 0 view .LVU351
 1457 0004 1302     		lsls	r3, r2, #8
 1458 0006 1BB2     		sxth	r3, r3
ARM GAS  /var/folders/yz/w8msd8211qzc60m57tpkzbn80000gn/T//ccRVvTE8.s 			page 43


 1459              		.loc 1 705 9 view .LVU352
 1460 0008 43EA1222 		orr	r2, r3, r2, lsr #8
 1461              	.LVL93:
 1462              		.loc 1 705 9 view .LVU353
 1463 000c ADF80E20 		strh	r2, [sp, #14]	@ movhi
 706:Drivers/BSP/STM32746G-Discovery/stm32746g_discovery.c ****   
 707:Drivers/BSP/STM32746G-Discovery/stm32746g_discovery.c ****   I2Cx_WriteMultiple(&hI2cAudioHandler, Addr, Reg, I2C_MEMADD_SIZE_16BIT,(uint8_t*)&Value, 2);
 1464              		.loc 1 707 3 is_stmt 1 view .LVU354
 1465 0010 0223     		movs	r3, #2
 1466 0012 0193     		str	r3, [sp, #4]
 1467 0014 0DF10E02 		add	r2, sp, #14
 1468 0018 0092     		str	r2, [sp]
 1469 001a 0A46     		mov	r2, r1
 1470 001c 0146     		mov	r1, r0
 1471              	.LVL94:
 1472              		.loc 1 707 3 is_stmt 0 view .LVU355
 1473 001e 0348     		ldr	r0, .L115
 1474              	.LVL95:
 1475              		.loc 1 707 3 view .LVU356
 1476 0020 FFF7FEFF 		bl	I2Cx_WriteMultiple
 1477              	.LVL96:
 708:Drivers/BSP/STM32746G-Discovery/stm32746g_discovery.c **** }
 1478              		.loc 1 708 1 view .LVU357
 1479 0024 05B0     		add	sp, sp, #20
 1480              	.LCFI35:
 1481              		.cfi_def_cfa_offset 4
 1482              		@ sp needed
 1483 0026 5DF804FB 		ldr	pc, [sp], #4
 1484              	.L116:
 1485 002a 00BF     		.align	2
 1486              	.L115:
 1487 002c 00000000 		.word	.LANCHOR0
 1488              		.cfi_endproc
 1489              	.LFE160:
 1491              		.section	.text.AUDIO_IO_Read,"ax",%progbits
 1492              		.align	1
 1493              		.global	AUDIO_IO_Read
 1494              		.syntax unified
 1495              		.thumb
 1496              		.thumb_func
 1497              		.fpu fpv5-sp-d16
 1499              	AUDIO_IO_Read:
 1500              	.LVL97:
 1501              	.LFB161:
 709:Drivers/BSP/STM32746G-Discovery/stm32746g_discovery.c **** 
 710:Drivers/BSP/STM32746G-Discovery/stm32746g_discovery.c **** /**
 711:Drivers/BSP/STM32746G-Discovery/stm32746g_discovery.c ****   * @brief  Reads a single data.
 712:Drivers/BSP/STM32746G-Discovery/stm32746g_discovery.c ****   * @param  Addr: I2C address
 713:Drivers/BSP/STM32746G-Discovery/stm32746g_discovery.c ****   * @param  Reg: Reg address 
 714:Drivers/BSP/STM32746G-Discovery/stm32746g_discovery.c ****   * @retval Data to be read
 715:Drivers/BSP/STM32746G-Discovery/stm32746g_discovery.c ****   */
 716:Drivers/BSP/STM32746G-Discovery/stm32746g_discovery.c **** uint16_t AUDIO_IO_Read(uint8_t Addr, uint16_t Reg)
 717:Drivers/BSP/STM32746G-Discovery/stm32746g_discovery.c **** {
 1502              		.loc 1 717 1 is_stmt 1 view -0
 1503              		.cfi_startproc
 1504              		@ args = 0, pretend = 0, frame = 8
 1505              		@ frame_needed = 0, uses_anonymous_args = 0
ARM GAS  /var/folders/yz/w8msd8211qzc60m57tpkzbn80000gn/T//ccRVvTE8.s 			page 44


 1506              		.loc 1 717 1 is_stmt 0 view .LVU359
 1507 0000 00B5     		push	{lr}
 1508              	.LCFI36:
 1509              		.cfi_def_cfa_offset 4
 1510              		.cfi_offset 14, -4
 1511 0002 85B0     		sub	sp, sp, #20
 1512              	.LCFI37:
 1513              		.cfi_def_cfa_offset 24
 1514 0004 0A46     		mov	r2, r1
 718:Drivers/BSP/STM32746G-Discovery/stm32746g_discovery.c ****   uint16_t read_value = 0, tmp = 0;
 1515              		.loc 1 718 3 is_stmt 1 view .LVU360
 1516              		.loc 1 718 12 is_stmt 0 view .LVU361
 1517 0006 0023     		movs	r3, #0
 1518 0008 ADF80E30 		strh	r3, [sp, #14]	@ movhi
 1519              	.LVL98:
 719:Drivers/BSP/STM32746G-Discovery/stm32746g_discovery.c ****   
 720:Drivers/BSP/STM32746G-Discovery/stm32746g_discovery.c ****   I2Cx_ReadMultiple(&hI2cAudioHandler, Addr, Reg, I2C_MEMADD_SIZE_16BIT, (uint8_t*)&read_value, 2);
 1520              		.loc 1 720 3 is_stmt 1 view .LVU362
 1521 000c 0223     		movs	r3, #2
 1522 000e 0193     		str	r3, [sp, #4]
 1523 0010 0DF10E01 		add	r1, sp, #14
 1524              	.LVL99:
 1525              		.loc 1 720 3 is_stmt 0 view .LVU363
 1526 0014 0091     		str	r1, [sp]
 1527 0016 0146     		mov	r1, r0
 1528 0018 0648     		ldr	r0, .L119
 1529              	.LVL100:
 1530              		.loc 1 720 3 view .LVU364
 1531 001a FFF7FEFF 		bl	I2Cx_ReadMultiple
 1532              	.LVL101:
 721:Drivers/BSP/STM32746G-Discovery/stm32746g_discovery.c ****   
 722:Drivers/BSP/STM32746G-Discovery/stm32746g_discovery.c ****   tmp = ((uint16_t)(read_value >> 8) & 0x00FF);
 1533              		.loc 1 722 3 is_stmt 1 view .LVU365
 1534              		.loc 1 722 10 is_stmt 0 view .LVU366
 1535 001e BDF80E30 		ldrh	r3, [sp, #14]
 1536              	.LVL102:
 723:Drivers/BSP/STM32746G-Discovery/stm32746g_discovery.c ****   
 724:Drivers/BSP/STM32746G-Discovery/stm32746g_discovery.c ****   tmp |= ((uint16_t)(read_value << 8)& 0xFF00);
 1537              		.loc 1 724 3 is_stmt 1 view .LVU367
 1538              		.loc 1 724 11 is_stmt 0 view .LVU368
 1539 0022 1802     		lsls	r0, r3, #8
 1540 0024 00B2     		sxth	r0, r0
 1541              		.loc 1 724 7 view .LVU369
 1542 0026 40EA1320 		orr	r0, r0, r3, lsr #8
 1543              	.LVL103:
 725:Drivers/BSP/STM32746G-Discovery/stm32746g_discovery.c ****   
 726:Drivers/BSP/STM32746G-Discovery/stm32746g_discovery.c ****   read_value = tmp;
 1544              		.loc 1 726 3 is_stmt 1 view .LVU370
 727:Drivers/BSP/STM32746G-Discovery/stm32746g_discovery.c ****   
 728:Drivers/BSP/STM32746G-Discovery/stm32746g_discovery.c ****   return read_value;
 1545              		.loc 1 728 3 view .LVU371
 729:Drivers/BSP/STM32746G-Discovery/stm32746g_discovery.c **** }
 1546              		.loc 1 729 1 is_stmt 0 view .LVU372
 1547 002a 80B2     		uxth	r0, r0
 1548              		.loc 1 729 1 view .LVU373
 1549 002c 05B0     		add	sp, sp, #20
 1550              	.LCFI38:
ARM GAS  /var/folders/yz/w8msd8211qzc60m57tpkzbn80000gn/T//ccRVvTE8.s 			page 45


 1551              		.cfi_def_cfa_offset 4
 1552              		@ sp needed
 1553 002e 5DF804FB 		ldr	pc, [sp], #4
 1554              	.L120:
 1555 0032 00BF     		.align	2
 1556              	.L119:
 1557 0034 00000000 		.word	.LANCHOR0
 1558              		.cfi_endproc
 1559              	.LFE161:
 1561              		.section	.text.AUDIO_IO_Delay,"ax",%progbits
 1562              		.align	1
 1563              		.global	AUDIO_IO_Delay
 1564              		.syntax unified
 1565              		.thumb
 1566              		.thumb_func
 1567              		.fpu fpv5-sp-d16
 1569              	AUDIO_IO_Delay:
 1570              	.LVL104:
 1571              	.LFB162:
 730:Drivers/BSP/STM32746G-Discovery/stm32746g_discovery.c **** 
 731:Drivers/BSP/STM32746G-Discovery/stm32746g_discovery.c **** /**
 732:Drivers/BSP/STM32746G-Discovery/stm32746g_discovery.c ****   * @brief  AUDIO Codec delay 
 733:Drivers/BSP/STM32746G-Discovery/stm32746g_discovery.c ****   * @param  Delay: Delay in ms
 734:Drivers/BSP/STM32746G-Discovery/stm32746g_discovery.c ****   * @retval None
 735:Drivers/BSP/STM32746G-Discovery/stm32746g_discovery.c ****   */
 736:Drivers/BSP/STM32746G-Discovery/stm32746g_discovery.c **** void AUDIO_IO_Delay(uint32_t Delay)
 737:Drivers/BSP/STM32746G-Discovery/stm32746g_discovery.c **** {
 1572              		.loc 1 737 1 is_stmt 1 view -0
 1573              		.cfi_startproc
 1574              		@ args = 0, pretend = 0, frame = 0
 1575              		@ frame_needed = 0, uses_anonymous_args = 0
 1576              		.loc 1 737 1 is_stmt 0 view .LVU375
 1577 0000 08B5     		push	{r3, lr}
 1578              	.LCFI39:
 1579              		.cfi_def_cfa_offset 8
 1580              		.cfi_offset 3, -8
 1581              		.cfi_offset 14, -4
 738:Drivers/BSP/STM32746G-Discovery/stm32746g_discovery.c ****   HAL_Delay(Delay);
 1582              		.loc 1 738 3 is_stmt 1 view .LVU376
 1583 0002 FFF7FEFF 		bl	HAL_Delay
 1584              	.LVL105:
 739:Drivers/BSP/STM32746G-Discovery/stm32746g_discovery.c **** }
 1585              		.loc 1 739 1 is_stmt 0 view .LVU377
 1586 0006 08BD     		pop	{r3, pc}
 1587              		.cfi_endproc
 1588              	.LFE162:
 1590              		.section	.text.CAMERA_IO_Init,"ax",%progbits
 1591              		.align	1
 1592              		.global	CAMERA_IO_Init
 1593              		.syntax unified
 1594              		.thumb
 1595              		.thumb_func
 1596              		.fpu fpv5-sp-d16
 1598              	CAMERA_IO_Init:
 1599              	.LFB163:
 740:Drivers/BSP/STM32746G-Discovery/stm32746g_discovery.c **** 
 741:Drivers/BSP/STM32746G-Discovery/stm32746g_discovery.c **** /********************************* LINK CAMERA ********************************/
ARM GAS  /var/folders/yz/w8msd8211qzc60m57tpkzbn80000gn/T//ccRVvTE8.s 			page 46


 742:Drivers/BSP/STM32746G-Discovery/stm32746g_discovery.c **** 
 743:Drivers/BSP/STM32746G-Discovery/stm32746g_discovery.c **** /**
 744:Drivers/BSP/STM32746G-Discovery/stm32746g_discovery.c ****   * @brief  Initializes Camera low level.
 745:Drivers/BSP/STM32746G-Discovery/stm32746g_discovery.c ****   * @retval None
 746:Drivers/BSP/STM32746G-Discovery/stm32746g_discovery.c ****   */
 747:Drivers/BSP/STM32746G-Discovery/stm32746g_discovery.c **** void CAMERA_IO_Init(void) 
 748:Drivers/BSP/STM32746G-Discovery/stm32746g_discovery.c **** {
 1600              		.loc 1 748 1 is_stmt 1 view -0
 1601              		.cfi_startproc
 1602              		@ args = 0, pretend = 0, frame = 0
 1603              		@ frame_needed = 0, uses_anonymous_args = 0
 1604 0000 08B5     		push	{r3, lr}
 1605              	.LCFI40:
 1606              		.cfi_def_cfa_offset 8
 1607              		.cfi_offset 3, -8
 1608              		.cfi_offset 14, -4
 749:Drivers/BSP/STM32746G-Discovery/stm32746g_discovery.c ****   I2Cx_Init(&hI2cExtHandler);
 1609              		.loc 1 749 3 view .LVU379
 1610 0002 0248     		ldr	r0, .L125
 1611 0004 FFF7FEFF 		bl	I2Cx_Init
 1612              	.LVL106:
 750:Drivers/BSP/STM32746G-Discovery/stm32746g_discovery.c **** }
 1613              		.loc 1 750 1 is_stmt 0 view .LVU380
 1614 0008 08BD     		pop	{r3, pc}
 1615              	.L126:
 1616 000a 00BF     		.align	2
 1617              	.L125:
 1618 000c 00000000 		.word	.LANCHOR7
 1619              		.cfi_endproc
 1620              	.LFE163:
 1622              		.section	.text.CAMERA_IO_Write,"ax",%progbits
 1623              		.align	1
 1624              		.global	CAMERA_IO_Write
 1625              		.syntax unified
 1626              		.thumb
 1627              		.thumb_func
 1628              		.fpu fpv5-sp-d16
 1630              	CAMERA_IO_Write:
 1631              	.LVL107:
 1632              	.LFB164:
 751:Drivers/BSP/STM32746G-Discovery/stm32746g_discovery.c **** 
 752:Drivers/BSP/STM32746G-Discovery/stm32746g_discovery.c **** /**
 753:Drivers/BSP/STM32746G-Discovery/stm32746g_discovery.c ****   * @brief  Camera writes single data.
 754:Drivers/BSP/STM32746G-Discovery/stm32746g_discovery.c ****   * @param  Addr: I2C address
 755:Drivers/BSP/STM32746G-Discovery/stm32746g_discovery.c ****   * @param  Reg: Register address 
 756:Drivers/BSP/STM32746G-Discovery/stm32746g_discovery.c ****   * @param  Value: Data to be written
 757:Drivers/BSP/STM32746G-Discovery/stm32746g_discovery.c ****   * @retval None
 758:Drivers/BSP/STM32746G-Discovery/stm32746g_discovery.c ****   */
 759:Drivers/BSP/STM32746G-Discovery/stm32746g_discovery.c **** void CAMERA_IO_Write(uint8_t Addr, uint8_t Reg, uint8_t Value)
 760:Drivers/BSP/STM32746G-Discovery/stm32746g_discovery.c **** {
 1633              		.loc 1 760 1 is_stmt 1 view -0
 1634              		.cfi_startproc
 1635              		@ args = 0, pretend = 0, frame = 8
 1636              		@ frame_needed = 0, uses_anonymous_args = 0
 1637              		.loc 1 760 1 is_stmt 0 view .LVU382
 1638 0000 00B5     		push	{lr}
 1639              	.LCFI41:
ARM GAS  /var/folders/yz/w8msd8211qzc60m57tpkzbn80000gn/T//ccRVvTE8.s 			page 47


 1640              		.cfi_def_cfa_offset 4
 1641              		.cfi_offset 14, -4
 1642 0002 85B0     		sub	sp, sp, #20
 1643              	.LCFI42:
 1644              		.cfi_def_cfa_offset 24
 1645 0004 8DF80F20 		strb	r2, [sp, #15]
 761:Drivers/BSP/STM32746G-Discovery/stm32746g_discovery.c ****   I2Cx_WriteMultiple(&hI2cExtHandler, Addr, (uint16_t)Reg, I2C_MEMADD_SIZE_8BIT,(uint8_t*)&Value, 1
 1646              		.loc 1 761 3 is_stmt 1 view .LVU383
 1647 0008 0123     		movs	r3, #1
 1648 000a 0193     		str	r3, [sp, #4]
 1649 000c 0DF10F02 		add	r2, sp, #15
 1650              	.LVL108:
 1651              		.loc 1 761 3 is_stmt 0 view .LVU384
 1652 0010 0092     		str	r2, [sp]
 1653 0012 0A46     		mov	r2, r1
 1654              	.LVL109:
 1655              		.loc 1 761 3 view .LVU385
 1656 0014 0146     		mov	r1, r0
 1657              	.LVL110:
 1658              		.loc 1 761 3 view .LVU386
 1659 0016 0348     		ldr	r0, .L129
 1660              	.LVL111:
 1661              		.loc 1 761 3 view .LVU387
 1662 0018 FFF7FEFF 		bl	I2Cx_WriteMultiple
 1663              	.LVL112:
 762:Drivers/BSP/STM32746G-Discovery/stm32746g_discovery.c **** }
 1664              		.loc 1 762 1 view .LVU388
 1665 001c 05B0     		add	sp, sp, #20
 1666              	.LCFI43:
 1667              		.cfi_def_cfa_offset 4
 1668              		@ sp needed
 1669 001e 5DF804FB 		ldr	pc, [sp], #4
 1670              	.L130:
 1671 0022 00BF     		.align	2
 1672              	.L129:
 1673 0024 00000000 		.word	.LANCHOR7
 1674              		.cfi_endproc
 1675              	.LFE164:
 1677              		.section	.text.CAMERA_IO_Read,"ax",%progbits
 1678              		.align	1
 1679              		.global	CAMERA_IO_Read
 1680              		.syntax unified
 1681              		.thumb
 1682              		.thumb_func
 1683              		.fpu fpv5-sp-d16
 1685              	CAMERA_IO_Read:
 1686              	.LVL113:
 1687              	.LFB165:
 763:Drivers/BSP/STM32746G-Discovery/stm32746g_discovery.c **** 
 764:Drivers/BSP/STM32746G-Discovery/stm32746g_discovery.c **** /**
 765:Drivers/BSP/STM32746G-Discovery/stm32746g_discovery.c ****   * @brief  Camera reads single data.
 766:Drivers/BSP/STM32746G-Discovery/stm32746g_discovery.c ****   * @param  Addr: I2C address
 767:Drivers/BSP/STM32746G-Discovery/stm32746g_discovery.c ****   * @param  Reg: Register address 
 768:Drivers/BSP/STM32746G-Discovery/stm32746g_discovery.c ****   * @retval Read data
 769:Drivers/BSP/STM32746G-Discovery/stm32746g_discovery.c ****   */
 770:Drivers/BSP/STM32746G-Discovery/stm32746g_discovery.c **** uint8_t CAMERA_IO_Read(uint8_t Addr, uint8_t Reg)
 771:Drivers/BSP/STM32746G-Discovery/stm32746g_discovery.c **** {
ARM GAS  /var/folders/yz/w8msd8211qzc60m57tpkzbn80000gn/T//ccRVvTE8.s 			page 48


 1688              		.loc 1 771 1 is_stmt 1 view -0
 1689              		.cfi_startproc
 1690              		@ args = 0, pretend = 0, frame = 8
 1691              		@ frame_needed = 0, uses_anonymous_args = 0
 1692              		.loc 1 771 1 is_stmt 0 view .LVU390
 1693 0000 00B5     		push	{lr}
 1694              	.LCFI44:
 1695              		.cfi_def_cfa_offset 4
 1696              		.cfi_offset 14, -4
 1697 0002 85B0     		sub	sp, sp, #20
 1698              	.LCFI45:
 1699              		.cfi_def_cfa_offset 24
 1700 0004 0A46     		mov	r2, r1
 772:Drivers/BSP/STM32746G-Discovery/stm32746g_discovery.c ****   uint8_t read_value = 0;
 1701              		.loc 1 772 3 is_stmt 1 view .LVU391
 1702              		.loc 1 772 11 is_stmt 0 view .LVU392
 1703 0006 0023     		movs	r3, #0
 1704 0008 8DF80F30 		strb	r3, [sp, #15]
 773:Drivers/BSP/STM32746G-Discovery/stm32746g_discovery.c **** 
 774:Drivers/BSP/STM32746G-Discovery/stm32746g_discovery.c ****   I2Cx_ReadMultiple(&hI2cExtHandler, Addr, Reg, I2C_MEMADD_SIZE_8BIT, (uint8_t*)&read_value, 1);
 1705              		.loc 1 774 3 is_stmt 1 view .LVU393
 1706 000c 0123     		movs	r3, #1
 1707 000e 0193     		str	r3, [sp, #4]
 1708 0010 0DF10F01 		add	r1, sp, #15
 1709              	.LVL114:
 1710              		.loc 1 774 3 is_stmt 0 view .LVU394
 1711 0014 0091     		str	r1, [sp]
 1712 0016 0146     		mov	r1, r0
 1713 0018 0348     		ldr	r0, .L133
 1714              	.LVL115:
 1715              		.loc 1 774 3 view .LVU395
 1716 001a FFF7FEFF 		bl	I2Cx_ReadMultiple
 1717              	.LVL116:
 775:Drivers/BSP/STM32746G-Discovery/stm32746g_discovery.c **** 
 776:Drivers/BSP/STM32746G-Discovery/stm32746g_discovery.c ****   return read_value;
 1718              		.loc 1 776 3 is_stmt 1 view .LVU396
 777:Drivers/BSP/STM32746G-Discovery/stm32746g_discovery.c **** }
 1719              		.loc 1 777 1 is_stmt 0 view .LVU397
 1720 001e 9DF80F00 		ldrb	r0, [sp, #15]	@ zero_extendqisi2
 1721 0022 05B0     		add	sp, sp, #20
 1722              	.LCFI46:
 1723              		.cfi_def_cfa_offset 4
 1724              		@ sp needed
 1725 0024 5DF804FB 		ldr	pc, [sp], #4
 1726              	.L134:
 1727              		.align	2
 1728              	.L133:
 1729 0028 00000000 		.word	.LANCHOR7
 1730              		.cfi_endproc
 1731              	.LFE165:
 1733              		.section	.text.CAMERA_Delay,"ax",%progbits
 1734              		.align	1
 1735              		.global	CAMERA_Delay
 1736              		.syntax unified
 1737              		.thumb
 1738              		.thumb_func
 1739              		.fpu fpv5-sp-d16
ARM GAS  /var/folders/yz/w8msd8211qzc60m57tpkzbn80000gn/T//ccRVvTE8.s 			page 49


 1741              	CAMERA_Delay:
 1742              	.LVL117:
 1743              	.LFB166:
 778:Drivers/BSP/STM32746G-Discovery/stm32746g_discovery.c **** 
 779:Drivers/BSP/STM32746G-Discovery/stm32746g_discovery.c **** /**
 780:Drivers/BSP/STM32746G-Discovery/stm32746g_discovery.c ****   * @brief  Camera delay 
 781:Drivers/BSP/STM32746G-Discovery/stm32746g_discovery.c ****   * @param  Delay: Delay in ms
 782:Drivers/BSP/STM32746G-Discovery/stm32746g_discovery.c ****   * @retval None
 783:Drivers/BSP/STM32746G-Discovery/stm32746g_discovery.c ****   */
 784:Drivers/BSP/STM32746G-Discovery/stm32746g_discovery.c **** void CAMERA_Delay(uint32_t Delay)
 785:Drivers/BSP/STM32746G-Discovery/stm32746g_discovery.c **** {
 1744              		.loc 1 785 1 is_stmt 1 view -0
 1745              		.cfi_startproc
 1746              		@ args = 0, pretend = 0, frame = 0
 1747              		@ frame_needed = 0, uses_anonymous_args = 0
 1748              		.loc 1 785 1 is_stmt 0 view .LVU399
 1749 0000 08B5     		push	{r3, lr}
 1750              	.LCFI47:
 1751              		.cfi_def_cfa_offset 8
 1752              		.cfi_offset 3, -8
 1753              		.cfi_offset 14, -4
 786:Drivers/BSP/STM32746G-Discovery/stm32746g_discovery.c ****   HAL_Delay(Delay);
 1754              		.loc 1 786 3 is_stmt 1 view .LVU400
 1755 0002 FFF7FEFF 		bl	HAL_Delay
 1756              	.LVL118:
 787:Drivers/BSP/STM32746G-Discovery/stm32746g_discovery.c **** }
 1757              		.loc 1 787 1 is_stmt 0 view .LVU401
 1758 0006 08BD     		pop	{r3, pc}
 1759              		.cfi_endproc
 1760              	.LFE166:
 1762              		.section	.text.EEPROM_IO_Init,"ax",%progbits
 1763              		.align	1
 1764              		.global	EEPROM_IO_Init
 1765              		.syntax unified
 1766              		.thumb
 1767              		.thumb_func
 1768              		.fpu fpv5-sp-d16
 1770              	EEPROM_IO_Init:
 1771              	.LFB167:
 788:Drivers/BSP/STM32746G-Discovery/stm32746g_discovery.c **** 
 789:Drivers/BSP/STM32746G-Discovery/stm32746g_discovery.c **** /******************************** LINK I2C EEPROM *****************************/
 790:Drivers/BSP/STM32746G-Discovery/stm32746g_discovery.c **** 
 791:Drivers/BSP/STM32746G-Discovery/stm32746g_discovery.c **** /**
 792:Drivers/BSP/STM32746G-Discovery/stm32746g_discovery.c ****   * @brief  Initializes peripherals used by the I2C EEPROM driver.
 793:Drivers/BSP/STM32746G-Discovery/stm32746g_discovery.c ****   * @retval None
 794:Drivers/BSP/STM32746G-Discovery/stm32746g_discovery.c ****   */
 795:Drivers/BSP/STM32746G-Discovery/stm32746g_discovery.c **** void EEPROM_IO_Init(void)
 796:Drivers/BSP/STM32746G-Discovery/stm32746g_discovery.c **** {
 1772              		.loc 1 796 1 is_stmt 1 view -0
 1773              		.cfi_startproc
 1774              		@ args = 0, pretend = 0, frame = 0
 1775              		@ frame_needed = 0, uses_anonymous_args = 0
 1776 0000 08B5     		push	{r3, lr}
 1777              	.LCFI48:
 1778              		.cfi_def_cfa_offset 8
 1779              		.cfi_offset 3, -8
 1780              		.cfi_offset 14, -4
ARM GAS  /var/folders/yz/w8msd8211qzc60m57tpkzbn80000gn/T//ccRVvTE8.s 			page 50


 797:Drivers/BSP/STM32746G-Discovery/stm32746g_discovery.c ****   I2Cx_Init(&hI2cExtHandler);
 1781              		.loc 1 797 3 view .LVU403
 1782 0002 0248     		ldr	r0, .L139
 1783 0004 FFF7FEFF 		bl	I2Cx_Init
 1784              	.LVL119:
 798:Drivers/BSP/STM32746G-Discovery/stm32746g_discovery.c **** }
 1785              		.loc 1 798 1 is_stmt 0 view .LVU404
 1786 0008 08BD     		pop	{r3, pc}
 1787              	.L140:
 1788 000a 00BF     		.align	2
 1789              	.L139:
 1790 000c 00000000 		.word	.LANCHOR7
 1791              		.cfi_endproc
 1792              	.LFE167:
 1794              		.section	.text.EEPROM_IO_WriteData,"ax",%progbits
 1795              		.align	1
 1796              		.global	EEPROM_IO_WriteData
 1797              		.syntax unified
 1798              		.thumb
 1799              		.thumb_func
 1800              		.fpu fpv5-sp-d16
 1802              	EEPROM_IO_WriteData:
 1803              	.LVL120:
 1804              	.LFB168:
 799:Drivers/BSP/STM32746G-Discovery/stm32746g_discovery.c **** 
 800:Drivers/BSP/STM32746G-Discovery/stm32746g_discovery.c **** /**
 801:Drivers/BSP/STM32746G-Discovery/stm32746g_discovery.c ****   * @brief  Write data to I2C EEPROM driver in using DMA channel.
 802:Drivers/BSP/STM32746G-Discovery/stm32746g_discovery.c ****   * @param  DevAddress: Target device address
 803:Drivers/BSP/STM32746G-Discovery/stm32746g_discovery.c ****   * @param  MemAddress: Internal memory address
 804:Drivers/BSP/STM32746G-Discovery/stm32746g_discovery.c ****   * @param  pBuffer: Pointer to data buffer
 805:Drivers/BSP/STM32746G-Discovery/stm32746g_discovery.c ****   * @param  BufferSize: Amount of data to be sent
 806:Drivers/BSP/STM32746G-Discovery/stm32746g_discovery.c ****   * @retval HAL status
 807:Drivers/BSP/STM32746G-Discovery/stm32746g_discovery.c ****   */
 808:Drivers/BSP/STM32746G-Discovery/stm32746g_discovery.c **** HAL_StatusTypeDef EEPROM_IO_WriteData(uint16_t DevAddress, uint16_t MemAddress, uint8_t* pBuffer, u
 809:Drivers/BSP/STM32746G-Discovery/stm32746g_discovery.c **** {
 1805              		.loc 1 809 1 is_stmt 1 view -0
 1806              		.cfi_startproc
 1807              		@ args = 0, pretend = 0, frame = 0
 1808              		@ frame_needed = 0, uses_anonymous_args = 0
 1809              		.loc 1 809 1 is_stmt 0 view .LVU406
 1810 0000 00B5     		push	{lr}
 1811              	.LCFI49:
 1812              		.cfi_def_cfa_offset 4
 1813              		.cfi_offset 14, -4
 1814 0002 83B0     		sub	sp, sp, #12
 1815              	.LCFI50:
 1816              		.cfi_def_cfa_offset 16
 810:Drivers/BSP/STM32746G-Discovery/stm32746g_discovery.c ****   return (I2Cx_WriteMultiple(&hI2cExtHandler, DevAddress, MemAddress, I2C_MEMADD_SIZE_16BIT, pBuffe
 1817              		.loc 1 810 3 is_stmt 1 view .LVU407
 1818              		.loc 1 810 11 is_stmt 0 view .LVU408
 1819 0004 9BB2     		uxth	r3, r3
 1820              	.LVL121:
 1821              		.loc 1 810 11 view .LVU409
 1822 0006 0193     		str	r3, [sp, #4]
 1823 0008 0092     		str	r2, [sp]
 1824 000a 0223     		movs	r3, #2
 1825 000c 0A46     		mov	r2, r1
ARM GAS  /var/folders/yz/w8msd8211qzc60m57tpkzbn80000gn/T//ccRVvTE8.s 			page 51


 1826              	.LVL122:
 1827              		.loc 1 810 11 view .LVU410
 1828 000e C1B2     		uxtb	r1, r0
 1829              	.LVL123:
 1830              		.loc 1 810 11 view .LVU411
 1831 0010 0248     		ldr	r0, .L143
 1832              	.LVL124:
 1833              		.loc 1 810 11 view .LVU412
 1834 0012 FFF7FEFF 		bl	I2Cx_WriteMultiple
 1835              	.LVL125:
 811:Drivers/BSP/STM32746G-Discovery/stm32746g_discovery.c **** }
 1836              		.loc 1 811 1 view .LVU413
 1837 0016 03B0     		add	sp, sp, #12
 1838              	.LCFI51:
 1839              		.cfi_def_cfa_offset 4
 1840              		@ sp needed
 1841 0018 5DF804FB 		ldr	pc, [sp], #4
 1842              	.L144:
 1843              		.align	2
 1844              	.L143:
 1845 001c 00000000 		.word	.LANCHOR7
 1846              		.cfi_endproc
 1847              	.LFE168:
 1849              		.section	.text.EEPROM_IO_ReadData,"ax",%progbits
 1850              		.align	1
 1851              		.global	EEPROM_IO_ReadData
 1852              		.syntax unified
 1853              		.thumb
 1854              		.thumb_func
 1855              		.fpu fpv5-sp-d16
 1857              	EEPROM_IO_ReadData:
 1858              	.LVL126:
 1859              	.LFB169:
 812:Drivers/BSP/STM32746G-Discovery/stm32746g_discovery.c **** 
 813:Drivers/BSP/STM32746G-Discovery/stm32746g_discovery.c **** /**
 814:Drivers/BSP/STM32746G-Discovery/stm32746g_discovery.c ****   * @brief  Read data from I2C EEPROM driver in using DMA channel.
 815:Drivers/BSP/STM32746G-Discovery/stm32746g_discovery.c ****   * @param  DevAddress: Target device address
 816:Drivers/BSP/STM32746G-Discovery/stm32746g_discovery.c ****   * @param  MemAddress: Internal memory address
 817:Drivers/BSP/STM32746G-Discovery/stm32746g_discovery.c ****   * @param  pBuffer: Pointer to data buffer
 818:Drivers/BSP/STM32746G-Discovery/stm32746g_discovery.c ****   * @param  BufferSize: Amount of data to be read
 819:Drivers/BSP/STM32746G-Discovery/stm32746g_discovery.c ****   * @retval HAL status
 820:Drivers/BSP/STM32746G-Discovery/stm32746g_discovery.c ****   */
 821:Drivers/BSP/STM32746G-Discovery/stm32746g_discovery.c **** HAL_StatusTypeDef EEPROM_IO_ReadData(uint16_t DevAddress, uint16_t MemAddress, uint8_t* pBuffer, ui
 822:Drivers/BSP/STM32746G-Discovery/stm32746g_discovery.c **** {
 1860              		.loc 1 822 1 is_stmt 1 view -0
 1861              		.cfi_startproc
 1862              		@ args = 0, pretend = 0, frame = 0
 1863              		@ frame_needed = 0, uses_anonymous_args = 0
 1864              		.loc 1 822 1 is_stmt 0 view .LVU415
 1865 0000 00B5     		push	{lr}
 1866              	.LCFI52:
 1867              		.cfi_def_cfa_offset 4
 1868              		.cfi_offset 14, -4
 1869 0002 83B0     		sub	sp, sp, #12
 1870              	.LCFI53:
 1871              		.cfi_def_cfa_offset 16
 823:Drivers/BSP/STM32746G-Discovery/stm32746g_discovery.c ****   return (I2Cx_ReadMultiple(&hI2cExtHandler, DevAddress, MemAddress, I2C_MEMADD_SIZE_16BIT, pBuffer
ARM GAS  /var/folders/yz/w8msd8211qzc60m57tpkzbn80000gn/T//ccRVvTE8.s 			page 52


 1872              		.loc 1 823 3 is_stmt 1 view .LVU416
 1873              		.loc 1 823 11 is_stmt 0 view .LVU417
 1874 0004 9BB2     		uxth	r3, r3
 1875              	.LVL127:
 1876              		.loc 1 823 11 view .LVU418
 1877 0006 0193     		str	r3, [sp, #4]
 1878 0008 0092     		str	r2, [sp]
 1879 000a 0223     		movs	r3, #2
 1880 000c 0A46     		mov	r2, r1
 1881              	.LVL128:
 1882              		.loc 1 823 11 view .LVU419
 1883 000e C1B2     		uxtb	r1, r0
 1884              	.LVL129:
 1885              		.loc 1 823 11 view .LVU420
 1886 0010 0248     		ldr	r0, .L147
 1887              	.LVL130:
 1888              		.loc 1 823 11 view .LVU421
 1889 0012 FFF7FEFF 		bl	I2Cx_ReadMultiple
 1890              	.LVL131:
 824:Drivers/BSP/STM32746G-Discovery/stm32746g_discovery.c **** }
 1891              		.loc 1 824 1 view .LVU422
 1892 0016 03B0     		add	sp, sp, #12
 1893              	.LCFI54:
 1894              		.cfi_def_cfa_offset 4
 1895              		@ sp needed
 1896 0018 5DF804FB 		ldr	pc, [sp], #4
 1897              	.L148:
 1898              		.align	2
 1899              	.L147:
 1900 001c 00000000 		.word	.LANCHOR7
 1901              		.cfi_endproc
 1902              	.LFE169:
 1904              		.section	.text.EEPROM_IO_IsDeviceReady,"ax",%progbits
 1905              		.align	1
 1906              		.global	EEPROM_IO_IsDeviceReady
 1907              		.syntax unified
 1908              		.thumb
 1909              		.thumb_func
 1910              		.fpu fpv5-sp-d16
 1912              	EEPROM_IO_IsDeviceReady:
 1913              	.LVL132:
 1914              	.LFB170:
 825:Drivers/BSP/STM32746G-Discovery/stm32746g_discovery.c **** 
 826:Drivers/BSP/STM32746G-Discovery/stm32746g_discovery.c **** /**
 827:Drivers/BSP/STM32746G-Discovery/stm32746g_discovery.c ****   * @brief  Checks if target device is ready for communication. 
 828:Drivers/BSP/STM32746G-Discovery/stm32746g_discovery.c ****   * @note   This function is used with Memory devices
 829:Drivers/BSP/STM32746G-Discovery/stm32746g_discovery.c ****   * @param  DevAddress: Target device address
 830:Drivers/BSP/STM32746G-Discovery/stm32746g_discovery.c ****   * @param  Trials: Number of trials
 831:Drivers/BSP/STM32746G-Discovery/stm32746g_discovery.c ****   * @retval HAL status
 832:Drivers/BSP/STM32746G-Discovery/stm32746g_discovery.c ****   */
 833:Drivers/BSP/STM32746G-Discovery/stm32746g_discovery.c **** HAL_StatusTypeDef EEPROM_IO_IsDeviceReady(uint16_t DevAddress, uint32_t Trials)
 834:Drivers/BSP/STM32746G-Discovery/stm32746g_discovery.c **** { 
 1915              		.loc 1 834 1 is_stmt 1 view -0
 1916              		.cfi_startproc
 1917              		@ args = 0, pretend = 0, frame = 0
 1918              		@ frame_needed = 0, uses_anonymous_args = 0
 1919              		.loc 1 834 1 is_stmt 0 view .LVU424
ARM GAS  /var/folders/yz/w8msd8211qzc60m57tpkzbn80000gn/T//ccRVvTE8.s 			page 53


 1920 0000 08B5     		push	{r3, lr}
 1921              	.LCFI55:
 1922              		.cfi_def_cfa_offset 8
 1923              		.cfi_offset 3, -8
 1924              		.cfi_offset 14, -4
 1925 0002 0A46     		mov	r2, r1
 835:Drivers/BSP/STM32746G-Discovery/stm32746g_discovery.c ****   return (I2Cx_IsDeviceReady(&hI2cExtHandler, DevAddress, Trials));
 1926              		.loc 1 835 3 is_stmt 1 view .LVU425
 1927              		.loc 1 835 11 is_stmt 0 view .LVU426
 1928 0004 0146     		mov	r1, r0
 1929              	.LVL133:
 1930              		.loc 1 835 11 view .LVU427
 1931 0006 0248     		ldr	r0, .L151
 1932              	.LVL134:
 1933              		.loc 1 835 11 view .LVU428
 1934 0008 FFF7FEFF 		bl	I2Cx_IsDeviceReady
 1935              	.LVL135:
 836:Drivers/BSP/STM32746G-Discovery/stm32746g_discovery.c **** }
 1936              		.loc 1 836 1 view .LVU429
 1937 000c 08BD     		pop	{r3, pc}
 1938              	.L152:
 1939 000e 00BF     		.align	2
 1940              	.L151:
 1941 0010 00000000 		.word	.LANCHOR7
 1942              		.cfi_endproc
 1943              	.LFE170:
 1945              		.section	.text.TS_IO_Init,"ax",%progbits
 1946              		.align	1
 1947              		.global	TS_IO_Init
 1948              		.syntax unified
 1949              		.thumb
 1950              		.thumb_func
 1951              		.fpu fpv5-sp-d16
 1953              	TS_IO_Init:
 1954              	.LFB171:
 837:Drivers/BSP/STM32746G-Discovery/stm32746g_discovery.c **** 
 838:Drivers/BSP/STM32746G-Discovery/stm32746g_discovery.c **** /********************************* LINK TOUCHSCREEN *********************************/
 839:Drivers/BSP/STM32746G-Discovery/stm32746g_discovery.c **** 
 840:Drivers/BSP/STM32746G-Discovery/stm32746g_discovery.c **** /**
 841:Drivers/BSP/STM32746G-Discovery/stm32746g_discovery.c ****   * @brief  Initializes Touchscreen low level.
 842:Drivers/BSP/STM32746G-Discovery/stm32746g_discovery.c ****   * @retval None
 843:Drivers/BSP/STM32746G-Discovery/stm32746g_discovery.c ****   */
 844:Drivers/BSP/STM32746G-Discovery/stm32746g_discovery.c **** void TS_IO_Init(void)
 845:Drivers/BSP/STM32746G-Discovery/stm32746g_discovery.c **** {
 1955              		.loc 1 845 1 is_stmt 1 view -0
 1956              		.cfi_startproc
 1957              		@ args = 0, pretend = 0, frame = 0
 1958              		@ frame_needed = 0, uses_anonymous_args = 0
 1959 0000 08B5     		push	{r3, lr}
 1960              	.LCFI56:
 1961              		.cfi_def_cfa_offset 8
 1962              		.cfi_offset 3, -8
 1963              		.cfi_offset 14, -4
 846:Drivers/BSP/STM32746G-Discovery/stm32746g_discovery.c ****   I2Cx_Init(&hI2cAudioHandler);
 1964              		.loc 1 846 3 view .LVU431
 1965 0002 0248     		ldr	r0, .L155
 1966 0004 FFF7FEFF 		bl	I2Cx_Init
ARM GAS  /var/folders/yz/w8msd8211qzc60m57tpkzbn80000gn/T//ccRVvTE8.s 			page 54


 1967              	.LVL136:
 847:Drivers/BSP/STM32746G-Discovery/stm32746g_discovery.c **** }
 1968              		.loc 1 847 1 is_stmt 0 view .LVU432
 1969 0008 08BD     		pop	{r3, pc}
 1970              	.L156:
 1971 000a 00BF     		.align	2
 1972              	.L155:
 1973 000c 00000000 		.word	.LANCHOR0
 1974              		.cfi_endproc
 1975              	.LFE171:
 1977              		.section	.text.TS_IO_Write,"ax",%progbits
 1978              		.align	1
 1979              		.global	TS_IO_Write
 1980              		.syntax unified
 1981              		.thumb
 1982              		.thumb_func
 1983              		.fpu fpv5-sp-d16
 1985              	TS_IO_Write:
 1986              	.LVL137:
 1987              	.LFB172:
 848:Drivers/BSP/STM32746G-Discovery/stm32746g_discovery.c **** 
 849:Drivers/BSP/STM32746G-Discovery/stm32746g_discovery.c **** /**
 850:Drivers/BSP/STM32746G-Discovery/stm32746g_discovery.c ****   * @brief  Writes a single data.
 851:Drivers/BSP/STM32746G-Discovery/stm32746g_discovery.c ****   * @param  Addr: I2C address
 852:Drivers/BSP/STM32746G-Discovery/stm32746g_discovery.c ****   * @param  Reg: Reg address
 853:Drivers/BSP/STM32746G-Discovery/stm32746g_discovery.c ****   * @param  Value: Data to be written
 854:Drivers/BSP/STM32746G-Discovery/stm32746g_discovery.c ****   * @retval None
 855:Drivers/BSP/STM32746G-Discovery/stm32746g_discovery.c ****   */
 856:Drivers/BSP/STM32746G-Discovery/stm32746g_discovery.c **** void TS_IO_Write(uint8_t Addr, uint8_t Reg, uint8_t Value)
 857:Drivers/BSP/STM32746G-Discovery/stm32746g_discovery.c **** {
 1988              		.loc 1 857 1 is_stmt 1 view -0
 1989              		.cfi_startproc
 1990              		@ args = 0, pretend = 0, frame = 8
 1991              		@ frame_needed = 0, uses_anonymous_args = 0
 1992              		.loc 1 857 1 is_stmt 0 view .LVU434
 1993 0000 00B5     		push	{lr}
 1994              	.LCFI57:
 1995              		.cfi_def_cfa_offset 4
 1996              		.cfi_offset 14, -4
 1997 0002 85B0     		sub	sp, sp, #20
 1998              	.LCFI58:
 1999              		.cfi_def_cfa_offset 24
 2000 0004 8DF80F20 		strb	r2, [sp, #15]
 858:Drivers/BSP/STM32746G-Discovery/stm32746g_discovery.c ****   I2Cx_WriteMultiple(&hI2cAudioHandler, Addr, (uint16_t)Reg, I2C_MEMADD_SIZE_8BIT,(uint8_t*)&Value,
 2001              		.loc 1 858 3 is_stmt 1 view .LVU435
 2002 0008 0123     		movs	r3, #1
 2003 000a 0193     		str	r3, [sp, #4]
 2004 000c 0DF10F02 		add	r2, sp, #15
 2005              	.LVL138:
 2006              		.loc 1 858 3 is_stmt 0 view .LVU436
 2007 0010 0092     		str	r2, [sp]
 2008 0012 0A46     		mov	r2, r1
 2009              	.LVL139:
 2010              		.loc 1 858 3 view .LVU437
 2011 0014 0146     		mov	r1, r0
 2012              	.LVL140:
 2013              		.loc 1 858 3 view .LVU438
ARM GAS  /var/folders/yz/w8msd8211qzc60m57tpkzbn80000gn/T//ccRVvTE8.s 			page 55


 2014 0016 0348     		ldr	r0, .L159
 2015              	.LVL141:
 2016              		.loc 1 858 3 view .LVU439
 2017 0018 FFF7FEFF 		bl	I2Cx_WriteMultiple
 2018              	.LVL142:
 859:Drivers/BSP/STM32746G-Discovery/stm32746g_discovery.c **** }
 2019              		.loc 1 859 1 view .LVU440
 2020 001c 05B0     		add	sp, sp, #20
 2021              	.LCFI59:
 2022              		.cfi_def_cfa_offset 4
 2023              		@ sp needed
 2024 001e 5DF804FB 		ldr	pc, [sp], #4
 2025              	.L160:
 2026 0022 00BF     		.align	2
 2027              	.L159:
 2028 0024 00000000 		.word	.LANCHOR0
 2029              		.cfi_endproc
 2030              	.LFE172:
 2032              		.section	.text.TS_IO_Read,"ax",%progbits
 2033              		.align	1
 2034              		.global	TS_IO_Read
 2035              		.syntax unified
 2036              		.thumb
 2037              		.thumb_func
 2038              		.fpu fpv5-sp-d16
 2040              	TS_IO_Read:
 2041              	.LVL143:
 2042              	.LFB173:
 860:Drivers/BSP/STM32746G-Discovery/stm32746g_discovery.c **** 
 861:Drivers/BSP/STM32746G-Discovery/stm32746g_discovery.c **** /**
 862:Drivers/BSP/STM32746G-Discovery/stm32746g_discovery.c ****   * @brief  Reads a single data.
 863:Drivers/BSP/STM32746G-Discovery/stm32746g_discovery.c ****   * @param  Addr: I2C address
 864:Drivers/BSP/STM32746G-Discovery/stm32746g_discovery.c ****   * @param  Reg: Reg address
 865:Drivers/BSP/STM32746G-Discovery/stm32746g_discovery.c ****   * @retval Data to be read
 866:Drivers/BSP/STM32746G-Discovery/stm32746g_discovery.c ****   */
 867:Drivers/BSP/STM32746G-Discovery/stm32746g_discovery.c **** uint8_t TS_IO_Read(uint8_t Addr, uint8_t Reg)
 868:Drivers/BSP/STM32746G-Discovery/stm32746g_discovery.c **** {
 2043              		.loc 1 868 1 is_stmt 1 view -0
 2044              		.cfi_startproc
 2045              		@ args = 0, pretend = 0, frame = 8
 2046              		@ frame_needed = 0, uses_anonymous_args = 0
 2047              		.loc 1 868 1 is_stmt 0 view .LVU442
 2048 0000 00B5     		push	{lr}
 2049              	.LCFI60:
 2050              		.cfi_def_cfa_offset 4
 2051              		.cfi_offset 14, -4
 2052 0002 85B0     		sub	sp, sp, #20
 2053              	.LCFI61:
 2054              		.cfi_def_cfa_offset 24
 2055 0004 0A46     		mov	r2, r1
 869:Drivers/BSP/STM32746G-Discovery/stm32746g_discovery.c ****   uint8_t read_value = 0;
 2056              		.loc 1 869 3 is_stmt 1 view .LVU443
 2057              		.loc 1 869 11 is_stmt 0 view .LVU444
 2058 0006 0023     		movs	r3, #0
 2059 0008 8DF80F30 		strb	r3, [sp, #15]
 870:Drivers/BSP/STM32746G-Discovery/stm32746g_discovery.c **** 
 871:Drivers/BSP/STM32746G-Discovery/stm32746g_discovery.c ****   I2Cx_ReadMultiple(&hI2cAudioHandler, Addr, Reg, I2C_MEMADD_SIZE_8BIT, (uint8_t*)&read_value, 1);
ARM GAS  /var/folders/yz/w8msd8211qzc60m57tpkzbn80000gn/T//ccRVvTE8.s 			page 56


 2060              		.loc 1 871 3 is_stmt 1 view .LVU445
 2061 000c 0123     		movs	r3, #1
 2062 000e 0193     		str	r3, [sp, #4]
 2063 0010 0DF10F01 		add	r1, sp, #15
 2064              	.LVL144:
 2065              		.loc 1 871 3 is_stmt 0 view .LVU446
 2066 0014 0091     		str	r1, [sp]
 2067 0016 0146     		mov	r1, r0
 2068 0018 0348     		ldr	r0, .L163
 2069              	.LVL145:
 2070              		.loc 1 871 3 view .LVU447
 2071 001a FFF7FEFF 		bl	I2Cx_ReadMultiple
 2072              	.LVL146:
 872:Drivers/BSP/STM32746G-Discovery/stm32746g_discovery.c **** 
 873:Drivers/BSP/STM32746G-Discovery/stm32746g_discovery.c ****   return read_value;
 2073              		.loc 1 873 3 is_stmt 1 view .LVU448
 874:Drivers/BSP/STM32746G-Discovery/stm32746g_discovery.c **** }
 2074              		.loc 1 874 1 is_stmt 0 view .LVU449
 2075 001e 9DF80F00 		ldrb	r0, [sp, #15]	@ zero_extendqisi2
 2076 0022 05B0     		add	sp, sp, #20
 2077              	.LCFI62:
 2078              		.cfi_def_cfa_offset 4
 2079              		@ sp needed
 2080 0024 5DF804FB 		ldr	pc, [sp], #4
 2081              	.L164:
 2082              		.align	2
 2083              	.L163:
 2084 0028 00000000 		.word	.LANCHOR0
 2085              		.cfi_endproc
 2086              	.LFE173:
 2088              		.section	.text.TS_IO_Delay,"ax",%progbits
 2089              		.align	1
 2090              		.global	TS_IO_Delay
 2091              		.syntax unified
 2092              		.thumb
 2093              		.thumb_func
 2094              		.fpu fpv5-sp-d16
 2096              	TS_IO_Delay:
 2097              	.LVL147:
 2098              	.LFB174:
 875:Drivers/BSP/STM32746G-Discovery/stm32746g_discovery.c **** 
 876:Drivers/BSP/STM32746G-Discovery/stm32746g_discovery.c **** /**
 877:Drivers/BSP/STM32746G-Discovery/stm32746g_discovery.c ****   * @brief  TS delay
 878:Drivers/BSP/STM32746G-Discovery/stm32746g_discovery.c ****   * @param  Delay: Delay in ms
 879:Drivers/BSP/STM32746G-Discovery/stm32746g_discovery.c ****   * @retval None
 880:Drivers/BSP/STM32746G-Discovery/stm32746g_discovery.c ****   */
 881:Drivers/BSP/STM32746G-Discovery/stm32746g_discovery.c **** void TS_IO_Delay(uint32_t Delay)
 882:Drivers/BSP/STM32746G-Discovery/stm32746g_discovery.c **** {
 2099              		.loc 1 882 1 is_stmt 1 view -0
 2100              		.cfi_startproc
 2101              		@ args = 0, pretend = 0, frame = 0
 2102              		@ frame_needed = 0, uses_anonymous_args = 0
 2103              		.loc 1 882 1 is_stmt 0 view .LVU451
 2104 0000 08B5     		push	{r3, lr}
 2105              	.LCFI63:
 2106              		.cfi_def_cfa_offset 8
 2107              		.cfi_offset 3, -8
ARM GAS  /var/folders/yz/w8msd8211qzc60m57tpkzbn80000gn/T//ccRVvTE8.s 			page 57


 2108              		.cfi_offset 14, -4
 883:Drivers/BSP/STM32746G-Discovery/stm32746g_discovery.c ****   HAL_Delay(Delay);
 2109              		.loc 1 883 3 is_stmt 1 view .LVU452
 2110 0002 FFF7FEFF 		bl	HAL_Delay
 2111              	.LVL148:
 884:Drivers/BSP/STM32746G-Discovery/stm32746g_discovery.c **** }
 2112              		.loc 1 884 1 is_stmt 0 view .LVU453
 2113 0006 08BD     		pop	{r3, pc}
 2114              		.cfi_endproc
 2115              	.LFE174:
 2117              		.global	COM_RX_AF
 2118              		.global	COM_TX_AF
 2119              		.global	COM_RX_PIN
 2120              		.global	COM_TX_PIN
 2121              		.global	COM_RX_PORT
 2122              		.global	COM_TX_PORT
 2123              		.global	COM_USART
 2124              		.global	BUTTON_IRQn
 2125              		.global	BUTTON_PIN
 2126              		.global	BUTTON_PORT
 2127              		.global	GPIO_PIN
 2128              		.section	.bss.hI2cAudioHandler,"aw",%nobits
 2129              		.align	2
 2130              		.set	.LANCHOR0,. + 0
 2133              	hI2cAudioHandler:
 2134 0000 00000000 		.space	76
 2134      00000000 
 2134      00000000 
 2134      00000000 
 2134      00000000 
 2135              		.section	.bss.hI2cExtHandler,"aw",%nobits
 2136              		.align	2
 2137              		.set	.LANCHOR7,. + 0
 2140              	hI2cExtHandler:
 2141 0000 00000000 		.space	76
 2141      00000000 
 2141      00000000 
 2141      00000000 
 2141      00000000 
 2142              		.section	.data.BUTTON_PORT,"aw"
 2143              		.align	2
 2144              		.set	.LANCHOR2,. + 0
 2147              	BUTTON_PORT:
 2148 0000 00200240 		.word	1073881088
 2149 0004 00200240 		.word	1073881088
 2150 0008 00200240 		.word	1073881088
 2151              		.section	.data.COM_RX_PORT,"aw"
 2152              		.align	2
 2153              		.set	.LANCHOR5,. + 0
 2156              	COM_RX_PORT:
 2157 0000 00040240 		.word	1073873920
 2158              		.section	.data.COM_TX_PORT,"aw"
 2159              		.align	2
 2160              		.set	.LANCHOR4,. + 0
 2163              	COM_TX_PORT:
 2164 0000 00000240 		.word	1073872896
 2165              		.section	.data.COM_USART,"aw"
ARM GAS  /var/folders/yz/w8msd8211qzc60m57tpkzbn80000gn/T//ccRVvTE8.s 			page 58


 2166              		.align	2
 2167              		.set	.LANCHOR6,. + 0
 2170              	COM_USART:
 2171 0000 00100140 		.word	1073811456
 2172              		.section	.rodata.BUTTON_IRQn,"a"
 2173              		.align	2
 2174              		.set	.LANCHOR3,. + 0
 2177              	BUTTON_IRQn:
 2178 0000 2800     		.short	40
 2179 0002 2800     		.short	40
 2180 0004 2800     		.short	40
 2181              		.section	.rodata.BUTTON_PIN,"a"
 2182              		.align	2
 2183              		.set	.LANCHOR1,. + 0
 2186              	BUTTON_PIN:
 2187 0000 0008     		.short	2048
 2188 0002 0008     		.short	2048
 2189 0004 0008     		.short	2048
 2190              		.section	.rodata.COM_RX_AF,"a"
 2191              		.align	2
 2194              	COM_RX_AF:
 2195 0000 0700     		.short	7
 2196              		.section	.rodata.COM_RX_PIN,"a"
 2197              		.align	2
 2200              	COM_RX_PIN:
 2201 0000 8000     		.short	128
 2202              		.section	.rodata.COM_TX_AF,"a"
 2203              		.align	2
 2206              	COM_TX_AF:
 2207 0000 0700     		.short	7
 2208              		.section	.rodata.COM_TX_PIN,"a"
 2209              		.align	2
 2212              	COM_TX_PIN:
 2213 0000 0002     		.short	512
 2214              		.section	.rodata.GPIO_PIN,"a"
 2215              		.align	2
 2218              	GPIO_PIN:
 2219 0000 02000000 		.word	2
 2220              		.text
 2221              	.Letext0:
 2222              		.file 2 "Drivers/CMSIS/Device/ST/STM32F7xx/Include/stm32f746xx.h"
 2223              		.file 3 "/usr/local/Cellar/arm-none-eabi-gcc/9-2019-q4-major/gcc/arm-none-eabi/include/machine/_de
 2224              		.file 4 "/usr/local/Cellar/arm-none-eabi-gcc/9-2019-q4-major/gcc/arm-none-eabi/include/sys/_stdint
 2225              		.file 5 "Drivers/CMSIS/Core/Include/core_cm7.h"
 2226              		.file 6 "Drivers/CMSIS/Device/ST/STM32F7xx/Include/system_stm32f7xx.h"
 2227              		.file 7 "Drivers/STM32F7xx_HAL_Driver/Inc/stm32f7xx_hal_def.h"
 2228              		.file 8 "Drivers/STM32F7xx_HAL_Driver/Inc/stm32f7xx_hal_gpio.h"
 2229              		.file 9 "Drivers/STM32F7xx_HAL_Driver/Inc/stm32f7xx_hal_dma.h"
 2230              		.file 10 "Drivers/STM32F7xx_HAL_Driver/Inc/stm32f7xx_hal_i2c.h"
 2231              		.file 11 "Drivers/STM32F7xx_HAL_Driver/Inc/stm32f7xx_hal_uart.h"
 2232              		.file 12 "Drivers/STM32F7xx_HAL_Driver/Inc/stm32f7xx_hal.h"
 2233              		.file 13 "Drivers/BSP/STM32746G-Discovery/stm32746g_discovery.h"
 2234              		.file 14 "Drivers/STM32F7xx_HAL_Driver/Inc/stm32f7xx_hal_cortex.h"
ARM GAS  /var/folders/yz/w8msd8211qzc60m57tpkzbn80000gn/T//ccRVvTE8.s 			page 59

