ARM GAS  /var/folders/yz/w8msd8211qzc60m57tpkzbn80000gn/T//ccfRD3yG.s 			page 1


   1              		.cpu cortex-m7
   2              		.eabi_attribute 27, 1
   3              		.eabi_attribute 28, 1
   4              		.eabi_attribute 20, 1
   5              		.eabi_attribute 21, 1
   6              		.eabi_attribute 23, 3
   7              		.eabi_attribute 24, 1
   8              		.eabi_attribute 25, 1
   9              		.eabi_attribute 26, 1
  10              		.eabi_attribute 30, 1
  11              		.eabi_attribute 34, 1
  12              		.eabi_attribute 18, 4
  13              		.file	"syscalls.c"
  14              		.text
  15              	.Ltext0:
  16              		.cfi_sections	.debug_frame
  17              		.section	.text._sbrk,"ax",%progbits
  18              		.align	1
  19              		.global	_sbrk
  20              		.arch armv7e-m
  21              		.syntax unified
  22              		.thumb
  23              		.thumb_func
  24              		.fpu fpv5-sp-d16
  26              	_sbrk:
  27              	.LVL0:
  28              	.LFB25:
  29              		.file 1 "syscalls.c"
   1:syscalls.c    **** /* Support files for GNU libc.  Files in the system namespace go here.
   2:syscalls.c    ****    Files in the C namespace (ie those that do not start with an
   3:syscalls.c    ****    underscore) go in .c.  */
   4:syscalls.c    **** 
   5:syscalls.c    **** #include <_ansi.h>
   6:syscalls.c    **** #include <sys/types.h>
   7:syscalls.c    **** #include <sys/stat.h>
   8:syscalls.c    **** #include <sys/fcntl.h>
   9:syscalls.c    **** #include <stdio.h>
  10:syscalls.c    **** #include <string.h>
  11:syscalls.c    **** #include <time.h>
  12:syscalls.c    **** #include <sys/time.h>
  13:syscalls.c    **** #include <sys/times.h>
  14:syscalls.c    **** #include <errno.h>
  15:syscalls.c    **** #include <reent.h>
  16:syscalls.c    **** #include <unistd.h>
  17:syscalls.c    **** #include <sys/wait.h>
  18:syscalls.c    **** 
  19:syscalls.c    **** 
  20:syscalls.c    **** 
  21:syscalls.c    **** #define FreeRTOS
  22:syscalls.c    **** #define MAX_STACK_SIZE 0x2000
  23:syscalls.c    **** 
  24:syscalls.c    **** extern int __io_putchar(int ch) __attribute__((weak));
  25:syscalls.c    **** extern int __io_getchar(void) __attribute__((weak));
  26:syscalls.c    **** 
  27:syscalls.c    **** #ifndef FreeRTOS
  28:syscalls.c    ****   register char * stack_ptr asm("sp");
  29:syscalls.c    **** #endif
ARM GAS  /var/folders/yz/w8msd8211qzc60m57tpkzbn80000gn/T//ccfRD3yG.s 			page 2


  30:syscalls.c    **** 
  31:syscalls.c    **** 
  32:syscalls.c    **** 
  33:syscalls.c    **** 
  34:syscalls.c    **** caddr_t _sbrk(int incr)
  35:syscalls.c    **** {
  30              		.loc 1 35 1 view -0
  31              		.cfi_startproc
  32              		@ args = 0, pretend = 0, frame = 0
  33              		@ frame_needed = 0, uses_anonymous_args = 0
  34              		@ link register save eliminated.
  35              		.loc 1 35 1 is_stmt 0 view .LVU1
  36 0000 0346     		mov	r3, r0
  36:syscalls.c    **** 	extern char end __asm__("end");
  37              		.loc 1 36 2 is_stmt 1 view .LVU2
  37:syscalls.c    **** 	static char *heap_end;
  38              		.loc 1 37 2 view .LVU3
  38:syscalls.c    **** 	char *prev_heap_end,*min_stack_ptr;
  39              		.loc 1 38 2 view .LVU4
  39:syscalls.c    **** 
  40:syscalls.c    **** 	if (heap_end == 0)
  40              		.loc 1 40 2 view .LVU5
  41              		.loc 1 40 15 is_stmt 0 view .LVU6
  42 0002 0D4A     		ldr	r2, .L7
  43 0004 1268     		ldr	r2, [r2]
  44              		.loc 1 40 5 view .LVU7
  45 0006 62B1     		cbz	r2, .L5
  46              	.L2:
  41:syscalls.c    **** 		heap_end = &end;
  42:syscalls.c    **** 
  43:syscalls.c    **** 	prev_heap_end = heap_end;
  47              		.loc 1 43 2 is_stmt 1 view .LVU8
  48              		.loc 1 43 16 is_stmt 0 view .LVU9
  49 0008 0B4A     		ldr	r2, .L7
  50 000a 1068     		ldr	r0, [r2]
  51              	.LVL1:
  44:syscalls.c    **** 
  45:syscalls.c    **** #ifdef FreeRTOS
  46:syscalls.c    **** 	/* Use the NVIC offset register to locate the main stack pointer. */
  47:syscalls.c    **** 	min_stack_ptr = (char*)(*(unsigned int *)*(unsigned int *)0xE000ED08);
  52              		.loc 1 47 2 is_stmt 1 view .LVU10
  53              		.loc 1 47 43 is_stmt 0 view .LVU11
  54 000c 0B4A     		ldr	r2, .L7+4
  55 000e 1268     		ldr	r2, [r2]
  56              		.loc 1 47 26 view .LVU12
  57 0010 1268     		ldr	r2, [r2]
  58              	.LVL2:
  48:syscalls.c    **** 	/* Locate the STACK bottom address */
  49:syscalls.c    **** 	min_stack_ptr -= MAX_STACK_SIZE;
  59              		.loc 1 49 2 is_stmt 1 view .LVU13
  60              		.loc 1 49 16 is_stmt 0 view .LVU14
  61 0012 A2F50052 		sub	r2, r2, #8192
  62              	.LVL3:
  50:syscalls.c    **** 
  51:syscalls.c    **** 	if (heap_end + incr > min_stack_ptr)
  63              		.loc 1 51 2 is_stmt 1 view .LVU15
  64              		.loc 1 51 15 is_stmt 0 view .LVU16
ARM GAS  /var/folders/yz/w8msd8211qzc60m57tpkzbn80000gn/T//ccfRD3yG.s 			page 3


  65 0016 0344     		add	r3, r3, r0
  66              	.LVL4:
  67              		.loc 1 51 5 view .LVU17
  68 0018 9342     		cmp	r3, r2
  69 001a 06D8     		bhi	.L6
  52:syscalls.c    **** #else
  53:syscalls.c    **** 	if (heap_end + incr > stack_ptr)
  54:syscalls.c    **** #endif
  55:syscalls.c    **** 	{
  56:syscalls.c    **** //		write(1, "Heap and stack collision\n", 25);
  57:syscalls.c    **** //		abort();
  58:syscalls.c    **** 		errno = ENOMEM;
  59:syscalls.c    **** 		return (caddr_t) -1;
  60:syscalls.c    **** 	}
  61:syscalls.c    **** 
  62:syscalls.c    **** 	heap_end += incr;
  70              		.loc 1 62 2 is_stmt 1 view .LVU18
  71              		.loc 1 62 11 is_stmt 0 view .LVU19
  72 001c 064A     		ldr	r2, .L7
  73              	.LVL5:
  74              		.loc 1 62 11 view .LVU20
  75 001e 1360     		str	r3, [r2]
  76              	.LVL6:
  63:syscalls.c    **** 
  64:syscalls.c    **** 	return (caddr_t) prev_heap_end;
  77              		.loc 1 64 2 is_stmt 1 view .LVU21
  65:syscalls.c    **** }
  78              		.loc 1 65 1 is_stmt 0 view .LVU22
  79 0020 7047     		bx	lr
  80              	.LVL7:
  81              	.L5:
  41:syscalls.c    **** 
  82              		.loc 1 41 3 is_stmt 1 view .LVU23
  41:syscalls.c    **** 
  83              		.loc 1 41 12 is_stmt 0 view .LVU24
  84 0022 054A     		ldr	r2, .L7
  85 0024 0649     		ldr	r1, .L7+8
  86 0026 1160     		str	r1, [r2]
  87 0028 EEE7     		b	.L2
  88              	.LVL8:
  89              	.L6:
  58:syscalls.c    **** 		return (caddr_t) -1;
  90              		.loc 1 58 3 is_stmt 1 view .LVU25
  58:syscalls.c    **** 		return (caddr_t) -1;
  91              		.loc 1 58 9 is_stmt 0 view .LVU26
  92 002a 064B     		ldr	r3, .L7+12
  93 002c 0C22     		movs	r2, #12
  94              	.LVL9:
  58:syscalls.c    **** 		return (caddr_t) -1;
  95              		.loc 1 58 9 view .LVU27
  96 002e 1A60     		str	r2, [r3]
  97              	.LVL10:
  59:syscalls.c    **** 	}
  98              		.loc 1 59 3 is_stmt 1 view .LVU28
  59:syscalls.c    **** 	}
  99              		.loc 1 59 10 is_stmt 0 view .LVU29
 100 0030 4FF0FF30 		mov	r0, #-1
ARM GAS  /var/folders/yz/w8msd8211qzc60m57tpkzbn80000gn/T//ccfRD3yG.s 			page 4


 101              	.LVL11:
  59:syscalls.c    **** 	}
 102              		.loc 1 59 10 view .LVU30
 103 0034 7047     		bx	lr
 104              	.L8:
 105 0036 00BF     		.align	2
 106              	.L7:
 107 0038 00000000 		.word	.LANCHOR0
 108 003c 08ED00E0 		.word	-536810232
 109 0040 00000000 		.word	end
 110 0044 00000000 		.word	errno
 111              		.cfi_endproc
 112              	.LFE25:
 114              		.section	.text._gettimeofday,"ax",%progbits
 115              		.align	1
 116              		.global	_gettimeofday
 117              		.syntax unified
 118              		.thumb
 119              		.thumb_func
 120              		.fpu fpv5-sp-d16
 122              	_gettimeofday:
 123              	.LVL12:
 124              	.LFB26:
  66:syscalls.c    **** 
  67:syscalls.c    **** /*
  68:syscalls.c    ****  * _gettimeofday primitive (Stub function)
  69:syscalls.c    ****  * */
  70:syscalls.c    **** int _gettimeofday (struct timeval * tp, struct timezone * tzp)
  71:syscalls.c    **** {
 125              		.loc 1 71 1 is_stmt 1 view -0
 126              		.cfi_startproc
 127              		@ args = 0, pretend = 0, frame = 0
 128              		@ frame_needed = 0, uses_anonymous_args = 0
 129              		@ link register save eliminated.
  72:syscalls.c    ****   /* Return fixed data for the timezone.  */
  73:syscalls.c    ****   if (tzp)
 130              		.loc 1 73 3 view .LVU32
 131              		.loc 1 73 6 is_stmt 0 view .LVU33
 132 0000 11B1     		cbz	r1, .L10
  74:syscalls.c    ****     {
  75:syscalls.c    ****       tzp->tz_minuteswest = 0;
 133              		.loc 1 75 7 is_stmt 1 view .LVU34
 134              		.loc 1 75 27 is_stmt 0 view .LVU35
 135 0002 0022     		movs	r2, #0
 136 0004 0A60     		str	r2, [r1]
  76:syscalls.c    ****       tzp->tz_dsttime = 0;
 137              		.loc 1 76 7 is_stmt 1 view .LVU36
 138              		.loc 1 76 23 is_stmt 0 view .LVU37
 139 0006 4A60     		str	r2, [r1, #4]
 140              	.L10:
  77:syscalls.c    ****     }
  78:syscalls.c    **** 
  79:syscalls.c    ****   return 0;
 141              		.loc 1 79 3 is_stmt 1 view .LVU38
  80:syscalls.c    **** }
 142              		.loc 1 80 1 is_stmt 0 view .LVU39
 143 0008 0020     		movs	r0, #0
ARM GAS  /var/folders/yz/w8msd8211qzc60m57tpkzbn80000gn/T//ccfRD3yG.s 			page 5


 144              	.LVL13:
 145              		.loc 1 80 1 view .LVU40
 146 000a 7047     		bx	lr
 147              		.cfi_endproc
 148              	.LFE26:
 150              		.section	.text.initialise_monitor_handles,"ax",%progbits
 151              		.align	1
 152              		.global	initialise_monitor_handles
 153              		.syntax unified
 154              		.thumb
 155              		.thumb_func
 156              		.fpu fpv5-sp-d16
 158              	initialise_monitor_handles:
 159              	.LFB27:
  81:syscalls.c    **** void initialise_monitor_handles()
  82:syscalls.c    **** {
 160              		.loc 1 82 1 is_stmt 1 view -0
 161              		.cfi_startproc
 162              		@ args = 0, pretend = 0, frame = 0
 163              		@ frame_needed = 0, uses_anonymous_args = 0
 164              		@ link register save eliminated.
  83:syscalls.c    **** }
 165              		.loc 1 83 1 view .LVU42
 166 0000 7047     		bx	lr
 167              		.cfi_endproc
 168              	.LFE27:
 170              		.section	.text._getpid,"ax",%progbits
 171              		.align	1
 172              		.global	_getpid
 173              		.syntax unified
 174              		.thumb
 175              		.thumb_func
 176              		.fpu fpv5-sp-d16
 178              	_getpid:
 179              	.LFB28:
  84:syscalls.c    **** 
  85:syscalls.c    **** int _getpid(void)
  86:syscalls.c    **** {
 180              		.loc 1 86 1 view -0
 181              		.cfi_startproc
 182              		@ args = 0, pretend = 0, frame = 0
 183              		@ frame_needed = 0, uses_anonymous_args = 0
 184              		@ link register save eliminated.
  87:syscalls.c    **** 	return 1;
 185              		.loc 1 87 2 view .LVU44
  88:syscalls.c    **** }
 186              		.loc 1 88 1 is_stmt 0 view .LVU45
 187 0000 0120     		movs	r0, #1
 188 0002 7047     		bx	lr
 189              		.cfi_endproc
 190              	.LFE28:
 192              		.section	.text._kill,"ax",%progbits
 193              		.align	1
 194              		.global	_kill
 195              		.syntax unified
 196              		.thumb
 197              		.thumb_func
ARM GAS  /var/folders/yz/w8msd8211qzc60m57tpkzbn80000gn/T//ccfRD3yG.s 			page 6


 198              		.fpu fpv5-sp-d16
 200              	_kill:
 201              	.LVL14:
 202              	.LFB29:
  89:syscalls.c    **** 
  90:syscalls.c    **** int _kill(int pid, int sig)
  91:syscalls.c    **** {
 203              		.loc 1 91 1 is_stmt 1 view -0
 204              		.cfi_startproc
 205              		@ args = 0, pretend = 0, frame = 0
 206              		@ frame_needed = 0, uses_anonymous_args = 0
 207              		@ link register save eliminated.
  92:syscalls.c    **** 	errno = EINVAL;
 208              		.loc 1 92 2 view .LVU47
 209              		.loc 1 92 8 is_stmt 0 view .LVU48
 210 0000 024B     		ldr	r3, .L14
 211 0002 1622     		movs	r2, #22
 212 0004 1A60     		str	r2, [r3]
  93:syscalls.c    **** 	return -1;
 213              		.loc 1 93 2 is_stmt 1 view .LVU49
  94:syscalls.c    **** }
 214              		.loc 1 94 1 is_stmt 0 view .LVU50
 215 0006 4FF0FF30 		mov	r0, #-1
 216              	.LVL15:
 217              		.loc 1 94 1 view .LVU51
 218 000a 7047     		bx	lr
 219              	.L15:
 220              		.align	2
 221              	.L14:
 222 000c 00000000 		.word	errno
 223              		.cfi_endproc
 224              	.LFE29:
 226              		.section	.text._exit,"ax",%progbits
 227              		.align	1
 228              		.global	_exit
 229              		.syntax unified
 230              		.thumb
 231              		.thumb_func
 232              		.fpu fpv5-sp-d16
 234              	_exit:
 235              	.LVL16:
 236              	.LFB30:
  95:syscalls.c    **** 
  96:syscalls.c    **** void _exit (int status)
  97:syscalls.c    **** {
 237              		.loc 1 97 1 is_stmt 1 view -0
 238              		.cfi_startproc
 239              		@ Volatile: function does not return.
 240              		@ args = 0, pretend = 0, frame = 0
 241              		@ frame_needed = 0, uses_anonymous_args = 0
 242              		.loc 1 97 1 is_stmt 0 view .LVU53
 243 0000 08B5     		push	{r3, lr}
 244              	.LCFI0:
 245              		.cfi_def_cfa_offset 8
 246              		.cfi_offset 3, -8
 247              		.cfi_offset 14, -4
  98:syscalls.c    **** 	_kill(status, -1);
ARM GAS  /var/folders/yz/w8msd8211qzc60m57tpkzbn80000gn/T//ccfRD3yG.s 			page 7


 248              		.loc 1 98 2 is_stmt 1 view .LVU54
 249 0002 4FF0FF31 		mov	r1, #-1
 250 0006 FFF7FEFF 		bl	_kill
 251              	.LVL17:
 252              	.L17:
  99:syscalls.c    **** 	while (1) {}
 253              		.loc 1 99 2 discriminator 1 view .LVU55
 254              		.loc 1 99 13 discriminator 1 view .LVU56
 255              		.loc 1 99 8 discriminator 1 view .LVU57
 256 000a FEE7     		b	.L17
 257              		.cfi_endproc
 258              	.LFE30:
 260              		.section	.text._write,"ax",%progbits
 261              		.align	1
 262              		.global	_write
 263              		.syntax unified
 264              		.thumb
 265              		.thumb_func
 266              		.fpu fpv5-sp-d16
 268              	_write:
 269              	.LVL18:
 270              	.LFB31:
 100:syscalls.c    **** }
 101:syscalls.c    **** 
 102:syscalls.c    **** int _write(int file, char *ptr, int len)
 103:syscalls.c    **** {
 271              		.loc 1 103 1 view -0
 272              		.cfi_startproc
 273              		@ args = 0, pretend = 0, frame = 0
 274              		@ frame_needed = 0, uses_anonymous_args = 0
 275              		.loc 1 103 1 is_stmt 0 view .LVU59
 276 0000 70B5     		push	{r4, r5, r6, lr}
 277              	.LCFI1:
 278              		.cfi_def_cfa_offset 16
 279              		.cfi_offset 4, -16
 280              		.cfi_offset 5, -12
 281              		.cfi_offset 6, -8
 282              		.cfi_offset 14, -4
 283 0002 0C46     		mov	r4, r1
 284 0004 1646     		mov	r6, r2
 104:syscalls.c    **** 	int DataIdx;
 285              		.loc 1 104 2 is_stmt 1 view .LVU60
 105:syscalls.c    **** 
 106:syscalls.c    **** 		for (DataIdx = 0; DataIdx < len; DataIdx++)
 286              		.loc 1 106 3 view .LVU61
 287              	.LVL19:
 288              		.loc 1 106 16 is_stmt 0 view .LVU62
 289 0006 0025     		movs	r5, #0
 290              	.LVL20:
 291              	.L20:
 292              		.loc 1 106 21 is_stmt 1 discriminator 1 view .LVU63
 293              		.loc 1 106 3 is_stmt 0 discriminator 1 view .LVU64
 294 0008 B542     		cmp	r5, r6
 295 000a 05DA     		bge	.L23
 107:syscalls.c    **** 		{
 108:syscalls.c    **** 		   __io_putchar( *ptr++ );
 296              		.loc 1 108 6 is_stmt 1 discriminator 3 view .LVU65
ARM GAS  /var/folders/yz/w8msd8211qzc60m57tpkzbn80000gn/T//ccfRD3yG.s 			page 8


 297              	.LVL21:
 298              		.loc 1 108 6 is_stmt 0 discriminator 3 view .LVU66
 299 000c 14F8010B 		ldrb	r0, [r4], #1	@ zero_extendqisi2
 300              	.LVL22:
 301              		.loc 1 108 6 discriminator 3 view .LVU67
 302 0010 FFF7FEFF 		bl	__io_putchar
 303              	.LVL23:
 106:syscalls.c    **** 		{
 304              		.loc 1 106 36 is_stmt 1 discriminator 3 view .LVU68
 106:syscalls.c    **** 		{
 305              		.loc 1 106 43 is_stmt 0 discriminator 3 view .LVU69
 306 0014 0135     		adds	r5, r5, #1
 307              	.LVL24:
 106:syscalls.c    **** 		{
 308              		.loc 1 106 43 discriminator 3 view .LVU70
 309 0016 F7E7     		b	.L20
 310              	.L23:
 109:syscalls.c    **** 		}
 110:syscalls.c    **** 	return len;
 311              		.loc 1 110 2 is_stmt 1 view .LVU71
 111:syscalls.c    **** }
 312              		.loc 1 111 1 is_stmt 0 view .LVU72
 313 0018 3046     		mov	r0, r6
 314 001a 70BD     		pop	{r4, r5, r6, pc}
 315              		.loc 1 111 1 view .LVU73
 316              		.cfi_endproc
 317              	.LFE31:
 319              		.section	.text._close,"ax",%progbits
 320              		.align	1
 321              		.global	_close
 322              		.syntax unified
 323              		.thumb
 324              		.thumb_func
 325              		.fpu fpv5-sp-d16
 327              	_close:
 328              	.LVL25:
 329              	.LFB32:
 112:syscalls.c    **** 
 113:syscalls.c    **** int _close(int file)
 114:syscalls.c    **** {
 330              		.loc 1 114 1 is_stmt 1 view -0
 331              		.cfi_startproc
 332              		@ args = 0, pretend = 0, frame = 0
 333              		@ frame_needed = 0, uses_anonymous_args = 0
 334              		@ link register save eliminated.
 115:syscalls.c    **** 	return -1;
 335              		.loc 1 115 2 view .LVU75
 116:syscalls.c    **** }
 336              		.loc 1 116 1 is_stmt 0 view .LVU76
 337 0000 4FF0FF30 		mov	r0, #-1
 338              	.LVL26:
 339              		.loc 1 116 1 view .LVU77
 340 0004 7047     		bx	lr
 341              		.cfi_endproc
 342              	.LFE32:
 344              		.section	.text._fstat,"ax",%progbits
 345              		.align	1
ARM GAS  /var/folders/yz/w8msd8211qzc60m57tpkzbn80000gn/T//ccfRD3yG.s 			page 9


 346              		.global	_fstat
 347              		.syntax unified
 348              		.thumb
 349              		.thumb_func
 350              		.fpu fpv5-sp-d16
 352              	_fstat:
 353              	.LVL27:
 354              	.LFB33:
 117:syscalls.c    **** 
 118:syscalls.c    **** int _fstat(int file, struct stat *st)
 119:syscalls.c    **** {
 355              		.loc 1 119 1 is_stmt 1 view -0
 356              		.cfi_startproc
 357              		@ args = 0, pretend = 0, frame = 0
 358              		@ frame_needed = 0, uses_anonymous_args = 0
 359              		@ link register save eliminated.
 120:syscalls.c    **** 	st->st_mode = S_IFCHR;
 360              		.loc 1 120 2 view .LVU79
 361              		.loc 1 120 14 is_stmt 0 view .LVU80
 362 0000 4FF40053 		mov	r3, #8192
 363 0004 4B60     		str	r3, [r1, #4]
 121:syscalls.c    **** 	return 0;
 364              		.loc 1 121 2 is_stmt 1 view .LVU81
 122:syscalls.c    **** }
 365              		.loc 1 122 1 is_stmt 0 view .LVU82
 366 0006 0020     		movs	r0, #0
 367              	.LVL28:
 368              		.loc 1 122 1 view .LVU83
 369 0008 7047     		bx	lr
 370              		.cfi_endproc
 371              	.LFE33:
 373              		.section	.text._isatty,"ax",%progbits
 374              		.align	1
 375              		.global	_isatty
 376              		.syntax unified
 377              		.thumb
 378              		.thumb_func
 379              		.fpu fpv5-sp-d16
 381              	_isatty:
 382              	.LVL29:
 383              	.LFB34:
 123:syscalls.c    **** 
 124:syscalls.c    **** int _isatty(int file)
 125:syscalls.c    **** {
 384              		.loc 1 125 1 is_stmt 1 view -0
 385              		.cfi_startproc
 386              		@ args = 0, pretend = 0, frame = 0
 387              		@ frame_needed = 0, uses_anonymous_args = 0
 388              		@ link register save eliminated.
 126:syscalls.c    **** 	return 1;
 389              		.loc 1 126 2 view .LVU85
 127:syscalls.c    **** }
 390              		.loc 1 127 1 is_stmt 0 view .LVU86
 391 0000 0120     		movs	r0, #1
 392              	.LVL30:
 393              		.loc 1 127 1 view .LVU87
 394 0002 7047     		bx	lr
ARM GAS  /var/folders/yz/w8msd8211qzc60m57tpkzbn80000gn/T//ccfRD3yG.s 			page 10


 395              		.cfi_endproc
 396              	.LFE34:
 398              		.section	.text._lseek,"ax",%progbits
 399              		.align	1
 400              		.global	_lseek
 401              		.syntax unified
 402              		.thumb
 403              		.thumb_func
 404              		.fpu fpv5-sp-d16
 406              	_lseek:
 407              	.LVL31:
 408              	.LFB35:
 128:syscalls.c    **** 
 129:syscalls.c    **** int _lseek(int file, int ptr, int dir)
 130:syscalls.c    **** {
 409              		.loc 1 130 1 is_stmt 1 view -0
 410              		.cfi_startproc
 411              		@ args = 0, pretend = 0, frame = 0
 412              		@ frame_needed = 0, uses_anonymous_args = 0
 413              		@ link register save eliminated.
 131:syscalls.c    **** 	return 0;
 414              		.loc 1 131 2 view .LVU89
 132:syscalls.c    **** }
 415              		.loc 1 132 1 is_stmt 0 view .LVU90
 416 0000 0020     		movs	r0, #0
 417              	.LVL32:
 418              		.loc 1 132 1 view .LVU91
 419 0002 7047     		bx	lr
 420              		.cfi_endproc
 421              	.LFE35:
 423              		.section	.text._read,"ax",%progbits
 424              		.align	1
 425              		.global	_read
 426              		.syntax unified
 427              		.thumb
 428              		.thumb_func
 429              		.fpu fpv5-sp-d16
 431              	_read:
 432              	.LVL33:
 433              	.LFB36:
 133:syscalls.c    **** 
 134:syscalls.c    **** int _read(int file, char *ptr, int len)
 135:syscalls.c    **** {
 434              		.loc 1 135 1 is_stmt 1 view -0
 435              		.cfi_startproc
 436              		@ args = 0, pretend = 0, frame = 0
 437              		@ frame_needed = 0, uses_anonymous_args = 0
 438              		.loc 1 135 1 is_stmt 0 view .LVU93
 439 0000 70B5     		push	{r4, r5, r6, lr}
 440              	.LCFI2:
 441              		.cfi_def_cfa_offset 16
 442              		.cfi_offset 4, -16
 443              		.cfi_offset 5, -12
 444              		.cfi_offset 6, -8
 445              		.cfi_offset 14, -4
 446 0002 0C46     		mov	r4, r1
 447 0004 1646     		mov	r6, r2
ARM GAS  /var/folders/yz/w8msd8211qzc60m57tpkzbn80000gn/T//ccfRD3yG.s 			page 11


 136:syscalls.c    **** 	int DataIdx;
 448              		.loc 1 136 2 is_stmt 1 view .LVU94
 137:syscalls.c    **** 
 138:syscalls.c    **** 	for (DataIdx = 0; DataIdx < len; DataIdx++)
 449              		.loc 1 138 2 view .LVU95
 450              	.LVL34:
 451              		.loc 1 138 15 is_stmt 0 view .LVU96
 452 0006 0025     		movs	r5, #0
 453              	.LVL35:
 454              	.L29:
 455              		.loc 1 138 20 is_stmt 1 discriminator 1 view .LVU97
 456              		.loc 1 138 2 is_stmt 0 discriminator 1 view .LVU98
 457 0008 B542     		cmp	r5, r6
 458 000a 07DA     		bge	.L32
 139:syscalls.c    **** 	{
 140:syscalls.c    **** 	  *ptr++ = __io_getchar();
 459              		.loc 1 140 4 is_stmt 1 discriminator 3 view .LVU99
 460              		.loc 1 140 13 is_stmt 0 discriminator 3 view .LVU100
 461 000c FFF7FEFF 		bl	__io_getchar
 462              	.LVL36:
 463              		.loc 1 140 8 discriminator 3 view .LVU101
 464 0010 2146     		mov	r1, r4
 465              	.LVL37:
 466              		.loc 1 140 11 discriminator 3 view .LVU102
 467 0012 01F8010B 		strb	r0, [r1], #1
 468              	.LVL38:
 138:syscalls.c    **** 	{
 469              		.loc 1 138 35 is_stmt 1 discriminator 3 view .LVU103
 138:syscalls.c    **** 	{
 470              		.loc 1 138 42 is_stmt 0 discriminator 3 view .LVU104
 471 0016 0135     		adds	r5, r5, #1
 472              	.LVL39:
 473              		.loc 1 140 8 discriminator 3 view .LVU105
 474 0018 0C46     		mov	r4, r1
 475 001a F5E7     		b	.L29
 476              	.L32:
 141:syscalls.c    **** 	}
 142:syscalls.c    **** 
 143:syscalls.c    ****    return len;
 477              		.loc 1 143 4 is_stmt 1 view .LVU106
 144:syscalls.c    **** }
 478              		.loc 1 144 1 is_stmt 0 view .LVU107
 479 001c 3046     		mov	r0, r6
 480 001e 70BD     		pop	{r4, r5, r6, pc}
 481              		.loc 1 144 1 view .LVU108
 482              		.cfi_endproc
 483              	.LFE36:
 485              		.section	.text._open,"ax",%progbits
 486              		.align	1
 487              		.global	_open
 488              		.syntax unified
 489              		.thumb
 490              		.thumb_func
 491              		.fpu fpv5-sp-d16
 493              	_open:
 494              	.LVL40:
 495              	.LFB37:
ARM GAS  /var/folders/yz/w8msd8211qzc60m57tpkzbn80000gn/T//ccfRD3yG.s 			page 12


 145:syscalls.c    **** 
 146:syscalls.c    **** int _open(char *path, int flags, ...)
 147:syscalls.c    **** {
 496              		.loc 1 147 1 is_stmt 1 view -0
 497              		.cfi_startproc
 498              		@ args = 4, pretend = 12, frame = 0
 499              		@ frame_needed = 0, uses_anonymous_args = 1
 500              		@ link register save eliminated.
 501              		.loc 1 147 1 is_stmt 0 view .LVU110
 502 0000 0EB4     		push	{r1, r2, r3}
 503              	.LCFI3:
 504              		.cfi_def_cfa_offset 12
 505              		.cfi_offset 1, -12
 506              		.cfi_offset 2, -8
 507              		.cfi_offset 3, -4
 148:syscalls.c    **** 	/* Pretend like we always fail */
 149:syscalls.c    **** 	return -1;
 508              		.loc 1 149 2 is_stmt 1 view .LVU111
 150:syscalls.c    **** }
 509              		.loc 1 150 1 is_stmt 0 view .LVU112
 510 0002 4FF0FF30 		mov	r0, #-1
 511              	.LVL41:
 512              		.loc 1 150 1 view .LVU113
 513 0006 03B0     		add	sp, sp, #12
 514              	.LCFI4:
 515              		.cfi_restore 3
 516              		.cfi_restore 2
 517              		.cfi_restore 1
 518              		.cfi_def_cfa_offset 0
 519 0008 7047     		bx	lr
 520              		.cfi_endproc
 521              	.LFE37:
 523              		.section	.text._wait,"ax",%progbits
 524              		.align	1
 525              		.global	_wait
 526              		.syntax unified
 527              		.thumb
 528              		.thumb_func
 529              		.fpu fpv5-sp-d16
 531              	_wait:
 532              	.LVL42:
 533              	.LFB38:
 151:syscalls.c    **** 
 152:syscalls.c    **** int _wait(int *status)
 153:syscalls.c    **** {
 534              		.loc 1 153 1 is_stmt 1 view -0
 535              		.cfi_startproc
 536              		@ args = 0, pretend = 0, frame = 0
 537              		@ frame_needed = 0, uses_anonymous_args = 0
 538              		@ link register save eliminated.
 154:syscalls.c    **** 	errno = ECHILD;
 539              		.loc 1 154 2 view .LVU115
 540              		.loc 1 154 8 is_stmt 0 view .LVU116
 541 0000 024B     		ldr	r3, .L36
 542 0002 0A22     		movs	r2, #10
 543 0004 1A60     		str	r2, [r3]
 155:syscalls.c    **** 	return -1;
ARM GAS  /var/folders/yz/w8msd8211qzc60m57tpkzbn80000gn/T//ccfRD3yG.s 			page 13


 544              		.loc 1 155 2 is_stmt 1 view .LVU117
 156:syscalls.c    **** }
 545              		.loc 1 156 1 is_stmt 0 view .LVU118
 546 0006 4FF0FF30 		mov	r0, #-1
 547              	.LVL43:
 548              		.loc 1 156 1 view .LVU119
 549 000a 7047     		bx	lr
 550              	.L37:
 551              		.align	2
 552              	.L36:
 553 000c 00000000 		.word	errno
 554              		.cfi_endproc
 555              	.LFE38:
 557              		.section	.text._unlink,"ax",%progbits
 558              		.align	1
 559              		.global	_unlink
 560              		.syntax unified
 561              		.thumb
 562              		.thumb_func
 563              		.fpu fpv5-sp-d16
 565              	_unlink:
 566              	.LVL44:
 567              	.LFB39:
 157:syscalls.c    **** 
 158:syscalls.c    **** int _unlink(char *name)
 159:syscalls.c    **** {
 568              		.loc 1 159 1 is_stmt 1 view -0
 569              		.cfi_startproc
 570              		@ args = 0, pretend = 0, frame = 0
 571              		@ frame_needed = 0, uses_anonymous_args = 0
 572              		@ link register save eliminated.
 160:syscalls.c    **** 	errno = ENOENT;
 573              		.loc 1 160 2 view .LVU121
 574              		.loc 1 160 8 is_stmt 0 view .LVU122
 575 0000 024B     		ldr	r3, .L39
 576 0002 0222     		movs	r2, #2
 577 0004 1A60     		str	r2, [r3]
 161:syscalls.c    **** 	return -1;
 578              		.loc 1 161 2 is_stmt 1 view .LVU123
 162:syscalls.c    **** }
 579              		.loc 1 162 1 is_stmt 0 view .LVU124
 580 0006 4FF0FF30 		mov	r0, #-1
 581              	.LVL45:
 582              		.loc 1 162 1 view .LVU125
 583 000a 7047     		bx	lr
 584              	.L40:
 585              		.align	2
 586              	.L39:
 587 000c 00000000 		.word	errno
 588              		.cfi_endproc
 589              	.LFE39:
 591              		.section	.text._times,"ax",%progbits
 592              		.align	1
 593              		.global	_times
 594              		.syntax unified
 595              		.thumb
 596              		.thumb_func
ARM GAS  /var/folders/yz/w8msd8211qzc60m57tpkzbn80000gn/T//ccfRD3yG.s 			page 14


 597              		.fpu fpv5-sp-d16
 599              	_times:
 600              	.LVL46:
 601              	.LFB40:
 163:syscalls.c    **** 
 164:syscalls.c    **** int _times(struct tms *buf)
 165:syscalls.c    **** {
 602              		.loc 1 165 1 is_stmt 1 view -0
 603              		.cfi_startproc
 604              		@ args = 0, pretend = 0, frame = 0
 605              		@ frame_needed = 0, uses_anonymous_args = 0
 606              		@ link register save eliminated.
 166:syscalls.c    **** 	return -1;
 607              		.loc 1 166 2 view .LVU127
 167:syscalls.c    **** }
 608              		.loc 1 167 1 is_stmt 0 view .LVU128
 609 0000 4FF0FF30 		mov	r0, #-1
 610              	.LVL47:
 611              		.loc 1 167 1 view .LVU129
 612 0004 7047     		bx	lr
 613              		.cfi_endproc
 614              	.LFE40:
 616              		.section	.text._stat,"ax",%progbits
 617              		.align	1
 618              		.global	_stat
 619              		.syntax unified
 620              		.thumb
 621              		.thumb_func
 622              		.fpu fpv5-sp-d16
 624              	_stat:
 625              	.LVL48:
 626              	.LFB41:
 168:syscalls.c    **** 
 169:syscalls.c    **** int _stat(char *file, struct stat *st)
 170:syscalls.c    **** {
 627              		.loc 1 170 1 is_stmt 1 view -0
 628              		.cfi_startproc
 629              		@ args = 0, pretend = 0, frame = 0
 630              		@ frame_needed = 0, uses_anonymous_args = 0
 631              		@ link register save eliminated.
 171:syscalls.c    **** 	st->st_mode = S_IFCHR;
 632              		.loc 1 171 2 view .LVU131
 633              		.loc 1 171 14 is_stmt 0 view .LVU132
 634 0000 4FF40053 		mov	r3, #8192
 635 0004 4B60     		str	r3, [r1, #4]
 172:syscalls.c    **** 	return 0;
 636              		.loc 1 172 2 is_stmt 1 view .LVU133
 173:syscalls.c    **** }
 637              		.loc 1 173 1 is_stmt 0 view .LVU134
 638 0006 0020     		movs	r0, #0
 639              	.LVL49:
 640              		.loc 1 173 1 view .LVU135
 641 0008 7047     		bx	lr
 642              		.cfi_endproc
 643              	.LFE41:
 645              		.section	.text._link,"ax",%progbits
 646              		.align	1
ARM GAS  /var/folders/yz/w8msd8211qzc60m57tpkzbn80000gn/T//ccfRD3yG.s 			page 15


 647              		.global	_link
 648              		.syntax unified
 649              		.thumb
 650              		.thumb_func
 651              		.fpu fpv5-sp-d16
 653              	_link:
 654              	.LVL50:
 655              	.LFB42:
 174:syscalls.c    **** 
 175:syscalls.c    **** int _link(char *old, char *new)
 176:syscalls.c    **** {
 656              		.loc 1 176 1 is_stmt 1 view -0
 657              		.cfi_startproc
 658              		@ args = 0, pretend = 0, frame = 0
 659              		@ frame_needed = 0, uses_anonymous_args = 0
 660              		@ link register save eliminated.
 177:syscalls.c    **** 	errno = EMLINK;
 661              		.loc 1 177 2 view .LVU137
 662              		.loc 1 177 8 is_stmt 0 view .LVU138
 663 0000 024B     		ldr	r3, .L44
 664 0002 1F22     		movs	r2, #31
 665 0004 1A60     		str	r2, [r3]
 178:syscalls.c    **** 	return -1;
 666              		.loc 1 178 2 is_stmt 1 view .LVU139
 179:syscalls.c    **** }
 667              		.loc 1 179 1 is_stmt 0 view .LVU140
 668 0006 4FF0FF30 		mov	r0, #-1
 669              	.LVL51:
 670              		.loc 1 179 1 view .LVU141
 671 000a 7047     		bx	lr
 672              	.L45:
 673              		.align	2
 674              	.L44:
 675 000c 00000000 		.word	errno
 676              		.cfi_endproc
 677              	.LFE42:
 679              		.section	.text._fork,"ax",%progbits
 680              		.align	1
 681              		.global	_fork
 682              		.syntax unified
 683              		.thumb
 684              		.thumb_func
 685              		.fpu fpv5-sp-d16
 687              	_fork:
 688              	.LFB43:
 180:syscalls.c    **** 
 181:syscalls.c    **** int _fork(void)
 182:syscalls.c    **** {
 689              		.loc 1 182 1 is_stmt 1 view -0
 690              		.cfi_startproc
 691              		@ args = 0, pretend = 0, frame = 0
 692              		@ frame_needed = 0, uses_anonymous_args = 0
 693              		@ link register save eliminated.
 183:syscalls.c    **** 	errno = EAGAIN;
 694              		.loc 1 183 2 view .LVU143
 695              		.loc 1 183 8 is_stmt 0 view .LVU144
 696 0000 024B     		ldr	r3, .L47
ARM GAS  /var/folders/yz/w8msd8211qzc60m57tpkzbn80000gn/T//ccfRD3yG.s 			page 16


 697 0002 0B22     		movs	r2, #11
 698 0004 1A60     		str	r2, [r3]
 184:syscalls.c    **** 	return -1;
 699              		.loc 1 184 2 is_stmt 1 view .LVU145
 185:syscalls.c    **** }
 700              		.loc 1 185 1 is_stmt 0 view .LVU146
 701 0006 4FF0FF30 		mov	r0, #-1
 702 000a 7047     		bx	lr
 703              	.L48:
 704              		.align	2
 705              	.L47:
 706 000c 00000000 		.word	errno
 707              		.cfi_endproc
 708              	.LFE43:
 710              		.section	.text._execve,"ax",%progbits
 711              		.align	1
 712              		.global	_execve
 713              		.syntax unified
 714              		.thumb
 715              		.thumb_func
 716              		.fpu fpv5-sp-d16
 718              	_execve:
 719              	.LVL52:
 720              	.LFB44:
 186:syscalls.c    **** 
 187:syscalls.c    **** int _execve(char *name, char **argv, char **env)
 188:syscalls.c    **** {
 721              		.loc 1 188 1 is_stmt 1 view -0
 722              		.cfi_startproc
 723              		@ args = 0, pretend = 0, frame = 0
 724              		@ frame_needed = 0, uses_anonymous_args = 0
 725              		@ link register save eliminated.
 189:syscalls.c    **** 	errno = ENOMEM;
 726              		.loc 1 189 2 view .LVU148
 727              		.loc 1 189 8 is_stmt 0 view .LVU149
 728 0000 024B     		ldr	r3, .L50
 729 0002 0C22     		movs	r2, #12
 730              	.LVL53:
 731              		.loc 1 189 8 view .LVU150
 732 0004 1A60     		str	r2, [r3]
 190:syscalls.c    **** 	return -1;
 733              		.loc 1 190 2 is_stmt 1 view .LVU151
 191:syscalls.c    **** }
 734              		.loc 1 191 1 is_stmt 0 view .LVU152
 735 0006 4FF0FF30 		mov	r0, #-1
 736              	.LVL54:
 737              		.loc 1 191 1 view .LVU153
 738 000a 7047     		bx	lr
 739              	.L51:
 740              		.align	2
 741              	.L50:
 742 000c 00000000 		.word	errno
 743              		.cfi_endproc
 744              	.LFE44:
 746              		.section	.bss.heap_end.8064,"aw",%nobits
 747              		.align	2
 748              		.set	.LANCHOR0,. + 0
ARM GAS  /var/folders/yz/w8msd8211qzc60m57tpkzbn80000gn/T//ccfRD3yG.s 			page 17


 751              	heap_end.8064:
 752 0000 00000000 		.space	4
 753              		.weak	__io_getchar
 754              		.weak	__io_putchar
 755              		.text
 756              	.Letext0:
 757              		.file 2 "/usr/local/Cellar/arm-none-eabi-gcc/9-2019-q4-major/gcc/arm-none-eabi/include/machine/_de
 758              		.file 3 "/usr/local/Cellar/arm-none-eabi-gcc/9-2019-q4-major/gcc/arm-none-eabi/include/sys/lock.h"
 759              		.file 4 "/usr/local/Cellar/arm-none-eabi-gcc/9-2019-q4-major/gcc/arm-none-eabi/include/sys/_types.
 760              		.file 5 "/usr/local/Cellar/arm-none-eabi-gcc/9-2019-q4-major/gcc/lib/gcc/arm-none-eabi/9.2.1/inclu
 761              		.file 6 "/usr/local/Cellar/arm-none-eabi-gcc/9-2019-q4-major/gcc/arm-none-eabi/include/sys/_timeva
 762              		.file 7 "/usr/local/Cellar/arm-none-eabi-gcc/9-2019-q4-major/gcc/arm-none-eabi/include/sys/types.h
 763              		.file 8 "/usr/local/Cellar/arm-none-eabi-gcc/9-2019-q4-major/gcc/arm-none-eabi/include/sys/reent.h
 764              		.file 9 "/usr/local/Cellar/arm-none-eabi-gcc/9-2019-q4-major/gcc/arm-none-eabi/include/time.h"
 765              		.file 10 "/usr/local/Cellar/arm-none-eabi-gcc/9-2019-q4-major/gcc/arm-none-eabi/include/sys/stat.h
 766              		.file 11 "/usr/local/Cellar/arm-none-eabi-gcc/9-2019-q4-major/gcc/arm-none-eabi/include/sys/time.h
 767              		.file 12 "/usr/local/Cellar/arm-none-eabi-gcc/9-2019-q4-major/gcc/arm-none-eabi/include/sys/times.
 768              		.file 13 "/usr/local/Cellar/arm-none-eabi-gcc/9-2019-q4-major/gcc/arm-none-eabi/include/stdlib.h"
 769              		.file 14 "/usr/local/Cellar/arm-none-eabi-gcc/9-2019-q4-major/gcc/arm-none-eabi/include/ctype.h"
 770              		.file 15 "Middlewares/LwIP/src/include/lwip/errno.h"
 771              		.file 16 "/usr/local/Cellar/arm-none-eabi-gcc/9-2019-q4-major/gcc/arm-none-eabi/include/sys/unistd
 772              		.file 17 "/usr/local/Cellar/arm-none-eabi-gcc/9-2019-q4-major/gcc/arm-none-eabi/include/sys/wait.h
ARM GAS  /var/folders/yz/w8msd8211qzc60m57tpkzbn80000gn/T//ccfRD3yG.s 			page 18

